MODULE Linux arm64 3077FA0B50585B09ADFFA80EA4EACE290 gdutilsdevs.gdutils.android64.so
INFO CODE_ID 0BFA77305850095BADFFA80EA4EACE29F30C9791
INFO GENERATOR mozilla/dump_syms 2.3.4
PUBLIC 84160 0 __on_dlclose
PUBLIC 84170 0 __emutls_unregister_key
PUBLIC 84178 0 __on_dlclose_late
PUBLIC 84180 0 __atexit_handler_wrapper
PUBLIC 84194 0 atexit
PUBLIC 841b0 0 pthread_atfork
PUBLIC 841c0 0 unwind_phase2
PUBLIC 842f4 0 _Unwind_Resume
PUBLIC 84378 0 unwind_phase2_forced
PUBLIC m 8446c 0 __unw_init_local
PUBLIC m 84514 0 __unw_get_reg
PUBLIC 84590 0 __unw_step_stage2
PUBLIC m 845a4 0 __unw_get_proc_info
PUBLIC m 845e4 0 __unw_resume
PUBLIC 8460c 0 libunwind::CFI_Parser<libunwind::LocalAddressSpace>::decodeFDE(libunwind::LocalAddressSpace&, unsigned long, libunwind::CFI_Parser<libunwind::LocalAddressSpace>::FDE_Info*, libunwind::CFI_Parser<libunwind::LocalAddressSpace>::CIE_Info*, bool)
PUBLIC 8479c 0 libunwind::CFI_Parser<libunwind::LocalAddressSpace>::parseCIE(libunwind::LocalAddressSpace&, unsigned long, libunwind::CFI_Parser<libunwind::LocalAddressSpace>::CIE_Info*)
PUBLIC 84a64 0 libunwind::AbstractUnwindCursor::~AbstractUnwindCursor()
PUBLIC 84a6c 0 libunwind::UnwindCursor<libunwind::LocalAddressSpace, libunwind::Registers_arm64>::~UnwindCursor()
PUBLIC 84a74 0 libunwind::UnwindCursor<libunwind::LocalAddressSpace, libunwind::Registers_arm64>::validReg(int)
PUBLIC 84ab8 0 libunwind::UnwindCursor<libunwind::LocalAddressSpace, libunwind::Registers_arm64>::getReg(int)
PUBLIC 84ba0 0 libunwind::UnwindCursor<libunwind::LocalAddressSpace, libunwind::Registers_arm64>::setReg(int, unsigned long)
PUBLIC 84c88 0 libunwind::UnwindCursor<libunwind::LocalAddressSpace, libunwind::Registers_arm64>::validFloatReg(int)
PUBLIC 84c9c 0 libunwind::UnwindCursor<libunwind::LocalAddressSpace, libunwind::Registers_arm64>::getFloatReg(int)
PUBLIC 84cac 0 libunwind::UnwindCursor<libunwind::LocalAddressSpace, libunwind::Registers_arm64>::setFloatReg(int, double)
PUBLIC 84cbc 0 libunwind::UnwindCursor<libunwind::LocalAddressSpace, libunwind::Registers_arm64>::step(bool)
PUBLIC 84dac 0 libunwind::UnwindCursor<libunwind::LocalAddressSpace, libunwind::Registers_arm64>::getInfo(unw_proc_info_t*)
PUBLIC 84df0 0 libunwind::UnwindCursor<libunwind::LocalAddressSpace, libunwind::Registers_arm64>::jumpto()
PUBLIC 84dfc 0 libunwind::UnwindCursor<libunwind::LocalAddressSpace, libunwind::Registers_arm64>::isSignalFrame()
PUBLIC 84e08 0 libunwind::UnwindCursor<libunwind::LocalAddressSpace, libunwind::Registers_arm64>::getFunctionName(char*, unsigned long, unsigned long*)
PUBLIC 84e34 0 libunwind::UnwindCursor<libunwind::LocalAddressSpace, libunwind::Registers_arm64>::setInfoBasedOnIPRegister(bool)
PUBLIC 850b4 0 libunwind::UnwindCursor<libunwind::LocalAddressSpace, libunwind::Registers_arm64>::getRegisterName(int)
PUBLIC 850c0 0 libunwind::UnwindCursor<libunwind::LocalAddressSpace, libunwind::Registers_arm64>::stepThroughSigReturn(libunwind::Registers_arm64&)
PUBLIC 851e0 0 libunwind::DwarfInstructions<libunwind::LocalAddressSpace, libunwind::Registers_arm64>::stepWithDwarf(libunwind::LocalAddressSpace&, unsigned long, unsigned long, libunwind::Registers_arm64&, bool&, bool)
PUBLIC 85668 0 libunwind::CFI_Parser<libunwind::LocalAddressSpace>::parseFDEInstructions(libunwind::LocalAddressSpace&, libunwind::CFI_Parser<libunwind::LocalAddressSpace>::FDE_Info const&, libunwind::CFI_Parser<libunwind::LocalAddressSpace>::CIE_Info const&, unsigned long, int, libunwind::CFI_Parser<libunwind::LocalAddressSpace>::PrologInfo*)
PUBLIC 862b0 0 libunwind::DwarfInstructions<libunwind::LocalAddressSpace, libunwind::Registers_arm64>::getCFA(libunwind::LocalAddressSpace&, libunwind::CFI_Parser<libunwind::LocalAddressSpace>::PrologInfo const&, libunwind::Registers_arm64 const&)
PUBLIC 863e4 0 libunwind::DwarfInstructions<libunwind::LocalAddressSpace, libunwind::Registers_arm64>::getSavedRegister(libunwind::LocalAddressSpace&, libunwind::Registers_arm64 const&, unsigned long, libunwind::CFI_Parser<libunwind::LocalAddressSpace>::RegisterLocation const&)
PUBLIC 865f4 0 libunwind::LocalAddressSpace::getEncodedP(unsigned long&, unsigned long, unsigned char, unsigned long)
PUBLIC 86980 0 libunwind::LocalAddressSpace::getULEB128(unsigned long&, unsigned long)
PUBLIC 86b48 0 libunwind::DwarfInstructions<libunwind::LocalAddressSpace, libunwind::Registers_arm64>::evaluateExpression(unsigned long, libunwind::LocalAddressSpace&, libunwind::Registers_arm64 const&, unsigned long)
PUBLIC 87504 0 libunwind::UnwindCursor<libunwind::LocalAddressSpace, libunwind::Registers_arm64>::getInfoFromDwarfSection(unsigned long, libunwind::UnwindInfoSections const&, unsigned int)
PUBLIC 877d8 0 libunwind::findUnwindSectionsByPhdr(dl_phdr_info*, unsigned long, void*)
PUBLIC 8790c 0 libunwind::EHHeaderParser<libunwind::LocalAddressSpace>::decodeEHHdr(libunwind::LocalAddressSpace&, unsigned long, unsigned long, libunwind::EHHeaderParser<libunwind::LocalAddressSpace>::EHHeaderInfo&)
PUBLIC 87a2c 0 libunwind::CFI_Parser<libunwind::LocalAddressSpace>::findFDE(libunwind::LocalAddressSpace&, unsigned long, unsigned long, unsigned long, unsigned long, libunwind::CFI_Parser<libunwind::LocalAddressSpace>::FDE_Info*, libunwind::CFI_Parser<libunwind::LocalAddressSpace>::CIE_Info*)
PUBLIC 87bf4 0 libunwind::EHHeaderParser<libunwind::LocalAddressSpace>::findFDE(libunwind::LocalAddressSpace&, unsigned long, unsigned long, unsigned int, libunwind::CFI_Parser<libunwind::LocalAddressSpace>::FDE_Info*, libunwind::CFI_Parser<libunwind::LocalAddressSpace>::CIE_Info*)
PUBLIC 87d5c 0 libunwind::EHHeaderParser<libunwind::LocalAddressSpace>::getTableEntrySize(unsigned char)
PUBLIC 87e58 0 libunwind::Registers_arm64::getRegisterName(int)
PUBLIC 87e88 0 __libunwind_Registers_arm64_jumpto
PUBLIC m 87f18 0 __unw_getcontext
PUBLIC 87fb4 0 BrownAlertDelegate::init(float, float, char const*, char const*)
PUBLIC 88298 0 BrownAlertDelegate::keyDown(cocos2d::enumKeyCodes)
PUBLIC 882c0 0 {virtual override thunk({offset(-344)}, BrownAlertDelegate::keyDown(cocos2d::enumKeyCodes))}
PUBLIC 882ec 0 BrownAlertDelegate::onClose(cocos2d::CCObject*)
PUBLIC 88328 0 cocos2d::CCCopying::copyWithZone(cocos2d::CCZone*)
PUBLIC 88330 0 cocos2d::CCLayerRGBA::setOpacityModifyRGB(bool)
PUBLIC 88334 0 cocos2d::CCLayerRGBA::isOpacityModifyRGB()
PUBLIC 8833c 0 cocos2d::CCKeyboardDelegate::keyUp(cocos2d::enumKeyCodes)
PUBLIC 88340 0 cocos2d::CCMouseDelegate::rightKeyDown()
PUBLIC 88344 0 cocos2d::CCMouseDelegate::rightKeyUp()
PUBLIC 88348 0 cocos2d::CCMouseDelegate::scrollWheel(float, float)
PUBLIC 8834c 0 {virtual override thunk({offset(-408)}, cocos2d::CCLayerRGBA::setOpacityModifyRGB(bool))}
PUBLIC 88350 0 {virtual override thunk({offset(-408)}, cocos2d::CCLayerRGBA::isOpacityModifyRGB())}
PUBLIC 88360 0 __aarch64_ldadd8_relax
PUBLIC 88390 0 init_have_lse_atomics
PUBLIC 88428 0 __init_cpu_features_constructor
PUBLIC 889c4 0 __init_cpu_features
PUBLIC 88a50 0 __aarch64_ldadd8_acq_rel
PUBLIC 88a80 0 __cxx_global_var_init
PUBLIC 88f00 0 geode::modifier::ModifyBase<geode::modifier::ModifyDerive<CustomScoreCell, GJScoreCell> >::~ModifyBase()
PUBLIC 88f1c 0 geode::modifier::ModifyDerive<CustomScoreCell, GJScoreCell>::apply()
PUBLIC 892a4 0 std::__ndk1::shared_ptr<geode::Hook>::~shared_ptr[abi:ne180000]()
PUBLIC 892f4 0 geode::impl::ResultData<geode::Hook*, std::__ndk1::basic_string<char, std::__ndk1::char_traits<char>, std::__ndk1::allocator<char> > >::~ResultData()
PUBLIC 89368 0 std::__ndk1::vector<std::__ndk1::basic_string<char, std::__ndk1::char_traits<char>, std::__ndk1::allocator<char> >, std::__ndk1::allocator<std::__ndk1::basic_string<char, std::__ndk1::char_traits<char>, std::__ndk1::allocator<char> > > >::~vector[abi:ne180000]()
PUBLIC 893e4 0 geode::modifier::ModifyBase<geode::modifier::ModifyDerive<CustomScoreCell, GJScoreCell> >::apply()
PUBLIC 893e8 0 __clang_call_terminate
PUBLIC 893f8 0 _ZN5geode15UnwrapExceptionC2IRPNS_4HookEQsr4implE18IsStringStreamableIT_EEENS_4impl5OkTagEOS5_
PUBLIC 8954c 0 std::__ndk1::__throw_bad_variant_access[abi:ne180000]()
PUBLIC 89580 0 std::__ndk1::basic_stringstream<char, std::__ndk1::char_traits<char>, std::__ndk1::allocator<char> >::basic_stringstream[abi:ne180000]()
PUBLIC m 896ac 0 std::__ndk1::basic_stringstream<char, std::__ndk1::char_traits<char>, std::__ndk1::allocator<char> >::~basic_stringstream()
PUBLIC 8972c 0 geode::UnwrapException::~UnwrapException()
PUBLIC 89750 0 std::__ndk1::__put_character_sequence[abi:ne180000]<char, std::__ndk1::char_traits<char> >(std::__ndk1::basic_ostream<char, std::__ndk1::char_traits<char> >, std::__ndk1::basic_ostream const*, unsigned long)
PUBLIC 898f4 0 std::__ndk1::__pad_and_output[abi:ne180000]<char, std::__ndk1::char_traits<char> >(std::__ndk1::char_traits<char>, std::__ndk1::ostreambuf_iterator const*, std::__ndk1::ostreambuf_iterator const, std::__ndk1::ostreambuf_iterator const, std::__ndk1::ios_base&, std::__ndk1::ostreambuf_iterator)
PUBLIC 89ad0 0 std::__ndk1::basic_string<char, std::__ndk1::char_traits<char>, std::__ndk1::allocator<char> >::__throw_length_error[abi:ne180000]() const
PUBLIC 89ae4 0 std::__ndk1::__throw_length_error[abi:ne180000](char const*)
PUBLIC 89b34 0 std::length_error::length_error[abi:ne180000](char const*)
PUBLIC 89b64 0 std::__throw_bad_array_new_length([abi:ne180000], void)
PUBLIC 89b98 0 std::__ndk1::basic_stringbuf<char, std::__ndk1::char_traits<char>, std::__ndk1::allocator<char> >::str[abi:ne180000]() &&
PUBLIC 89d10 0 std::__ndk1::basic_stringbuf<char, std::__ndk1::char_traits<char>, std::__ndk1::allocator<char> >::__init_buf_ptrs[abi:ne180000]()
PUBLIC 89e58 0 std::__ndk1::vector<std::__ndk1::basic_string<char, std::__ndk1::char_traits<char>, std::__ndk1::allocator<char> >, std::__ndk1::allocator<std::__ndk1::basic_string<char, std::__ndk1::char_traits<char>, std::__ndk1::allocator<char> > > >::__push_back_slow_path<std::__ndk1::basic_string<char, std::__ndk1::char_traits<char>, std::__ndk1::allocator<char> > const&>(std::__ndk1::basic_string<char, std::__ndk1::char_traits<char>, std::__ndk1::allocator<char> > const&)
PUBLIC 8a080 0 std::__ndk1::basic_string<char, std::__ndk1::char_traits<char>, std::__ndk1::allocator<char> >::__init_copy_ctor_external(char const*, unsigned long)
PUBLIC 8a100 0 std::__ndk1::__split_buffer<std::__ndk1::basic_string<char, std::__ndk1::char_traits<char>, std::__ndk1::allocator<char> >, std::__ndk1::allocator<std::__ndk1::basic_string<char, std::__ndk1::char_traits<char>, std::__ndk1::allocator<char> > >&>::~__split_buffer()
PUBLIC 8a168 0 std::__ndk1::vector<std::__ndk1::basic_string<char, std::__ndk1::char_traits<char>, std::__ndk1::allocator<char> >, std::__ndk1::allocator<std::__ndk1::basic_string<char, std::__ndk1::char_traits<char>, std::__ndk1::allocator<char> > > >::__throw_length_error[abi:ne180000]() const
PUBLIC 8a17c 0 std::__ndk1::__variant_detail::__visitation::__base::__dispatcher<(unsigned long)0>::__dispatch[abi:ne180000]<std::__ndk1::__variant_detail::__dtor<std::__ndk1::__variant_detail::__traits<geode::Hook*, std::__ndk1::basic_string<char, std::__ndk1::char_traits<char>, std::__ndk1::allocator<char> > >, (std::__ndk1::__variant_detail::_Trait)1>::__destroy[abi:ne180000]()::{lambda(auto:1&)#1}, std::__ndk1::__variant_detail::__base<(std::__ndk1::__variant_detail::__traits<geode::Hook*, std::__ndk1::basic_string<char, std::__ndk1::char_traits<char>, std::__ndk1::allocator<char> > >)1, geode::Hook, std::__ndk1::allocator<char> >&>(std::__ndk1::__variant_detail::__dtor<std::__ndk1::__variant_detail::__traits<geode::Hook*, std::__ndk1::basic_string<char, std::__ndk1::char_traits<char>, std::__ndk1::allocator<char> > >, (std::__ndk1::__variant_detail::_Trait)1>, std::__ndk1::__variant_detail::__base<(std::__ndk1::__variant_detail::__traits<geode::Hook*, std::__ndk1::basic_string<char, std::__ndk1::char_traits<char>, std::__ndk1::allocator<char> > >)1, geode::Hook, std::__ndk1::allocator<char> >&)
PUBLIC 8a180 0 std::__ndk1::__variant_detail::__visitation::__base::__dispatcher<(unsigned long)1>::__dispatch[abi:ne180000]<std::__ndk1::__variant_detail::__dtor<std::__ndk1::__variant_detail::__traits<geode::Hook*, std::__ndk1::basic_string<char, std::__ndk1::char_traits<char>, std::__ndk1::allocator<char> > >, (std::__ndk1::__variant_detail::_Trait)1>::__destroy[abi:ne180000]()::{lambda(auto:1&)#1}, std::__ndk1::__variant_detail::__base<(std::__ndk1::__variant_detail::__traits<geode::Hook*, std::__ndk1::basic_string<char, std::__ndk1::char_traits<char>, std::__ndk1::allocator<char> > >)1, geode::Hook, std::__ndk1::allocator<char> >&>(std::__ndk1::__variant_detail::__dtor<std::__ndk1::__variant_detail::__traits<geode::Hook*, std::__ndk1::basic_string<char, std::__ndk1::char_traits<char>, std::__ndk1::allocator<char> > >, (std::__ndk1::__variant_detail::_Trait)1>, std::__ndk1::__variant_detail::__base<(std::__ndk1::__variant_detail::__traits<geode::Hook*, std::__ndk1::basic_string<char, std::__ndk1::char_traits<char>, std::__ndk1::allocator<char> > >)1, geode::Hook, std::__ndk1::allocator<char> >&)
PUBLIC 8a194 0 std::__ndk1::__tree<std::__ndk1::__value_type<std::__ndk1::basic_string<char, std::__ndk1::char_traits<char>, std::__ndk1::allocator<char> >, std::__ndk1::shared_ptr<geode::Hook> >, std::__ndk1::__map_value_compare<std::__ndk1::basic_string<char, std::__ndk1::char_traits<char>, std::__ndk1::allocator<char> >, std::__ndk1::__value_type<std::__ndk1::basic_string<char, std::__ndk1::char_traits<char>, std::__ndk1::allocator<char> >, std::__ndk1::shared_ptr<geode::Hook> >, std::__ndk1::less<std::__ndk1::basic_string<char, std::__ndk1::char_traits<char>, std::__ndk1::allocator<char> > >, true>, std::__ndk1::allocator<std::__ndk1::__value_type<std::__ndk1::basic_string<char, std::__ndk1::char_traits<char>, std::__ndk1::allocator<char> >, std::__ndk1::shared_ptr<geode::Hook> > > >::find<std::__ndk1::basic_string<char, std::__ndk1::char_traits<char>, std::__ndk1::allocator<char> > >(std::__ndk1::basic_string<char, std::__ndk1::char_traits<char>, std::__ndk1::allocator<char> > const&)
PUBLIC 8a2b4 0 std::__ndk1::__tree<std::__ndk1::__value_type<std::__ndk1::basic_string<char, std::__ndk1::char_traits<char>, std::__ndk1::allocator<char> >, std::__ndk1::shared_ptr<geode::Hook> >, std::__ndk1::__map_value_compare<std::__ndk1::basic_string<char, std::__ndk1::char_traits<char>, std::__ndk1::allocator<char> >, std::__ndk1::__value_type<std::__ndk1::basic_string<char, std::__ndk1::char_traits<char>, std::__ndk1::allocator<char> >, std::__ndk1::shared_ptr<geode::Hook> >, std::__ndk1::less<std::__ndk1::basic_string<char, std::__ndk1::char_traits<char>, std::__ndk1::allocator<char> > >, true>, std::__ndk1::allocator<std::__ndk1::__value_type<std::__ndk1::basic_string<char, std::__ndk1::char_traits<char>, std::__ndk1::allocator<char> >, std::__ndk1::shared_ptr<geode::Hook> > > >::erase(std::__ndk1::__tree_const_iterator<std::__ndk1::__value_type<std::__ndk1::basic_string<char, std::__ndk1::char_traits<char>, std::__ndk1::allocator<char> >, std::__ndk1::shared_ptr<geode::Hook> >, std::__ndk1::__tree_node<std::__ndk1::__value_type<std::__ndk1::basic_string<char, std::__ndk1::char_traits<char>, std::__ndk1::allocator<char> >, std::__ndk1::shared_ptr<geode::Hook> >, void*>*, long>)
PUBLIC 8a388 0 std::__ndk1::__tree_remove[abi:ne180000]<std::__ndk1::__tree_node_base<void*>*>(std::__ndk1::__tree_node_base<void*>*, std::__ndk1::__tree_node_base<void*>*)
PUBLIC 8a750 0 std::__ndk1::__tree<std::__ndk1::__value_type<std::__ndk1::basic_string<char, std::__ndk1::char_traits<char>, std::__ndk1::allocator<char> >, std::__ndk1::shared_ptr<geode::Hook> >, std::__ndk1::__map_value_compare<std::__ndk1::basic_string<char, std::__ndk1::char_traits<char>, std::__ndk1::allocator<char> >, std::__ndk1::__value_type<std::__ndk1::basic_string<char, std::__ndk1::char_traits<char>, std::__ndk1::allocator<char> >, std::__ndk1::shared_ptr<geode::Hook> >, std::__ndk1::less<std::__ndk1::basic_string<char, std::__ndk1::char_traits<char>, std::__ndk1::allocator<char> > >, true>, std::__ndk1::allocator<std::__ndk1::__value_type<std::__ndk1::basic_string<char, std::__ndk1::char_traits<char>, std::__ndk1::allocator<char> >, std::__ndk1::shared_ptr<geode::Hook> > > >::destroy(std::__ndk1::__tree_node<std::__ndk1::__value_type<std::__ndk1::basic_string<char, std::__ndk1::char_traits<char>, std::__ndk1::allocator<char> >, std::__ndk1::shared_ptr<geode::Hook> >, void*>*)
PUBLIC 8a7dc 0 geode::modifier::AsStaticFunction_loadFromScore<CustomScoreCell, void (CustomScoreCell::*)(GJUserScore*)>::Impl<void (CustomScoreCell::*)(GJUserScore*)>::function(CustomScoreCell*, GJUserScore*)
PUBLIC 8a7e0 0 std::__ndk1::shared_ptr<tulip::hook::CallingConvention>::~shared_ptr[abi:ne180000]()
PUBLIC 8a830 0 tulip::hook::HandlerMetadata::~HandlerMetadata()
PUBLIC 8a894 0 CustomScoreCell::loadFromScore(GJUserScore*)
PUBLIC 8da68 0 std::__ndk1::basic_string<char, std::__ndk1::char_traits<char>, std::__ndk1::allocator<char> >::__assign_no_alias<true>(char const*, unsigned long)
PUBLIC 8db14 0 std::__ndk1::basic_string<char, std::__ndk1::char_traits<char>, std::__ndk1::allocator<char> >::__assign_no_alias<false>(char const*, unsigned long)
PUBLIC 8dc24 0 geode::cast::traverseTypeinfoFor(void*, geode::cast::ClassTypeinfoType const*, char const*)
PUBLIC 8dd28 0 cocos2d::CCSequence::create(cocos2d::CCFiniteTimeAction*, ...)
PUBLIC 8ddc0 0 std::__ndk1::__tree<std::__ndk1::__value_type<std::__ndk1::basic_string<char, std::__ndk1::char_traits<char>, std::__ndk1::allocator<char> >, std::__ndk1::shared_ptr<geode::Hook> >, std::__ndk1::__map_value_compare<std::__ndk1::basic_string<char, std::__ndk1::char_traits<char>, std::__ndk1::allocator<char> >, std::__ndk1::__value_type<std::__ndk1::basic_string<char, std::__ndk1::char_traits<char>, std::__ndk1::allocator<char> >, std::__ndk1::shared_ptr<geode::Hook> >, std::__ndk1::less<std::__ndk1::basic_string<char, std::__ndk1::char_traits<char>, std::__ndk1::allocator<char> > >, true>, std::__ndk1::allocator<std::__ndk1::__value_type<std::__ndk1::basic_string<char, std::__ndk1::char_traits<char>, std::__ndk1::allocator<char> >, std::__ndk1::shared_ptr<geode::Hook> > > >::__emplace_unique_key_args<std::__ndk1::basic_string<char, std::__ndk1::char_traits<char>, std::__ndk1::allocator<char> >, std::__ndk1::piecewise_construct_t const&, std::__ndk1::tuple<std::__ndk1::basic_string<char, std::__ndk1::char_traits<char>, std::__ndk1::allocator<char> >&&>, std::__ndk1::tuple<> >(std::__ndk1::basic_string<char, std::__ndk1::char_traits<char>, std::__ndk1::allocator<char> > const&, std::__ndk1::piecewise_construct_t const&, std::__ndk1::tuple<std::__ndk1::basic_string<char, std::__ndk1::char_traits<char>, std::__ndk1::allocator<char> >&&>, std::__ndk1::tuple<>)
PUBLIC 8df38 0 std::__ndk1::__tree_balance_after_insert[abi:ne180000]<std::__ndk1::__tree_node_base<void*>*>(std::__ndk1::__tree_node_base<void*>*, std::__ndk1::__tree_node_base<void*>*)
PUBLIC 8e0e8 0 std::__ndk1::unordered_map<std::__ndk1::basic_string<char, std::__ndk1::char_traits<char>, std::__ndk1::allocator<char> >, geode::Task<geode::utils::web::WebResponse, geode::utils::web::WebProgress>, std::__ndk1::hash<std::__ndk1::basic_string<char, std::__ndk1::char_traits<char>, std::__ndk1::allocator<char> > >, std::__ndk1::equal_to<std::__ndk1::basic_string<char, std::__ndk1::char_traits<char>, std::__ndk1::allocator<char> > >, std::__ndk1::allocator<std::__ndk1::pair<std::__ndk1::basic_string<char, std::__ndk1::char_traits<char>, std::__ndk1::allocator<char> > const, geode::Task<geode::utils::web::WebResponse, geode::utils::web::WebProgress> > > >::~unordered_map[abi:ne180000]()
PUBLIC 8e194 0 geode::Task<geode::utils::web::WebResponse, geode::utils::web::WebProgress>::~Task()
PUBLIC 8e1e4 0 geode::EventListener<geode::Task<geode::utils::web::WebResponse, geode::utils::web::WebProgress> >::~EventListener()
PUBLIC 8e280 0 MoreLeaderboards::getWords(std::__ndk1::basic_string<char, std::__ndk1::char_traits<char>, std::__ndk1::allocator<char> >, std::__ndk1::basic_string<char, std::__ndk1::char_traits<char>, std::__ndk1::allocator<char> >)
PUBLIC 8e628 0 SearchUserLBLayer::onValidate(cocos2d::CCObject*)
PUBLIC 8e6f0 0 MoreLeaderboards::changeTabPage()
PUBLIC 8f62c 0 MoreLeaderboards::onTab(cocos2d::CCObject*)
PUBLIC 8fc04 0 SearchUserLBLayer::onRemoveUsername(cocos2d::CCObject*)
PUBLIC 8fd0c 0 std::__ndk1::basic_stringstream<char, std::__ndk1::char_traits<char>, std::__ndk1::allocator<char> >::basic_stringstream[abi:ne180000](std::__ndk1::basic_string<char, std::__ndk1::char_traits<char>, std::__ndk1::allocator<char> > const&, unsigned int)
PUBLIC 8fea0 0 std::__ndk1::getline[abi:ne180000]<char, std::__ndk1::char_traits<char>, std::__ndk1::allocator<char> >(std::__ndk1::basic_istream<char, std::__ndk1::char_traits<char> >, std::__ndk1::basic_string<std::__ndk1::basic_istream, char, std::__ndk1::allocator<char> >&, std::__ndk1::basic_istream)
PUBLIC 90054 0 MoreLeaderboards::onMoreLeaderboards(cocos2d::CCObject*)
PUBLIC 900e8 0 MoreLeaderboards::create(std::__ndk1::basic_string<char, std::__ndk1::char_traits<char>, std::__ndk1::allocator<char> >)
PUBLIC 90274 0 MoreLeaderboards::onModsList(cocos2d::CCObject*)
PUBLIC 90308 0 MoreLeaderboards::onRegion(cocos2d::CCObject*)
PUBLIC 903dc 0 MoreLeaderboards::onInfo(cocos2d::CCObject*)
PUBLIC 90490 0 MoreLeaderboards::onLBInfo(cocos2d::CCObject*)
PUBLIC 90610 0 MoreLeaderboards::init(std::__ndk1::basic_string<char, std::__ndk1::char_traits<char>, std::__ndk1::allocator<char> >)
PUBLIC 91618 0 MoreLeaderboards::backButton(cocos2d::CCObject*)
PUBLIC 916c0 0 MoreLeaderboards::loadPageMods()
PUBLIC 918e4 0 MoreLeaderboards::keyBackClicked()
PUBLIC 91990 0 {virtual override thunk({offset(-336)}, MoreLeaderboards::keyBackClicked())}
PUBLIC 91a3c 0 MoreLeaderboards::startLoadingMods()::$_0::~$_0()
PUBLIC 91ad4 0 MoreLeaderboards::startLoadingMore()
PUBLIC 91ea8 0 MoreLeaderboards::startLoadingMore()::$_2::~$_2()
PUBLIC 91f40 0 MoreLeaderboards::loadPageMore()
PUBLIC 920cc 0 MoreLeaderboards::onSearch(cocos2d::CCObject*)
PUBLIC 922fc 0 MoreLeaderboards::onPageLeft(cocos2d::CCObject*)
PUBLIC 9246c 0 MoreLeaderboards::onPageRight(cocos2d::CCObject*)
PUBLIC 925dc 0 MoreLeaderboards::loadTabPageButtons()
PUBLIC 92a24 0 MoreLeaderboards::onTabPageLeft(cocos2d::CCObject*)
PUBLIC 92a6c 0 MoreLeaderboards::onTabPageRight(cocos2d::CCObject*)
PUBLIC 92ab4 0 MoreLeaderboards::onModFilter(cocos2d::CCObject*)
PUBLIC 92ae4 0 MoreLeaderboards::onModFilterType(cocos2d::CCObject*)
PUBLIC 92b14 0 MoreLeaderboards::~MoreLeaderboards()
PUBLIC 92b74 0 MoreLeaderboards::~MoreLeaderboards()
PUBLIC 92bd8 0 {virtual override thunk({offset(-320)}, MoreLeaderboards::~MoreLeaderboards())}
PUBLIC 92c34 0 {virtual override thunk({offset(-320)}, MoreLeaderboards::~MoreLeaderboards())}
PUBLIC 92c98 0 __cxx_global_var_init.55
PUBLIC 930d4 0 _GLOBAL__sub_I_MoreLeaderboards.cpp
PUBLIC 9324c 0 geode::modifier::ModifyBase<geode::modifier::ModifyDerive<hook1290<(anonymous namespace)::hook1290Parent>, LeaderboardsLayer> >::~ModifyBase()
PUBLIC 93268 0 std::__ndk1::shared_ptr<geode::Task<geode::utils::web::WebResponse, geode::utils::web::WebProgress>::Handle>::~shared_ptr[abi:ne180000]()
PUBLIC 932b8 0 geode::EventListener<geode::Task<geode::utils::web::WebResponse, geode::utils::web::WebProgress> >::getPool() const
PUBLIC 932bc 0 geode::EventListener<geode::Task<geode::utils::web::WebResponse, geode::utils::web::WebProgress> >::handle(geode::Event*)
PUBLIC 93488 0 geode::EventListener<geode::Task<geode::utils::web::WebResponse, geode::utils::web::WebProgress> >::~EventListener()
PUBLIC 9352c 0 std::__ndk1::__throw_bad_function_call[abi:ne180000]()
PUBLIC 93560 0 std::__ndk1::bad_function_call::~bad_function_call()
PUBLIC 93584 0 std::__ndk1::basic_string<char, std::__ndk1::char_traits<char>, std::__ndk1::allocator<char> >::__assign_external(char const*, unsigned long)
PUBLIC 936ac 0 std::__ndk1::basic_string<char, std::__ndk1::char_traits<char>, std::__ndk1::allocator<char> >::__assign_external(char const*)
PUBLIC 936e0 0 geode::Task<geode::utils::web::WebResponse, geode::utils::web::WebProgress>::Handle::create(std::__ndk1::basic_string_view<char, std::__ndk1::char_traits<char> >)
PUBLIC 93808 0 geode::Task<geode::utils::web::WebResponse, geode::utils::web::WebProgress>::cancel(std::__ndk1::shared_ptr<geode::Task<geode::utils::web::WebResponse, geode::utils::web::WebProgress>::Handle>, bool)
PUBLIC 93978 0 geode::Task<geode::utils::web::WebResponse, geode::utils::web::WebProgress>::finish(std::__ndk1::shared_ptr<geode::Task<geode::utils::web::WebResponse, geode::utils::web::WebProgress>::Handle>, geode::utils::web::WebResponse&&)
PUBLIC 93b20 0 MoreLeaderboards::startLoadingMods()::$_0::operator()(geode::utils::web::WebResponse*) const
PUBLIC 93d8c 0 geode::utils::web::WebResponse::~WebResponse()
PUBLIC 93ddc 0 geode::EventListener<geode::Task<geode::utils::web::WebResponse, geode::utils::web::WebProgress> >::EventListener(std::__ndk1::function<void (geode::Task<geode::utils::web::WebResponse, geode::utils::web::WebProgress>*::Event)>, geode::Task<geode::utils::web::WebResponse, geode::utils::web::WebProgress>)
PUBLIC 93ee4 0 geode::Task<geode::utils::web::WebResponse, geode::utils::web::WebProgress>::map<MoreLeaderboards::startLoadingMods()::$_0, geode::utils::web::WebProgress (*)(geode::utils::web::WebProgress*), void (*)()>(MoreLeaderboards::startLoadingMods()::$_0&&, geode::utils::web::WebProgress (*&&)(geode::utils::web::WebProgress*), void (*&&)(), std::__ndk1::basic_string_view<char, std::__ndk1::char_traits<char> >) const::{lambda(geode::Task<geode::utils::web::WebResponse, geode::utils::web::WebProgress>::Event*)#1}::~{lambda(geode::Task<geode::utils::web::WebResponse, geode::utils::web::WebProgress>::Event*)#1}()
PUBLIC 93f74 0 std::__ndk1::__shared_ptr_emplace<geode::Task<geode::utils::web::WebResponse, geode::utils::web::WebProgress>::Handle, std::__ndk1::allocator<geode::Task<geode::utils::web::WebResponse, geode::utils::web::WebProgress>::Handle> >::~__shared_ptr_emplace()
PUBLIC 93f84 0 std::__ndk1::__shared_ptr_emplace<geode::Task<geode::utils::web::WebResponse, geode::utils::web::WebProgress>::Handle, std::__ndk1::allocator<geode::Task<geode::utils::web::WebResponse, geode::utils::web::WebProgress>::Handle> >::~__shared_ptr_emplace()
PUBLIC 93fb4 0 std::__ndk1::__shared_ptr_emplace<geode::Task<geode::utils::web::WebResponse, geode::utils::web::WebProgress>::Handle, std::__ndk1::allocator<geode::Task<geode::utils::web::WebResponse, geode::utils::web::WebProgress>::Handle> >::__on_zero_shared()
PUBLIC 93fbc 0 std::__ndk1::__shared_ptr_emplace<geode::Task<geode::utils::web::WebResponse, geode::utils::web::WebProgress>::Handle, std::__ndk1::allocator<geode::Task<geode::utils::web::WebResponse, geode::utils::web::WebProgress>::Handle> >::__on_zero_shared_weak()
PUBLIC 93fc0 0 std::__ndk1::__optional_destruct_base<geode::utils::web::WebResponse, false>::~__optional_destruct_base[abi:ne180000]()
PUBLIC 94018 0 geode::Task<geode::utils::web::WebResponse, geode::utils::web::WebProgress>::Handle::~Handle()
PUBLIC 940f8 0 geode::Task<geode::utils::web::WebResponse, geode::utils::web::WebProgress>::cancel(std::__ndk1::shared_ptr<geode::Task<geode::utils::web::WebResponse, geode::utils::web::WebProgress>::Handle>, bool)::{lambda()#1}::~{lambda()#1}()
PUBLIC 94148 0 std::__ndk1::__function::__func<geode::Task<geode::utils::web::WebResponse, geode::utils::web::WebProgress>::cancel(std::__ndk1::shared_ptr<geode::Task<geode::utils::web::WebResponse, geode::utils::web::WebProgress>::Handle>, bool)::{lambda()#1}, std::__ndk1::allocator<geode::Task<geode::utils::web::WebResponse, geode::utils::web::WebProgress>::cancel(std::__ndk1::shared_ptr<geode::Task<geode::utils::web::WebResponse, geode::utils::web::WebProgress>::Handle>, bool)::{lambda()#1}>, void ()>::~__func()
PUBLIC 941a4 0 std::__ndk1::__function::__func<geode::Task<geode::utils::web::WebResponse, geode::utils::web::WebProgress>::cancel(std::__ndk1::shared_ptr<geode::Task<geode::utils::web::WebResponse, geode::utils::web::WebProgress>::Handle>, bool)::{lambda()#1}, std::__ndk1::allocator<geode::Task<geode::utils::web::WebResponse, geode::utils::web::WebProgress>::cancel(std::__ndk1::shared_ptr<geode::Task<geode::utils::web::WebResponse, geode::utils::web::WebProgress>::Handle>, bool)::{lambda()#1}>, void ()>::~__func()
PUBLIC 94210 0 std::__ndk1::__function::__func<geode::Task<geode::utils::web::WebResponse, geode::utils::web::WebProgress>::cancel(std::__ndk1::shared_ptr<geode::Task<geode::utils::web::WebResponse, geode::utils::web::WebProgress>::Handle>, bool)::{lambda()#1}, std::__ndk1::allocator<geode::Task<geode::utils::web::WebResponse, geode::utils::web::WebProgress>::cancel(std::__ndk1::shared_ptr<geode::Task<geode::utils::web::WebResponse, geode::utils::web::WebProgress>::Handle>, bool)::{lambda()#1}>, void ()>::__clone() const
PUBLIC 94260 0 std::__ndk1::__function::__func<geode::Task<geode::utils::web::WebResponse, geode::utils::web::WebProgress>::cancel(std::__ndk1::shared_ptr<geode::Task<geode::utils::web::WebResponse, geode::utils::web::WebProgress>::Handle>, bool)::{lambda()#1}, std::__ndk1::allocator<geode::Task<geode::utils::web::WebResponse, geode::utils::web::WebProgress>::cancel(std::__ndk1::shared_ptr<geode::Task<geode::utils::web::WebResponse, geode::utils::web::WebProgress>::Handle>, bool)::{lambda()#1}>, void ()>::__clone(std::__ndk1::__function::__base<void ()>*) const
PUBLIC 94294 0 std::__ndk1::__function::__func<geode::Task<geode::utils::web::WebResponse, geode::utils::web::WebProgress>::cancel(std::__ndk1::shared_ptr<geode::Task<geode::utils::web::WebResponse, geode::utils::web::WebProgress>::Handle>, bool)::{lambda()#1}, std::__ndk1::allocator<geode::Task<geode::utils::web::WebResponse, geode::utils::web::WebProgress>::cancel(std::__ndk1::shared_ptr<geode::Task<geode::utils::web::WebResponse, geode::utils::web::WebProgress>::Handle>, bool)::{lambda()#1}>, void ()>::destroy()
PUBLIC 942e4 0 std::__ndk1::__function::__func<geode::Task<geode::utils::web::WebResponse, geode::utils::web::WebProgress>::cancel(std::__ndk1::shared_ptr<geode::Task<geode::utils::web::WebResponse, geode::utils::web::WebProgress>::Handle>, bool)::{lambda()#1}, std::__ndk1::allocator<geode::Task<geode::utils::web::WebResponse, geode::utils::web::WebProgress>::cancel(std::__ndk1::shared_ptr<geode::Task<geode::utils::web::WebResponse, geode::utils::web::WebProgress>::Handle>, bool)::{lambda()#1}>, void ()>::destroy_deallocate()
PUBLIC 94344 0 std::__ndk1::__function::__func<geode::Task<geode::utils::web::WebResponse, geode::utils::web::WebProgress>::cancel(std::__ndk1::shared_ptr<geode::Task<geode::utils::web::WebResponse, geode::utils::web::WebProgress>::Handle>, bool)::{lambda()#1}, std::__ndk1::allocator<geode::Task<geode::utils::web::WebResponse, geode::utils::web::WebProgress>::cancel(std::__ndk1::shared_ptr<geode::Task<geode::utils::web::WebResponse, geode::utils::web::WebProgress>::Handle>, bool)::{lambda()#1}>, void ()>::operator()()
PUBLIC 9434c 0 std::__ndk1::__function::__func<geode::Task<geode::utils::web::WebResponse, geode::utils::web::WebProgress>::cancel(std::__ndk1::shared_ptr<geode::Task<geode::utils::web::WebResponse, geode::utils::web::WebProgress>::Handle>, bool)::{lambda()#1}, std::__ndk1::allocator<geode::Task<geode::utils::web::WebResponse, geode::utils::web::WebProgress>::cancel(std::__ndk1::shared_ptr<geode::Task<geode::utils::web::WebResponse, geode::utils::web::WebProgress>::Handle>, bool)::{lambda()#1}>, void ()>::target(std::type_info const&) const
PUBLIC 94368 0 std::__ndk1::__function::__func<geode::Task<geode::utils::web::WebResponse, geode::utils::web::WebProgress>::cancel(std::__ndk1::shared_ptr<geode::Task<geode::utils::web::WebResponse, geode::utils::web::WebProgress>::Handle>, bool)::{lambda()#1}, std::__ndk1::allocator<geode::Task<geode::utils::web::WebResponse, geode::utils::web::WebProgress>::cancel(std::__ndk1::shared_ptr<geode::Task<geode::utils::web::WebResponse, geode::utils::web::WebProgress>::Handle>, bool)::{lambda()#1}>, void ()>::target_type() const
PUBLIC 94374 0 geode::Task<geode::utils::web::WebResponse, geode::utils::web::WebProgress>::cancel(std::__ndk1::shared_ptr<geode::Task<geode::utils::web::WebResponse, geode::utils::web::WebProgress>::Handle>, bool)::{lambda()#1}::operator()()
PUBLIC 94538 0 geode::Task<geode::utils::web::WebResponse, geode::utils::web::WebProgress>::Event::~Event()
PUBLIC 94598 0 geode::Task<geode::utils::web::WebResponse, geode::utils::web::WebProgress>::Event::~Event()
PUBLIC 94608 0 geode::Task<geode::utils::web::WebResponse, geode::utils::web::WebProgress>::finish(std::__ndk1::shared_ptr<geode::Task<geode::utils::web::WebResponse, geode::utils::web::WebProgress>::Handle>, geode::utils::web::WebResponse&&)::{lambda()#1}::~{lambda()#1}()
PUBLIC 94658 0 std::__ndk1::__function::__func<geode::Task<geode::utils::web::WebResponse, geode::utils::web::WebProgress>::finish(std::__ndk1::shared_ptr<geode::Task<geode::utils::web::WebResponse, geode::utils::web::WebProgress>::Handle>, geode::utils::web::WebResponse&&)::{lambda()#1}, std::__ndk1::allocator<geode::Task<geode::utils::web::WebResponse, geode::utils::web::WebProgress>::finish(std::__ndk1::shared_ptr<geode::Task<geode::utils::web::WebResponse, geode::utils::web::WebProgress>::Handle>, geode::utils::web::WebResponse&&)::{lambda()#1}>, void ()>::~__func()
PUBLIC 946b4 0 std::__ndk1::__function::__func<geode::Task<geode::utils::web::WebResponse, geode::utils::web::WebProgress>::finish(std::__ndk1::shared_ptr<geode::Task<geode::utils::web::WebResponse, geode::utils::web::WebProgress>::Handle>, geode::utils::web::WebResponse&&)::{lambda()#1}, std::__ndk1::allocator<geode::Task<geode::utils::web::WebResponse, geode::utils::web::WebProgress>::finish(std::__ndk1::shared_ptr<geode::Task<geode::utils::web::WebResponse, geode::utils::web::WebProgress>::Handle>, geode::utils::web::WebResponse&&)::{lambda()#1}>, void ()>::~__func()
PUBLIC 94720 0 std::__ndk1::__function::__func<geode::Task<geode::utils::web::WebResponse, geode::utils::web::WebProgress>::finish(std::__ndk1::shared_ptr<geode::Task<geode::utils::web::WebResponse, geode::utils::web::WebProgress>::Handle>, geode::utils::web::WebResponse&&)::{lambda()#1}, std::__ndk1::allocator<geode::Task<geode::utils::web::WebResponse, geode::utils::web::WebProgress>::finish(std::__ndk1::shared_ptr<geode::Task<geode::utils::web::WebResponse, geode::utils::web::WebProgress>::Handle>, geode::utils::web::WebResponse&&)::{lambda()#1}>, void ()>::__clone() const
PUBLIC 94778 0 std::__ndk1::__function::__func<geode::Task<geode::utils::web::WebResponse, geode::utils::web::WebProgress>::finish(std::__ndk1::shared_ptr<geode::Task<geode::utils::web::WebResponse, geode::utils::web::WebProgress>::Handle>, geode::utils::web::WebResponse&&)::{lambda()#1}, std::__ndk1::allocator<geode::Task<geode::utils::web::WebResponse, geode::utils::web::WebProgress>::finish(std::__ndk1::shared_ptr<geode::Task<geode::utils::web::WebResponse, geode::utils::web::WebProgress>::Handle>, geode::utils::web::WebResponse&&)::{lambda()#1}>, void ()>::__clone(std::__ndk1::__function::__base<void ()>*) const
PUBLIC 947c4 0 std::__ndk1::__function::__func<geode::Task<geode::utils::web::WebResponse, geode::utils::web::WebProgress>::finish(std::__ndk1::shared_ptr<geode::Task<geode::utils::web::WebResponse, geode::utils::web::WebProgress>::Handle>, geode::utils::web::WebResponse&&)::{lambda()#1}, std::__ndk1::allocator<geode::Task<geode::utils::web::WebResponse, geode::utils::web::WebProgress>::finish(std::__ndk1::shared_ptr<geode::Task<geode::utils::web::WebResponse, geode::utils::web::WebProgress>::Handle>, geode::utils::web::WebResponse&&)::{lambda()#1}>, void ()>::destroy()
PUBLIC 94814 0 std::__ndk1::__function::__func<geode::Task<geode::utils::web::WebResponse, geode::utils::web::WebProgress>::finish(std::__ndk1::shared_ptr<geode::Task<geode::utils::web::WebResponse, geode::utils::web::WebProgress>::Handle>, geode::utils::web::WebResponse&&)::{lambda()#1}, std::__ndk1::allocator<geode::Task<geode::utils::web::WebResponse, geode::utils::web::WebProgress>::finish(std::__ndk1::shared_ptr<geode::Task<geode::utils::web::WebResponse, geode::utils::web::WebProgress>::Handle>, geode::utils::web::WebResponse&&)::{lambda()#1}>, void ()>::destroy_deallocate()
PUBLIC 94874 0 std::__ndk1::__function::__func<geode::Task<geode::utils::web::WebResponse, geode::utils::web::WebProgress>::finish(std::__ndk1::shared_ptr<geode::Task<geode::utils::web::WebResponse, geode::utils::web::WebProgress>::Handle>, geode::utils::web::WebResponse&&)::{lambda()#1}, std::__ndk1::allocator<geode::Task<geode::utils::web::WebResponse, geode::utils::web::WebProgress>::finish(std::__ndk1::shared_ptr<geode::Task<geode::utils::web::WebResponse, geode::utils::web::WebProgress>::Handle>, geode::utils::web::WebResponse&&)::{lambda()#1}>, void ()>::operator()()
PUBLIC 9487c 0 std::__ndk1::__function::__func<geode::Task<geode::utils::web::WebResponse, geode::utils::web::WebProgress>::finish(std::__ndk1::shared_ptr<geode::Task<geode::utils::web::WebResponse, geode::utils::web::WebProgress>::Handle>, geode::utils::web::WebResponse&&)::{lambda()#1}, std::__ndk1::allocator<geode::Task<geode::utils::web::WebResponse, geode::utils::web::WebProgress>::finish(std::__ndk1::shared_ptr<geode::Task<geode::utils::web::WebResponse, geode::utils::web::WebProgress>::Handle>, geode::utils::web::WebResponse&&)::{lambda()#1}>, void ()>::target(std::type_info const&) const
PUBLIC 94898 0 std::__ndk1::__function::__func<geode::Task<geode::utils::web::WebResponse, geode::utils::web::WebProgress>::finish(std::__ndk1::shared_ptr<geode::Task<geode::utils::web::WebResponse, geode::utils::web::WebProgress>::Handle>, geode::utils::web::WebResponse&&)::{lambda()#1}, std::__ndk1::allocator<geode::Task<geode::utils::web::WebResponse, geode::utils::web::WebProgress>::finish(std::__ndk1::shared_ptr<geode::Task<geode::utils::web::WebResponse, geode::utils::web::WebProgress>::Handle>, geode::utils::web::WebResponse&&)::{lambda()#1}>, void ()>::target_type() const
PUBLIC 948a4 0 geode::Task<geode::utils::web::WebResponse, geode::utils::web::WebProgress>::finish(std::__ndk1::shared_ptr<geode::Task<geode::utils::web::WebResponse, geode::utils::web::WebProgress>::Handle>, geode::utils::web::WebResponse&&)::{lambda()#1}::operator()()
PUBLIC 94a78 0 geode::impl::ResultData<std::__ndk1::basic_string<char, std::__ndk1::char_traits<char>, std::__ndk1::allocator<char> >, std::__ndk1::basic_string<char, std::__ndk1::char_traits<char>, std::__ndk1::allocator<char> > >::~ResultData()
PUBLIC 94aec 0 std::__ndk1::__variant_detail::__visitation::__base::__dispatcher<(unsigned long)0>::__dispatch[abi:ne180000]<std::__ndk1::__variant_detail::__dtor<std::__ndk1::__variant_detail::__traits<std::__ndk1::basic_string<char, std::__ndk1::char_traits<char>, std::__ndk1::allocator<char> >, std::__ndk1::allocator<char> >, (std::__ndk1::__variant_detail::_Trait)1>::__destroy[abi:ne180000]()::{lambda(auto:1&)#1}, std::__ndk1::__variant_detail::__base<(std::__ndk1::__variant_detail::__traits<std::__ndk1::basic_string<char, std::__ndk1::char_traits<char>, std::__ndk1::allocator<char> >, std::__ndk1::allocator<char> >)1, std::__ndk1::allocator<char>, std::__ndk1::allocator<char> >&>(std::__ndk1::__variant_detail::__dtor<std::__ndk1::__variant_detail::__traits<std::__ndk1::basic_string<char, std::__ndk1::char_traits<char>, std::__ndk1::allocator<char> >, std::__ndk1::allocator<char> >, (std::__ndk1::__variant_detail::_Trait)1>, std::__ndk1::__variant_detail::__base<(std::__ndk1::__variant_detail::__traits<std::__ndk1::basic_string<char, std::__ndk1::char_traits<char>, std::__ndk1::allocator<char> >, std::__ndk1::allocator<char> >)1, std::__ndk1::allocator<char>, std::__ndk1::allocator<char> >&)
PUBLIC 94b00 0 std::__ndk1::__variant_detail::__visitation::__base::__dispatcher<(unsigned long)1>::__dispatch[abi:ne180000]<std::__ndk1::__variant_detail::__dtor<std::__ndk1::__variant_detail::__traits<std::__ndk1::basic_string<char, std::__ndk1::char_traits<char>, std::__ndk1::allocator<char> >, std::__ndk1::allocator<char> >, (std::__ndk1::__variant_detail::_Trait)1>::__destroy[abi:ne180000]()::{lambda(auto:1&)#1}, std::__ndk1::__variant_detail::__base<(std::__ndk1::__variant_detail::__traits<std::__ndk1::basic_string<char, std::__ndk1::char_traits<char>, std::__ndk1::allocator<char> >, std::__ndk1::allocator<char> >)1, std::__ndk1::allocator<char>, std::__ndk1::allocator<char> >&>(std::__ndk1::__variant_detail::__dtor<std::__ndk1::__variant_detail::__traits<std::__ndk1::basic_string<char, std::__ndk1::char_traits<char>, std::__ndk1::allocator<char> >, std::__ndk1::allocator<char> >, (std::__ndk1::__variant_detail::_Trait)1>, std::__ndk1::__variant_detail::__base<(std::__ndk1::__variant_detail::__traits<std::__ndk1::basic_string<char, std::__ndk1::char_traits<char>, std::__ndk1::allocator<char> >, std::__ndk1::allocator<char> >)1, std::__ndk1::allocator<char>, std::__ndk1::allocator<char> >&)
PUBLIC 94b14 0 std::__ndk1::__hash_table<std::__ndk1::__hash_value_type<std::__ndk1::basic_string<char, std::__ndk1::char_traits<char>, std::__ndk1::allocator<char> >, geode::Task<geode::utils::web::WebResponse, geode::utils::web::WebProgress> >, std::__ndk1::__unordered_map_hasher<std::__ndk1::basic_string<char, std::__ndk1::char_traits<char>, std::__ndk1::allocator<char> >, std::__ndk1::__hash_value_type<std::__ndk1::basic_string<char, std::__ndk1::char_traits<char>, std::__ndk1::allocator<char> >, geode::Task<geode::utils::web::WebResponse, geode::utils::web::WebProgress> >, std::__ndk1::hash<std::__ndk1::basic_string<char, std::__ndk1::char_traits<char>, std::__ndk1::allocator<char> > >, std::__ndk1::equal_to<std::__ndk1::basic_string<char, std::__ndk1::char_traits<char>, std::__ndk1::allocator<char> > >, true>, std::__ndk1::__unordered_map_equal<std::__ndk1::basic_string<char, std::__ndk1::char_traits<char>, std::__ndk1::allocator<char> >, std::__ndk1::__hash_value_type<std::__ndk1::basic_string<char, std::__ndk1::char_traits<char>, std::__ndk1::allocator<char> >, geode::Task<geode::utils::web::WebResponse, geode::utils::web::WebProgress> >, std::__ndk1::equal_to<std::__ndk1::basic_string<char, std::__ndk1::char_traits<char>, std::__ndk1::allocator<char> > >, std::__ndk1::hash<std::__ndk1::basic_string<char, std::__ndk1::char_traits<char>, std::__ndk1::allocator<char> > >, true>, std::__ndk1::allocator<std::__ndk1::__hash_value_type<std::__ndk1::basic_string<char, std::__ndk1::char_traits<char>, std::__ndk1::allocator<char> >, geode::Task<geode::utils::web::WebResponse, geode::utils::web::WebProgress> > > >::__erase_unique<std::__ndk1::basic_string<char, std::__ndk1::char_traits<char>, std::__ndk1::allocator<char> > >(std::__ndk1::basic_string<char, std::__ndk1::char_traits<char>, std::__ndk1::allocator<char> > const&)
PUBLIC 94bd8 0 std::__ndk1::__hash_table<std::__ndk1::__hash_value_type<std::__ndk1::basic_string<char, std::__ndk1::char_traits<char>, std::__ndk1::allocator<char> >, geode::Task<geode::utils::web::WebResponse, geode::utils::web::WebProgress> >, std::__ndk1::__unordered_map_hasher<std::__ndk1::basic_string<char, std::__ndk1::char_traits<char>, std::__ndk1::allocator<char> >, std::__ndk1::__hash_value_type<std::__ndk1::basic_string<char, std::__ndk1::char_traits<char>, std::__ndk1::allocator<char> >, geode::Task<geode::utils::web::WebResponse, geode::utils::web::WebProgress> >, std::__ndk1::hash<std::__ndk1::basic_string<char, std::__ndk1::char_traits<char>, std::__ndk1::allocator<char> > >, std::__ndk1::equal_to<std::__ndk1::basic_string<char, std::__ndk1::char_traits<char>, std::__ndk1::allocator<char> > >, true>, std::__ndk1::__unordered_map_equal<std::__ndk1::basic_string<char, std::__ndk1::char_traits<char>, std::__ndk1::allocator<char> >, std::__ndk1::__hash_value_type<std::__ndk1::basic_string<char, std::__ndk1::char_traits<char>, std::__ndk1::allocator<char> >, geode::Task<geode::utils::web::WebResponse, geode::utils::web::WebProgress> >, std::__ndk1::equal_to<std::__ndk1::basic_string<char, std::__ndk1::char_traits<char>, std::__ndk1::allocator<char> > >, std::__ndk1::hash<std::__ndk1::basic_string<char, std::__ndk1::char_traits<char>, std::__ndk1::allocator<char> > >, true>, std::__ndk1::allocator<std::__ndk1::__hash_value_type<std::__ndk1::basic_string<char, std::__ndk1::char_traits<char>, std::__ndk1::allocator<char> >, geode::Task<geode::utils::web::WebResponse, geode::utils::web::WebProgress> > > >::find<std::__ndk1::basic_string<char, std::__ndk1::char_traits<char>, std::__ndk1::allocator<char> > >(std::__ndk1::basic_string<char, std::__ndk1::char_traits<char>, std::__ndk1::allocator<char> > const&)
PUBLIC 94e2c 0 std::__ndk1::__murmur2_or_cityhash<unsigned long, (unsigned long)64>::operator()[abi:ne180000](void const*, unsigned long) const
PUBLIC 95278 0 std::__ndk1::__hash_table<std::__ndk1::__hash_value_type<std::__ndk1::basic_string<char, std::__ndk1::char_traits<char>, std::__ndk1::allocator<char> >, geode::Task<geode::utils::web::WebResponse, geode::utils::web::WebProgress> >, std::__ndk1::__unordered_map_hasher<std::__ndk1::basic_string<char, std::__ndk1::char_traits<char>, std::__ndk1::allocator<char> >, std::__ndk1::__hash_value_type<std::__ndk1::basic_string<char, std::__ndk1::char_traits<char>, std::__ndk1::allocator<char> >, geode::Task<geode::utils::web::WebResponse, geode::utils::web::WebProgress> >, std::__ndk1::hash<std::__ndk1::basic_string<char, std::__ndk1::char_traits<char>, std::__ndk1::allocator<char> > >, std::__ndk1::equal_to<std::__ndk1::basic_string<char, std::__ndk1::char_traits<char>, std::__ndk1::allocator<char> > >, true>, std::__ndk1::__unordered_map_equal<std::__ndk1::basic_string<char, std::__ndk1::char_traits<char>, std::__ndk1::allocator<char> >, std::__ndk1::__hash_value_type<std::__ndk1::basic_string<char, std::__ndk1::char_traits<char>, std::__ndk1::allocator<char> >, geode::Task<geode::utils::web::WebResponse, geode::utils::web::WebProgress> >, std::__ndk1::equal_to<std::__ndk1::basic_string<char, std::__ndk1::char_traits<char>, std::__ndk1::allocator<char> > >, std::__ndk1::hash<std::__ndk1::basic_string<char, std::__ndk1::char_traits<char>, std::__ndk1::allocator<char> > >, true>, std::__ndk1::allocator<std::__ndk1::__hash_value_type<std::__ndk1::basic_string<char, std::__ndk1::char_traits<char>, std::__ndk1::allocator<char> >, geode::Task<geode::utils::web::WebResponse, geode::utils::web::WebProgress> > > >::remove(std::__ndk1::__hash_const_iterator<std::__ndk1::__hash_node<std::__ndk1::__hash_value_type<std::__ndk1::basic_string<char, std::__ndk1::char_traits<char>, std::__ndk1::allocator<char> >, geode::Task<geode::utils::web::WebResponse, geode::utils::web::WebProgress> >, void*>*>)
PUBLIC 953ac 0 std::__ndk1::unique_ptr<std::__ndk1::__hash_node<std::__ndk1::__hash_value_type<std::__ndk1::basic_string<char, std::__ndk1::char_traits<char>, std::__ndk1::allocator<char> >, geode::Task<geode::utils::web::WebResponse, geode::utils::web::WebProgress> >, void*>, std::__ndk1::__hash_node_destructor<std::__ndk1::allocator<std::__ndk1::__hash_node<std::__ndk1::__hash_value_type<std::__ndk1::basic_string<char, std::__ndk1::char_traits<char>, std::__ndk1::allocator<char> >, geode::Task<geode::utils::web::WebResponse, geode::utils::web::WebProgress> >, void*> > > >::~unique_ptr[abi:ne180000]()
PUBLIC 95428 0 std::__ndk1::__function::__func<geode::Task<geode::utils::web::WebResponse, geode::utils::web::WebProgress>::map<MoreLeaderboards::startLoadingMods()::$_0, geode::utils::web::WebProgress (*)(geode::utils::web::WebProgress*), void (*)()>(MoreLeaderboards::startLoadingMods()::$_0&&, geode::utils::web::WebProgress (*&&)(geode::utils::web::WebProgress*), void (*&&)(), std::__ndk1::basic_string_view<char, std::__ndk1::char_traits<char> >) const::{lambda(geode::Task<geode::utils::web::WebResponse, geode::utils::web::WebProgress>::Event*)#1}, std::__ndk1::allocator<geode::Task<geode::utils::web::WebResponse, geode::utils::web::WebProgress>::map<MoreLeaderboards::startLoadingMods()::$_0, geode::utils::web::WebProgress (*)(geode::utils::web::WebProgress*), void (*)()>(MoreLeaderboards::startLoadingMods()::$_0&&, geode::utils::web::WebProgress (*&&)(geode::utils::web::WebProgress*), void (*&&)(), std::__ndk1::basic_string_view<char, std::__ndk1::char_traits<char> >) const::{lambda(geode::Task<geode::utils::web::WebResponse, geode::utils::web::WebProgress>::Event*)#1}>, void (geode::Task<geode::utils::web::WebResponse, geode::utils::web::WebProgress>::Event*)>::~__func()
PUBLIC 954c4 0 std::__ndk1::__function::__func<geode::Task<geode::utils::web::WebResponse, geode::utils::web::WebProgress>::map<MoreLeaderboards::startLoadingMods()::$_0, geode::utils::web::WebProgress (*)(geode::utils::web::WebProgress*), void (*)()>(MoreLeaderboards::startLoadingMods()::$_0&&, geode::utils::web::WebProgress (*&&)(geode::utils::web::WebProgress*), void (*&&)(), std::__ndk1::basic_string_view<char, std::__ndk1::char_traits<char> >) const::{lambda(geode::Task<geode::utils::web::WebResponse, geode::utils::web::WebProgress>::Event*)#1}, std::__ndk1::allocator<geode::Task<geode::utils::web::WebResponse, geode::utils::web::WebProgress>::map<MoreLeaderboards::startLoadingMods()::$_0, geode::utils::web::WebProgress (*)(geode::utils::web::WebProgress*), void (*)()>(MoreLeaderboards::startLoadingMods()::$_0&&, geode::utils::web::WebProgress (*&&)(geode::utils::web::WebProgress*), void (*&&)(), std::__ndk1::basic_string_view<char, std::__ndk1::char_traits<char> >) const::{lambda(geode::Task<geode::utils::web::WebResponse, geode::utils::web::WebProgress>::Event*)#1}>, void (geode::Task<geode::utils::web::WebResponse, geode::utils::web::WebProgress>::Event*)>::~__func()
PUBLIC 9555c 0 std::__ndk1::__function::__func<geode::Task<geode::utils::web::WebResponse, geode::utils::web::WebProgress>::map<MoreLeaderboards::startLoadingMods()::$_0, geode::utils::web::WebProgress (*)(geode::utils::web::WebProgress*), void (*)()>(MoreLeaderboards::startLoadingMods()::$_0&&, geode::utils::web::WebProgress (*&&)(geode::utils::web::WebProgress*), void (*&&)(), std::__ndk1::basic_string_view<char, std::__ndk1::char_traits<char> >) const::{lambda(geode::Task<geode::utils::web::WebResponse, geode::utils::web::WebProgress>::Event*)#1}, std::__ndk1::allocator<geode::Task<geode::utils::web::WebResponse, geode::utils::web::WebProgress>::map<MoreLeaderboards::startLoadingMods()::$_0, geode::utils::web::WebProgress (*)(geode::utils::web::WebProgress*), void (*)()>(MoreLeaderboards::startLoadingMods()::$_0&&, geode::utils::web::WebProgress (*&&)(geode::utils::web::WebProgress*), void (*&&)(), std::__ndk1::basic_string_view<char, std::__ndk1::char_traits<char> >) const::{lambda(geode::Task<geode::utils::web::WebResponse, geode::utils::web::WebProgress>::Event*)#1}>, void (geode::Task<geode::utils::web::WebResponse, geode::utils::web::WebProgress>::Event*)>::__clone() const
PUBLIC 955b0 0 std::__ndk1::__function::__func<geode::Task<geode::utils::web::WebResponse, geode::utils::web::WebProgress>::map<MoreLeaderboards::startLoadingMods()::$_0, geode::utils::web::WebProgress (*)(geode::utils::web::WebProgress*), void (*)()>(MoreLeaderboards::startLoadingMods()::$_0&&, geode::utils::web::WebProgress (*&&)(geode::utils::web::WebProgress*), void (*&&)(), std::__ndk1::basic_string_view<char, std::__ndk1::char_traits<char> >) const::{lambda(geode::Task<geode::utils::web::WebResponse, geode::utils::web::WebProgress>::Event*)#1}, std::__ndk1::allocator<geode::Task<geode::utils::web::WebResponse, geode::utils::web::WebProgress>::map<MoreLeaderboards::startLoadingMods()::$_0, geode::utils::web::WebProgress (*)(geode::utils::web::WebProgress*), void (*)()>(MoreLeaderboards::startLoadingMods()::$_0&&, geode::utils::web::WebProgress (*&&)(geode::utils::web::WebProgress*), void (*&&)(), std::__ndk1::basic_string_view<char, std::__ndk1::char_traits<char> >) const::{lambda(geode::Task<geode::utils::web::WebResponse, geode::utils::web::WebProgress>::Event*)#1}>, void (geode::Task<geode::utils::web::WebResponse, geode::utils::web::WebProgress>::Event*)>::__clone(std::__ndk1::__function::__base<void (geode::Task<geode::utils::web::WebResponse, geode::utils::web::WebProgress>::Event*)>*) const
PUBLIC 955cc 0 std::__ndk1::__function::__func<geode::Task<geode::utils::web::WebResponse, geode::utils::web::WebProgress>::map<MoreLeaderboards::startLoadingMods()::$_0, geode::utils::web::WebProgress (*)(geode::utils::web::WebProgress*), void (*)()>(MoreLeaderboards::startLoadingMods()::$_0&&, geode::utils::web::WebProgress (*&&)(geode::utils::web::WebProgress*), void (*&&)(), std::__ndk1::basic_string_view<char, std::__ndk1::char_traits<char> >) const::{lambda(geode::Task<geode::utils::web::WebResponse, geode::utils::web::WebProgress>::Event*)#1}, std::__ndk1::allocator<geode::Task<geode::utils::web::WebResponse, geode::utils::web::WebProgress>::map<MoreLeaderboards::startLoadingMods()::$_0, geode::utils::web::WebProgress (*)(geode::utils::web::WebProgress*), void (*)()>(MoreLeaderboards::startLoadingMods()::$_0&&, geode::utils::web::WebProgress (*&&)(geode::utils::web::WebProgress*), void (*&&)(), std::__ndk1::basic_string_view<char, std::__ndk1::char_traits<char> >) const::{lambda(geode::Task<geode::utils::web::WebResponse, geode::utils::web::WebProgress>::Event*)#1}>, void (geode::Task<geode::utils::web::WebResponse, geode::utils::web::WebProgress>::Event*)>::destroy()
PUBLIC 9565c 0 std::__ndk1::__function::__func<geode::Task<geode::utils::web::WebResponse, geode::utils::web::WebProgress>::map<MoreLeaderboards::startLoadingMods()::$_0, geode::utils::web::WebProgress (*)(geode::utils::web::WebProgress*), void (*)()>(MoreLeaderboards::startLoadingMods()::$_0&&, geode::utils::web::WebProgress (*&&)(geode::utils::web::WebProgress*), void (*&&)(), std::__ndk1::basic_string_view<char, std::__ndk1::char_traits<char> >) const::{lambda(geode::Task<geode::utils::web::WebResponse, geode::utils::web::WebProgress>::Event*)#1}, std::__ndk1::allocator<geode::Task<geode::utils::web::WebResponse, geode::utils::web::WebProgress>::map<MoreLeaderboards::startLoadingMods()::$_0, geode::utils::web::WebProgress (*)(geode::utils::web::WebProgress*), void (*)()>(MoreLeaderboards::startLoadingMods()::$_0&&, geode::utils::web::WebProgress (*&&)(geode::utils::web::WebProgress*), void (*&&)(), std::__ndk1::basic_string_view<char, std::__ndk1::char_traits<char> >) const::{lambda(geode::Task<geode::utils::web::WebResponse, geode::utils::web::WebProgress>::Event*)#1}>, void (geode::Task<geode::utils::web::WebResponse, geode::utils::web::WebProgress>::Event*)>::destroy_deallocate()
PUBLIC 956e8 0 std::__ndk1::__function::__func<geode::Task<geode::utils::web::WebResponse, geode::utils::web::WebProgress>::map<MoreLeaderboards::startLoadingMods()::$_0, geode::utils::web::WebProgress (*)(geode::utils::web::WebProgress*), void (*)()>(MoreLeaderboards::startLoadingMods()::$_0&&, geode::utils::web::WebProgress (*&&)(geode::utils::web::WebProgress*), void (*&&)(), std::__ndk1::basic_string_view<char, std::__ndk1::char_traits<char> >) const::{lambda(geode::Task<geode::utils::web::WebResponse, geode::utils::web::WebProgress>::Event*)#1}, std::__ndk1::allocator<geode::Task<geode::utils::web::WebResponse, geode::utils::web::WebProgress>::map<MoreLeaderboards::startLoadingMods()::$_0, geode::utils::web::WebProgress (*)(geode::utils::web::WebProgress*), void (*)()>(MoreLeaderboards::startLoadingMods()::$_0&&, geode::utils::web::WebProgress (*&&)(geode::utils::web::WebProgress*), void (*&&)(), std::__ndk1::basic_string_view<char, std::__ndk1::char_traits<char> >) const::{lambda(geode::Task<geode::utils::web::WebResponse, geode::utils::web::WebProgress>::Event*)#1}>, void (geode::Task<geode::utils::web::WebResponse, geode::utils::web::WebProgress>::Event*)>::operator()(geode::Task<geode::utils::web::WebResponse, geode::utils::web::WebProgress>::Event*&&)
PUBLIC 958bc 0 std::__ndk1::__function::__func<geode::Task<geode::utils::web::WebResponse, geode::utils::web::WebProgress>::map<MoreLeaderboards::startLoadingMods()::$_0, geode::utils::web::WebProgress (*)(geode::utils::web::WebProgress*), void (*)()>(MoreLeaderboards::startLoadingMods()::$_0&&, geode::utils::web::WebProgress (*&&)(geode::utils::web::WebProgress*), void (*&&)(), std::__ndk1::basic_string_view<char, std::__ndk1::char_traits<char> >) const::{lambda(geode::Task<geode::utils::web::WebResponse, geode::utils::web::WebProgress>::Event*)#1}, std::__ndk1::allocator<geode::Task<geode::utils::web::WebResponse, geode::utils::web::WebProgress>::map<MoreLeaderboards::startLoadingMods()::$_0, geode::utils::web::WebProgress (*)(geode::utils::web::WebProgress*), void (*)()>(MoreLeaderboards::startLoadingMods()::$_0&&, geode::utils::web::WebProgress (*&&)(geode::utils::web::WebProgress*), void (*&&)(), std::__ndk1::basic_string_view<char, std::__ndk1::char_traits<char> >) const::{lambda(geode::Task<geode::utils::web::WebResponse, geode::utils::web::WebProgress>::Event*)#1}>, void (geode::Task<geode::utils::web::WebResponse, geode::utils::web::WebProgress>::Event*)>::target(std::type_info const&) const
PUBLIC 958d8 0 std::__ndk1::__function::__func<geode::Task<geode::utils::web::WebResponse, geode::utils::web::WebProgress>::map<MoreLeaderboards::startLoadingMods()::$_0, geode::utils::web::WebProgress (*)(geode::utils::web::WebProgress*), void (*)()>(MoreLeaderboards::startLoadingMods()::$_0&&, geode::utils::web::WebProgress (*&&)(geode::utils::web::WebProgress*), void (*&&)(), std::__ndk1::basic_string_view<char, std::__ndk1::char_traits<char> >) const::{lambda(geode::Task<geode::utils::web::WebResponse, geode::utils::web::WebProgress>::Event*)#1}, std::__ndk1::allocator<geode::Task<geode::utils::web::WebResponse, geode::utils::web::WebProgress>::map<MoreLeaderboards::startLoadingMods()::$_0, geode::utils::web::WebProgress (*)(geode::utils::web::WebProgress*), void (*)()>(MoreLeaderboards::startLoadingMods()::$_0&&, geode::utils::web::WebProgress (*&&)(geode::utils::web::WebProgress*), void (*&&)(), std::__ndk1::basic_string_view<char, std::__ndk1::char_traits<char> >) const::{lambda(geode::Task<geode::utils::web::WebResponse, geode::utils::web::WebProgress>::Event*)#1}>, void (geode::Task<geode::utils::web::WebResponse, geode::utils::web::WebProgress>::Event*)>::target_type() const
PUBLIC 958e4 0 std::__ndk1::__compressed_pair_elem<geode::Task<geode::utils::web::WebResponse, geode::utils::web::WebProgress>::map<MoreLeaderboards::startLoadingMods()::$_0, geode::utils::web::WebProgress (*)(geode::utils::web::WebProgress*), void (*)()>(MoreLeaderboards::startLoadingMods()::$_0&&, geode::utils::web::WebProgress (*&&)(geode::utils::web::WebProgress*), void (*&&)(), std::__ndk1::basic_string_view<char, std::__ndk1::char_traits<char> >) const::{lambda(geode::Task<geode::utils::web::WebResponse, geode::utils::web::WebProgress>::Event*)#1}, 0, false>::__compressed_pair_elem[abi:ne180000]<geode::Task<geode::utils::web::WebResponse, geode::utils::web::WebProgress>::map<MoreLeaderboards::startLoadingMods()::$_0, geode::utils::web::WebProgress (*)(geode::utils::web::WebProgress*), void (*)()>(MoreLeaderboards::startLoadingMods()::$_0&&, geode::utils::web::WebProgress (*&&)(geode::utils::web::WebProgress*), void (*&&)(), std::__ndk1::basic_string_view<char, std::__ndk1::char_traits<char> >) const::{lambda(geode::Task<geode::utils::web::WebResponse, geode::utils::web::WebProgress>::Event*)#1} const&, (unsigned long)0>(std::__ndk1::tuple<geode::Task<geode::utils::web::WebResponse, geode::utils::web::WebProgress>::map<MoreLeaderboards::startLoadingMods()::$_0, geode::utils::web::WebProgress (*)(geode::utils::web::WebProgress*), void (*)()>(MoreLeaderboards::startLoadingMods()::$_0&&, geode::utils::web::WebProgress (*&&)(geode::utils::web::WebProgress*), void (*&&)(), std::__ndk1::basic_string_view<char, std::__ndk1::char_traits<char> >) const::{lambda(geode::Task<geode::utils::web::WebResponse, geode::utils::web::WebProgress>::Event*)#1} const&>, std::__ndk1::__tuple_indices<((unsigned long)0)...>)
PUBLIC 95a2c 0 geode::Task<geode::utils::web::WebResponse, geode::utils::web::WebProgress>::progress(std::__ndk1::shared_ptr<geode::Task<geode::utils::web::WebResponse, geode::utils::web::WebProgress>::Handle>, geode::utils::web::WebProgress&&)
PUBLIC 95ba8 0 geode::utils::web::WebProgress::~WebProgress()
PUBLIC 95bf8 0 geode::Task<geode::utils::web::WebResponse, geode::utils::web::WebProgress>::progress(std::__ndk1::shared_ptr<geode::Task<geode::utils::web::WebResponse, geode::utils::web::WebProgress>::Handle>, geode::utils::web::WebProgress&&)::{lambda()#1}::~{lambda()#1}()
PUBLIC 95c88 0 std::__ndk1::__function::__func<geode::Task<geode::utils::web::WebResponse, geode::utils::web::WebProgress>::progress(std::__ndk1::shared_ptr<geode::Task<geode::utils::web::WebResponse, geode::utils::web::WebProgress>::Handle>, geode::utils::web::WebProgress&&)::{lambda()#1}, std::__ndk1::allocator<geode::Task<geode::utils::web::WebResponse, geode::utils::web::WebProgress>::progress(std::__ndk1::shared_ptr<geode::Task<geode::utils::web::WebResponse, geode::utils::web::WebProgress>::Handle>, geode::utils::web::WebProgress&&)::{lambda()#1}>, void ()>::~__func()
PUBLIC 95d24 0 std::__ndk1::__function::__func<geode::Task<geode::utils::web::WebResponse, geode::utils::web::WebProgress>::progress(std::__ndk1::shared_ptr<geode::Task<geode::utils::web::WebResponse, geode::utils::web::WebProgress>::Handle>, geode::utils::web::WebProgress&&)::{lambda()#1}, std::__ndk1::allocator<geode::Task<geode::utils::web::WebResponse, geode::utils::web::WebProgress>::progress(std::__ndk1::shared_ptr<geode::Task<geode::utils::web::WebResponse, geode::utils::web::WebProgress>::Handle>, geode::utils::web::WebProgress&&)::{lambda()#1}>, void ()>::~__func()
PUBLIC 95dc0 0 std::__ndk1::__function::__func<geode::Task<geode::utils::web::WebResponse, geode::utils::web::WebProgress>::progress(std::__ndk1::shared_ptr<geode::Task<geode::utils::web::WebResponse, geode::utils::web::WebProgress>::Handle>, geode::utils::web::WebProgress&&)::{lambda()#1}, std::__ndk1::allocator<geode::Task<geode::utils::web::WebResponse, geode::utils::web::WebProgress>::progress(std::__ndk1::shared_ptr<geode::Task<geode::utils::web::WebResponse, geode::utils::web::WebProgress>::Handle>, geode::utils::web::WebProgress&&)::{lambda()#1}>, void ()>::__clone() const
PUBLIC 95e28 0 std::__ndk1::__function::__func<geode::Task<geode::utils::web::WebResponse, geode::utils::web::WebProgress>::progress(std::__ndk1::shared_ptr<geode::Task<geode::utils::web::WebResponse, geode::utils::web::WebProgress>::Handle>, geode::utils::web::WebProgress&&)::{lambda()#1}, std::__ndk1::allocator<geode::Task<geode::utils::web::WebResponse, geode::utils::web::WebProgress>::progress(std::__ndk1::shared_ptr<geode::Task<geode::utils::web::WebResponse, geode::utils::web::WebProgress>::Handle>, geode::utils::web::WebProgress&&)::{lambda()#1}>, void ()>::__clone(std::__ndk1::__function::__base<void ()>*) const
PUBLIC 95e84 0 std::__ndk1::__function::__func<geode::Task<geode::utils::web::WebResponse, geode::utils::web::WebProgress>::progress(std::__ndk1::shared_ptr<geode::Task<geode::utils::web::WebResponse, geode::utils::web::WebProgress>::Handle>, geode::utils::web::WebProgress&&)::{lambda()#1}, std::__ndk1::allocator<geode::Task<geode::utils::web::WebResponse, geode::utils::web::WebProgress>::progress(std::__ndk1::shared_ptr<geode::Task<geode::utils::web::WebResponse, geode::utils::web::WebProgress>::Handle>, geode::utils::web::WebProgress&&)::{lambda()#1}>, void ()>::destroy()
PUBLIC 95f14 0 std::__ndk1::__function::__func<geode::Task<geode::utils::web::WebResponse, geode::utils::web::WebProgress>::progress(std::__ndk1::shared_ptr<geode::Task<geode::utils::web::WebResponse, geode::utils::web::WebProgress>::Handle>, geode::utils::web::WebProgress&&)::{lambda()#1}, std::__ndk1::allocator<geode::Task<geode::utils::web::WebResponse, geode::utils::web::WebProgress>::progress(std::__ndk1::shared_ptr<geode::Task<geode::utils::web::WebResponse, geode::utils::web::WebProgress>::Handle>, geode::utils::web::WebProgress&&)::{lambda()#1}>, void ()>::destroy_deallocate()
PUBLIC 95fa4 0 std::__ndk1::__function::__func<geode::Task<geode::utils::web::WebResponse, geode::utils::web::WebProgress>::progress(std::__ndk1::shared_ptr<geode::Task<geode::utils::web::WebResponse, geode::utils::web::WebProgress>::Handle>, geode::utils::web::WebProgress&&)::{lambda()#1}, std::__ndk1::allocator<geode::Task<geode::utils::web::WebResponse, geode::utils::web::WebProgress>::progress(std::__ndk1::shared_ptr<geode::Task<geode::utils::web::WebResponse, geode::utils::web::WebProgress>::Handle>, geode::utils::web::WebProgress&&)::{lambda()#1}>, void ()>::operator()()
PUBLIC 95fac 0 std::__ndk1::__function::__func<geode::Task<geode::utils::web::WebResponse, geode::utils::web::WebProgress>::progress(std::__ndk1::shared_ptr<geode::Task<geode::utils::web::WebResponse, geode::utils::web::WebProgress>::Handle>, geode::utils::web::WebProgress&&)::{lambda()#1}, std::__ndk1::allocator<geode::Task<geode::utils::web::WebResponse, geode::utils::web::WebProgress>::progress(std::__ndk1::shared_ptr<geode::Task<geode::utils::web::WebResponse, geode::utils::web::WebProgress>::Handle>, geode::utils::web::WebProgress&&)::{lambda()#1}>, void ()>::target(std::type_info const&) const
PUBLIC 95fc8 0 std::__ndk1::__function::__func<geode::Task<geode::utils::web::WebResponse, geode::utils::web::WebProgress>::progress(std::__ndk1::shared_ptr<geode::Task<geode::utils::web::WebResponse, geode::utils::web::WebProgress>::Handle>, geode::utils::web::WebProgress&&)::{lambda()#1}, std::__ndk1::allocator<geode::Task<geode::utils::web::WebResponse, geode::utils::web::WebProgress>::progress(std::__ndk1::shared_ptr<geode::Task<geode::utils::web::WebResponse, geode::utils::web::WebProgress>::Handle>, geode::utils::web::WebProgress&&)::{lambda()#1}>, void ()>::target_type() const
PUBLIC 95fd4 0 geode::Task<geode::utils::web::WebResponse, geode::utils::web::WebProgress>::progress(std::__ndk1::shared_ptr<geode::Task<geode::utils::web::WebResponse, geode::utils::web::WebProgress>::Handle>, geode::utils::web::WebProgress&&)::{lambda()#1}::operator()()
PUBLIC 96190 0 geode::Task<geode::utils::web::WebResponse, geode::utils::web::WebProgress>::setListener(geode::EventListenerProtocol*)
PUBLIC 963ac 0 geode::Task<geode::utils::web::WebResponse, geode::utils::web::WebProgress>::setListener(geode::EventListenerProtocol*)::{lambda()#1}::~{lambda()#1}()
PUBLIC 963fc 0 geode::Task<geode::utils::web::WebResponse, geode::utils::web::WebProgress>::setListener(geode::EventListenerProtocol*)::{lambda()#2}::~{lambda()#2}()
PUBLIC 9644c 0 std::__ndk1::__function::__func<geode::Task<geode::utils::web::WebResponse, geode::utils::web::WebProgress>::setListener(geode::EventListenerProtocol*)::{lambda()#1}, std::__ndk1::allocator<geode::Task<geode::utils::web::WebResponse, geode::utils::web::WebProgress>::setListener(geode::EventListenerProtocol*)::{lambda()#1}>, void ()>::~__func()
PUBLIC 964a8 0 std::__ndk1::__function::__func<geode::Task<geode::utils::web::WebResponse, geode::utils::web::WebProgress>::setListener(geode::EventListenerProtocol*)::{lambda()#1}, std::__ndk1::allocator<geode::Task<geode::utils::web::WebResponse, geode::utils::web::WebProgress>::setListener(geode::EventListenerProtocol*)::{lambda()#1}>, void ()>::~__func()
PUBLIC 96514 0 std::__ndk1::__function::__func<geode::Task<geode::utils::web::WebResponse, geode::utils::web::WebProgress>::setListener(geode::EventListenerProtocol*)::{lambda()#1}, std::__ndk1::allocator<geode::Task<geode::utils::web::WebResponse, geode::utils::web::WebProgress>::setListener(geode::EventListenerProtocol*)::{lambda()#1}>, void ()>::__clone() const
PUBLIC 9656c 0 std::__ndk1::__function::__func<geode::Task<geode::utils::web::WebResponse, geode::utils::web::WebProgress>::setListener(geode::EventListenerProtocol*)::{lambda()#1}, std::__ndk1::allocator<geode::Task<geode::utils::web::WebResponse, geode::utils::web::WebProgress>::setListener(geode::EventListenerProtocol*)::{lambda()#1}>, void ()>::__clone(std::__ndk1::__function::__base<void ()>*) const
PUBLIC 965b8 0 std::__ndk1::__function::__func<geode::Task<geode::utils::web::WebResponse, geode::utils::web::WebProgress>::setListener(geode::EventListenerProtocol*)::{lambda()#1}, std::__ndk1::allocator<geode::Task<geode::utils::web::WebResponse, geode::utils::web::WebProgress>::setListener(geode::EventListenerProtocol*)::{lambda()#1}>, void ()>::destroy()
PUBLIC 96608 0 std::__ndk1::__function::__func<geode::Task<geode::utils::web::WebResponse, geode::utils::web::WebProgress>::setListener(geode::EventListenerProtocol*)::{lambda()#1}, std::__ndk1::allocator<geode::Task<geode::utils::web::WebResponse, geode::utils::web::WebProgress>::setListener(geode::EventListenerProtocol*)::{lambda()#1}>, void ()>::destroy_deallocate()
PUBLIC 96668 0 std::__ndk1::__function::__func<geode::Task<geode::utils::web::WebResponse, geode::utils::web::WebProgress>::setListener(geode::EventListenerProtocol*)::{lambda()#1}, std::__ndk1::allocator<geode::Task<geode::utils::web::WebResponse, geode::utils::web::WebProgress>::setListener(geode::EventListenerProtocol*)::{lambda()#1}>, void ()>::operator()()
PUBLIC 96670 0 std::__ndk1::__function::__func<geode::Task<geode::utils::web::WebResponse, geode::utils::web::WebProgress>::setListener(geode::EventListenerProtocol*)::{lambda()#1}, std::__ndk1::allocator<geode::Task<geode::utils::web::WebResponse, geode::utils::web::WebProgress>::setListener(geode::EventListenerProtocol*)::{lambda()#1}>, void ()>::target(std::type_info const&) const
PUBLIC 9668c 0 std::__ndk1::__function::__func<geode::Task<geode::utils::web::WebResponse, geode::utils::web::WebProgress>::setListener(geode::EventListenerProtocol*)::{lambda()#1}, std::__ndk1::allocator<geode::Task<geode::utils::web::WebResponse, geode::utils::web::WebProgress>::setListener(geode::EventListenerProtocol*)::{lambda()#1}>, void ()>::target_type() const
PUBLIC 96698 0 geode::Task<geode::utils::web::WebResponse, geode::utils::web::WebProgress>::setListener(geode::EventListenerProtocol*)::{lambda()#1}::operator()() const
PUBLIC 96868 0 std::__ndk1::__function::__func<geode::Task<geode::utils::web::WebResponse, geode::utils::web::WebProgress>::setListener(geode::EventListenerProtocol*)::{lambda()#2}, std::__ndk1::allocator<geode::Task<geode::utils::web::WebResponse, geode::utils::web::WebProgress>::setListener(geode::EventListenerProtocol*)::{lambda()#2}>, void ()>::~__func()
PUBLIC 968c4 0 std::__ndk1::__function::__func<geode::Task<geode::utils::web::WebResponse, geode::utils::web::WebProgress>::setListener(geode::EventListenerProtocol*)::{lambda()#2}, std::__ndk1::allocator<geode::Task<geode::utils::web::WebResponse, geode::utils::web::WebProgress>::setListener(geode::EventListenerProtocol*)::{lambda()#2}>, void ()>::~__func()
PUBLIC 96930 0 std::__ndk1::__function::__func<geode::Task<geode::utils::web::WebResponse, geode::utils::web::WebProgress>::setListener(geode::EventListenerProtocol*)::{lambda()#2}, std::__ndk1::allocator<geode::Task<geode::utils::web::WebResponse, geode::utils::web::WebProgress>::setListener(geode::EventListenerProtocol*)::{lambda()#2}>, void ()>::__clone() const
PUBLIC 96988 0 std::__ndk1::__function::__func<geode::Task<geode::utils::web::WebResponse, geode::utils::web::WebProgress>::setListener(geode::EventListenerProtocol*)::{lambda()#2}, std::__ndk1::allocator<geode::Task<geode::utils::web::WebResponse, geode::utils::web::WebProgress>::setListener(geode::EventListenerProtocol*)::{lambda()#2}>, void ()>::__clone(std::__ndk1::__function::__base<void ()>*) const
PUBLIC 969d4 0 std::__ndk1::__function::__func<geode::Task<geode::utils::web::WebResponse, geode::utils::web::WebProgress>::setListener(geode::EventListenerProtocol*)::{lambda()#2}, std::__ndk1::allocator<geode::Task<geode::utils::web::WebResponse, geode::utils::web::WebProgress>::setListener(geode::EventListenerProtocol*)::{lambda()#2}>, void ()>::destroy()
PUBLIC 96a24 0 std::__ndk1::__function::__func<geode::Task<geode::utils::web::WebResponse, geode::utils::web::WebProgress>::setListener(geode::EventListenerProtocol*)::{lambda()#2}, std::__ndk1::allocator<geode::Task<geode::utils::web::WebResponse, geode::utils::web::WebProgress>::setListener(geode::EventListenerProtocol*)::{lambda()#2}>, void ()>::destroy_deallocate()
PUBLIC 96a84 0 std::__ndk1::__function::__func<geode::Task<geode::utils::web::WebResponse, geode::utils::web::WebProgress>::setListener(geode::EventListenerProtocol*)::{lambda()#2}, std::__ndk1::allocator<geode::Task<geode::utils::web::WebResponse, geode::utils::web::WebProgress>::setListener(geode::EventListenerProtocol*)::{lambda()#2}>, void ()>::operator()()
PUBLIC 96a8c 0 std::__ndk1::__function::__func<geode::Task<geode::utils::web::WebResponse, geode::utils::web::WebProgress>::setListener(geode::EventListenerProtocol*)::{lambda()#2}, std::__ndk1::allocator<geode::Task<geode::utils::web::WebResponse, geode::utils::web::WebProgress>::setListener(geode::EventListenerProtocol*)::{lambda()#2}>, void ()>::target(std::type_info const&) const
PUBLIC 96aa8 0 std::__ndk1::__function::__func<geode::Task<geode::utils::web::WebResponse, geode::utils::web::WebProgress>::setListener(geode::EventListenerProtocol*)::{lambda()#2}, std::__ndk1::allocator<geode::Task<geode::utils::web::WebResponse, geode::utils::web::WebProgress>::setListener(geode::EventListenerProtocol*)::{lambda()#2}>, void ()>::target_type() const
PUBLIC 96ab4 0 geode::Task<geode::utils::web::WebResponse, geode::utils::web::WebProgress>::setListener(geode::EventListenerProtocol*)::{lambda()#2}::operator()() const
PUBLIC 96c78 0 geode::Task<geode::utils::web::WebResponse, geode::utils::web::WebProgress>::map<MoreLeaderboards::startLoadingMods()::$_0, geode::utils::web::WebProgress (*)(geode::utils::web::WebProgress*), void (*)()>(MoreLeaderboards::startLoadingMods()::$_0&&, geode::utils::web::WebProgress (*&&)(geode::utils::web::WebProgress*), void (*&&)(), std::__ndk1::basic_string_view<char, std::__ndk1::char_traits<char> >) const::{lambda(void*)#1}::__invoke(void*)
PUBLIC 96c8c 0 geode::Task<geode::utils::web::WebResponse, geode::utils::web::WebProgress>::map<MoreLeaderboards::startLoadingMods()::$_0, geode::utils::web::WebProgress (*)(geode::utils::web::WebProgress*), void (*)()>(MoreLeaderboards::startLoadingMods()::$_0&&, geode::utils::web::WebProgress (*&&)(geode::utils::web::WebProgress*), void (*&&)(), std::__ndk1::basic_string_view<char, std::__ndk1::char_traits<char> >) const::{lambda(void*)#2}::__invoke(void*)
PUBLIC 96d44 0 geode::Task<geode::utils::web::WebResponse, geode::utils::web::WebProgress>::map<MoreLeaderboards::startLoadingMods()::$_0, geode::utils::web::WebProgress (*)(geode::utils::web::WebProgress*)>(MoreLeaderboards::startLoadingMods()::$_0&&, geode::utils::web::WebProgress (*&&)(geode::utils::web::WebProgress*), std::__ndk1::basic_string_view<char, std::__ndk1::char_traits<char> >) const::{lambda()#1}::__invoke()
PUBLIC 96d48 0 _ZZNK5geode4TaskINS_5utils3web11WebResponseENS2_11WebProgressEE3mapIZN16MoreLeaderboards16startLoadingModsEvE3$_0Qsr3stdE18copy_constructibleIT0_EEEDaOT_NSt6__ndk117basic_string_viewIcNSC_11char_traitsIcEEEEENUlPS4_E_8__invokeESH_
PUBLIC 96d70 0 SearchUserLBLayer::~SearchUserLBLayer()
PUBLIC 96d94 0 SearchUserLBLayer::setup()
PUBLIC 96fc4 0 SearchUserLBLayer::onClose(cocos2d::CCObject*)
PUBLIC 97000 0 {virtual override thunk({offset(-320)}, SearchUserLBLayer::~SearchUserLBLayer())}
PUBLIC 97008 0 {virtual override thunk({offset(-320)}, SearchUserLBLayer::~SearchUserLBLayer())}
PUBLIC 97030 0 std::__ndk1::__function::__base<void (int)>::~__base()
PUBLIC 97034 0 std::__ndk1::__function::__func<MoreLeaderboards::onRegion(cocos2d::CCObject*)::$_0, std::__ndk1::allocator<MoreLeaderboards::onRegion(cocos2d::CCObject*)::$_0>, void (int)>::~__func()
PUBLIC 97038 0 std::__ndk1::__function::__func<MoreLeaderboards::onRegion(cocos2d::CCObject*)::$_0, std::__ndk1::allocator<MoreLeaderboards::onRegion(cocos2d::CCObject*)::$_0>, void (int)>::__clone() const
PUBLIC 9706c 0 std::__ndk1::__function::__func<MoreLeaderboards::onRegion(cocos2d::CCObject*)::$_0, std::__ndk1::allocator<MoreLeaderboards::onRegion(cocos2d::CCObject*)::$_0>, void (int)>::__clone(std::__ndk1::__function::__base<void (int)>*) const
PUBLIC 97080 0 std::__ndk1::__function::__func<MoreLeaderboards::onRegion(cocos2d::CCObject*)::$_0, std::__ndk1::allocator<MoreLeaderboards::onRegion(cocos2d::CCObject*)::$_0>, void (int)>::destroy()
PUBLIC 97084 0 std::__ndk1::__function::__func<MoreLeaderboards::onRegion(cocos2d::CCObject*)::$_0, std::__ndk1::allocator<MoreLeaderboards::onRegion(cocos2d::CCObject*)::$_0>, void (int)>::destroy_deallocate()
PUBLIC 97088 0 std::__ndk1::__function::__func<MoreLeaderboards::onRegion(cocos2d::CCObject*)::$_0, std::__ndk1::allocator<MoreLeaderboards::onRegion(cocos2d::CCObject*)::$_0>, void (int)>::operator()(int&&)
PUBLIC 971c4 0 std::__ndk1::__function::__func<MoreLeaderboards::onRegion(cocos2d::CCObject*)::$_0, std::__ndk1::allocator<MoreLeaderboards::onRegion(cocos2d::CCObject*)::$_0>, void (int)>::target(std::type_info const&) const
PUBLIC 971e0 0 std::__ndk1::__function::__func<MoreLeaderboards::onRegion(cocos2d::CCObject*)::$_0, std::__ndk1::allocator<MoreLeaderboards::onRegion(cocos2d::CCObject*)::$_0>, void (int)>::target_type() const
PUBLIC 971ec 0 std::__ndk1::__function::__func<MoreLeaderboards::onLBInfo(cocos2d::CCObject*)::$_0, std::__ndk1::allocator<MoreLeaderboards::onLBInfo(cocos2d::CCObject*)::$_0>, void (FLAlertLayer*, bool)>::~__func()
PUBLIC 971f0 0 std::__ndk1::__function::__func<MoreLeaderboards::onLBInfo(cocos2d::CCObject*)::$_0, std::__ndk1::allocator<MoreLeaderboards::onLBInfo(cocos2d::CCObject*)::$_0>, void (FLAlertLayer*, bool)>::__clone() const
PUBLIC 97214 0 std::__ndk1::__function::__func<MoreLeaderboards::onLBInfo(cocos2d::CCObject*)::$_0, std::__ndk1::allocator<MoreLeaderboards::onLBInfo(cocos2d::CCObject*)::$_0>, void (FLAlertLayer*, bool)>::__clone(std::__ndk1::__function::__base<void (FLAlertLayer*, bool)>*) const
PUBLIC 97224 0 std::__ndk1::__function::__func<MoreLeaderboards::onLBInfo(cocos2d::CCObject*)::$_0, std::__ndk1::allocator<MoreLeaderboards::onLBInfo(cocos2d::CCObject*)::$_0>, void (FLAlertLayer*, bool)>::destroy()
PUBLIC 97228 0 std::__ndk1::__function::__func<MoreLeaderboards::onLBInfo(cocos2d::CCObject*)::$_0, std::__ndk1::allocator<MoreLeaderboards::onLBInfo(cocos2d::CCObject*)::$_0>, void (FLAlertLayer*, bool)>::destroy_deallocate()
PUBLIC 9722c 0 std::__ndk1::__function::__func<MoreLeaderboards::onLBInfo(cocos2d::CCObject*)::$_0, std::__ndk1::allocator<MoreLeaderboards::onLBInfo(cocos2d::CCObject*)::$_0>, void (FLAlertLayer*, bool)>::operator()(FLAlertLayer*&&, bool&&)
PUBLIC 972ec 0 std::__ndk1::__function::__func<MoreLeaderboards::onLBInfo(cocos2d::CCObject*)::$_0, std::__ndk1::allocator<MoreLeaderboards::onLBInfo(cocos2d::CCObject*)::$_0>, void (FLAlertLayer*, bool)>::target(std::type_info const&) const
PUBLIC 97308 0 std::__ndk1::__function::__func<MoreLeaderboards::onLBInfo(cocos2d::CCObject*)::$_0, std::__ndk1::allocator<MoreLeaderboards::onLBInfo(cocos2d::CCObject*)::$_0>, void (FLAlertLayer*, bool)>::target_type() const
PUBLIC 97314 0 std::__ndk1::__function::__func<MoreLeaderboards::startLoadingMods()::$_1, std::__ndk1::allocator<MoreLeaderboards::startLoadingMods()::$_1>, void (std::__ndk1::basic_string<char, std::__ndk1::char_traits<char>, std::__ndk1::allocator<char> > const&)>::~__func()
PUBLIC 97318 0 std::__ndk1::__function::__func<MoreLeaderboards::startLoadingMods()::$_1, std::__ndk1::allocator<MoreLeaderboards::startLoadingMods()::$_1>, void (std::__ndk1::basic_string<char, std::__ndk1::char_traits<char>, std::__ndk1::allocator<char> > const&)>::__clone() const
PUBLIC 9734c 0 std::__ndk1::__function::__func<MoreLeaderboards::startLoadingMods()::$_1, std::__ndk1::allocator<MoreLeaderboards::startLoadingMods()::$_1>, void (std::__ndk1::basic_string<char, std::__ndk1::char_traits<char>, std::__ndk1::allocator<char> > const&)>::__clone(std::__ndk1::__function::__base<void (std::__ndk1::basic_string<char, std::__ndk1::char_traits<char>, std::__ndk1::allocator<char> > const&)>*) const
PUBLIC 97360 0 std::__ndk1::__function::__func<MoreLeaderboards::startLoadingMods()::$_1, std::__ndk1::allocator<MoreLeaderboards::startLoadingMods()::$_1>, void (std::__ndk1::basic_string<char, std::__ndk1::char_traits<char>, std::__ndk1::allocator<char> > const&)>::destroy()
PUBLIC 97364 0 std::__ndk1::__function::__func<MoreLeaderboards::startLoadingMods()::$_1, std::__ndk1::allocator<MoreLeaderboards::startLoadingMods()::$_1>, void (std::__ndk1::basic_string<char, std::__ndk1::char_traits<char>, std::__ndk1::allocator<char> > const&)>::destroy_deallocate()
PUBLIC 97368 0 std::__ndk1::__function::__func<MoreLeaderboards::startLoadingMods()::$_1, std::__ndk1::allocator<MoreLeaderboards::startLoadingMods()::$_1>, void (std::__ndk1::basic_string<char, std::__ndk1::char_traits<char>, std::__ndk1::allocator<char> > const&)>::operator()(std::__ndk1::basic_string<char, std::__ndk1::char_traits<char>, std::__ndk1::allocator<char> > const&)
PUBLIC 976a0 0 std::__ndk1::__function::__func<MoreLeaderboards::startLoadingMods()::$_1, std::__ndk1::allocator<MoreLeaderboards::startLoadingMods()::$_1>, void (std::__ndk1::basic_string<char, std::__ndk1::char_traits<char>, std::__ndk1::allocator<char> > const&)>::target(std::type_info const&) const
PUBLIC 976bc 0 std::__ndk1::__function::__func<MoreLeaderboards::startLoadingMods()::$_1, std::__ndk1::allocator<MoreLeaderboards::startLoadingMods()::$_1>, void (std::__ndk1::basic_string<char, std::__ndk1::char_traits<char>, std::__ndk1::allocator<char> > const&)>::target_type() const
PUBLIC 976c8 0 std::__ndk1::__function::__func<MoreLeaderboards::startLoadingMods()::$_2, std::__ndk1::allocator<MoreLeaderboards::startLoadingMods()::$_2>, void (std::__ndk1::basic_string<char, std::__ndk1::char_traits<char>, std::__ndk1::allocator<char> > const&)>::~__func()
PUBLIC 976cc 0 std::__ndk1::__function::__func<MoreLeaderboards::startLoadingMods()::$_2, std::__ndk1::allocator<MoreLeaderboards::startLoadingMods()::$_2>, void (std::__ndk1::basic_string<char, std::__ndk1::char_traits<char>, std::__ndk1::allocator<char> > const&)>::__clone() const
PUBLIC 97700 0 std::__ndk1::__function::__func<MoreLeaderboards::startLoadingMods()::$_2, std::__ndk1::allocator<MoreLeaderboards::startLoadingMods()::$_2>, void (std::__ndk1::basic_string<char, std::__ndk1::char_traits<char>, std::__ndk1::allocator<char> > const&)>::__clone(std::__ndk1::__function::__base<void (std::__ndk1::basic_string<char, std::__ndk1::char_traits<char>, std::__ndk1::allocator<char> > const&)>*) const
PUBLIC 97714 0 std::__ndk1::__function::__func<MoreLeaderboards::startLoadingMods()::$_2, std::__ndk1::allocator<MoreLeaderboards::startLoadingMods()::$_2>, void (std::__ndk1::basic_string<char, std::__ndk1::char_traits<char>, std::__ndk1::allocator<char> > const&)>::destroy()
PUBLIC 97718 0 std::__ndk1::__function::__func<MoreLeaderboards::startLoadingMods()::$_2, std::__ndk1::allocator<MoreLeaderboards::startLoadingMods()::$_2>, void (std::__ndk1::basic_string<char, std::__ndk1::char_traits<char>, std::__ndk1::allocator<char> > const&)>::destroy_deallocate()
PUBLIC 9771c 0 std::__ndk1::__function::__func<MoreLeaderboards::startLoadingMods()::$_2, std::__ndk1::allocator<MoreLeaderboards::startLoadingMods()::$_2>, void (std::__ndk1::basic_string<char, std::__ndk1::char_traits<char>, std::__ndk1::allocator<char> > const&)>::operator()(std::__ndk1::basic_string<char, std::__ndk1::char_traits<char>, std::__ndk1::allocator<char> > const&)
PUBLIC 97730 0 std::__ndk1::__function::__func<MoreLeaderboards::startLoadingMods()::$_2, std::__ndk1::allocator<MoreLeaderboards::startLoadingMods()::$_2>, void (std::__ndk1::basic_string<char, std::__ndk1::char_traits<char>, std::__ndk1::allocator<char> > const&)>::target(std::type_info const&) const
PUBLIC 9774c 0 std::__ndk1::__function::__func<MoreLeaderboards::startLoadingMods()::$_2, std::__ndk1::allocator<MoreLeaderboards::startLoadingMods()::$_2>, void (std::__ndk1::basic_string<char, std::__ndk1::char_traits<char>, std::__ndk1::allocator<char> > const&)>::target_type() const
PUBLIC 97758 0 std::__ndk1::__hash_table<std::__ndk1::__hash_value_type<std::__ndk1::basic_string<char, std::__ndk1::char_traits<char>, std::__ndk1::allocator<char> >, geode::Task<geode::utils::web::WebResponse, geode::utils::web::WebProgress> >, std::__ndk1::__unordered_map_hasher<std::__ndk1::basic_string<char, std::__ndk1::char_traits<char>, std::__ndk1::allocator<char> >, std::__ndk1::__hash_value_type<std::__ndk1::basic_string<char, std::__ndk1::char_traits<char>, std::__ndk1::allocator<char> >, geode::Task<geode::utils::web::WebResponse, geode::utils::web::WebProgress> >, std::__ndk1::hash<std::__ndk1::basic_string<char, std::__ndk1::char_traits<char>, std::__ndk1::allocator<char> > >, std::__ndk1::equal_to<std::__ndk1::basic_string<char, std::__ndk1::char_traits<char>, std::__ndk1::allocator<char> > >, true>, std::__ndk1::__unordered_map_equal<std::__ndk1::basic_string<char, std::__ndk1::char_traits<char>, std::__ndk1::allocator<char> >, std::__ndk1::__hash_value_type<std::__ndk1::basic_string<char, std::__ndk1::char_traits<char>, std::__ndk1::allocator<char> >, geode::Task<geode::utils::web::WebResponse, geode::utils::web::WebProgress> >, std::__ndk1::equal_to<std::__ndk1::basic_string<char, std::__ndk1::char_traits<char>, std::__ndk1::allocator<char> > >, std::__ndk1::hash<std::__ndk1::basic_string<char, std::__ndk1::char_traits<char>, std::__ndk1::allocator<char> > >, true>, std::__ndk1::allocator<std::__ndk1::__hash_value_type<std::__ndk1::basic_string<char, std::__ndk1::char_traits<char>, std::__ndk1::allocator<char> >, geode::Task<geode::utils::web::WebResponse, geode::utils::web::WebProgress> > > >::__node_insert_unique(std::__ndk1::__hash_node<std::__ndk1::__hash_value_type<std::__ndk1::basic_string<char, std::__ndk1::char_traits<char>, std::__ndk1::allocator<char> >, geode::Task<geode::utils::web::WebResponse, geode::utils::web::WebProgress> >, void*>*)
PUBLIC 978bc 0 std::__ndk1::__hash_table<std::__ndk1::__hash_value_type<std::__ndk1::basic_string<char, std::__ndk1::char_traits<char>, std::__ndk1::allocator<char> >, geode::Task<geode::utils::web::WebResponse, geode::utils::web::WebProgress> >, std::__ndk1::__unordered_map_hasher<std::__ndk1::basic_string<char, std::__ndk1::char_traits<char>, std::__ndk1::allocator<char> >, std::__ndk1::__hash_value_type<std::__ndk1::basic_string<char, std::__ndk1::char_traits<char>, std::__ndk1::allocator<char> >, geode::Task<geode::utils::web::WebResponse, geode::utils::web::WebProgress> >, std::__ndk1::hash<std::__ndk1::basic_string<char, std::__ndk1::char_traits<char>, std::__ndk1::allocator<char> > >, std::__ndk1::equal_to<std::__ndk1::basic_string<char, std::__ndk1::char_traits<char>, std::__ndk1::allocator<char> > >, true>, std::__ndk1::__unordered_map_equal<std::__ndk1::basic_string<char, std::__ndk1::char_traits<char>, std::__ndk1::allocator<char> >, std::__ndk1::__hash_value_type<std::__ndk1::basic_string<char, std::__ndk1::char_traits<char>, std::__ndk1::allocator<char> >, geode::Task<geode::utils::web::WebResponse, geode::utils::web::WebProgress> >, std::__ndk1::equal_to<std::__ndk1::basic_string<char, std::__ndk1::char_traits<char>, std::__ndk1::allocator<char> > >, std::__ndk1::hash<std::__ndk1::basic_string<char, std::__ndk1::char_traits<char>, std::__ndk1::allocator<char> > >, true>, std::__ndk1::allocator<std::__ndk1::__hash_value_type<std::__ndk1::basic_string<char, std::__ndk1::char_traits<char>, std::__ndk1::allocator<char> >, geode::Task<geode::utils::web::WebResponse, geode::utils::web::WebProgress> > > >::__node_insert_unique_prepare[abi:ne180000](unsigned long, std::__ndk1::__hash_value_type<std::__ndk1::basic_string<char, std::__ndk1::char_traits<char>, std::__ndk1::allocator<char> >, geode::Task<geode::utils::web::WebResponse, geode::utils::web::WebProgress> >&)
PUBLIC 97bcc 0 std::__ndk1::__hash_table<std::__ndk1::__hash_value_type<std::__ndk1::basic_string<char, std::__ndk1::char_traits<char>, std::__ndk1::allocator<char> >, geode::Task<geode::utils::web::WebResponse, geode::utils::web::WebProgress> >, std::__ndk1::__unordered_map_hasher<std::__ndk1::basic_string<char, std::__ndk1::char_traits<char>, std::__ndk1::allocator<char> >, std::__ndk1::__hash_value_type<std::__ndk1::basic_string<char, std::__ndk1::char_traits<char>, std::__ndk1::allocator<char> >, geode::Task<geode::utils::web::WebResponse, geode::utils::web::WebProgress> >, std::__ndk1::hash<std::__ndk1::basic_string<char, std::__ndk1::char_traits<char>, std::__ndk1::allocator<char> > >, std::__ndk1::equal_to<std::__ndk1::basic_string<char, std::__ndk1::char_traits<char>, std::__ndk1::allocator<char> > >, true>, std::__ndk1::__unordered_map_equal<std::__ndk1::basic_string<char, std::__ndk1::char_traits<char>, std::__ndk1::allocator<char> >, std::__ndk1::__hash_value_type<std::__ndk1::basic_string<char, std::__ndk1::char_traits<char>, std::__ndk1::allocator<char> >, geode::Task<geode::utils::web::WebResponse, geode::utils::web::WebProgress> >, std::__ndk1::equal_to<std::__ndk1::basic_string<char, std::__ndk1::char_traits<char>, std::__ndk1::allocator<char> > >, std::__ndk1::hash<std::__ndk1::basic_string<char, std::__ndk1::char_traits<char>, std::__ndk1::allocator<char> > >, true>, std::__ndk1::allocator<std::__ndk1::__hash_value_type<std::__ndk1::basic_string<char, std::__ndk1::char_traits<char>, std::__ndk1::allocator<char> >, geode::Task<geode::utils::web::WebResponse, geode::utils::web::WebProgress> > > >::__do_rehash<true>(unsigned long)
PUBLIC 97d78 0 std::__ndk1::__function::__func<MoreLeaderboards::startLoadingMore()::$_0, std::__ndk1::allocator<MoreLeaderboards::startLoadingMore()::$_0>, void (std::__ndk1::basic_string<char, std::__ndk1::char_traits<char>, std::__ndk1::allocator<char> > const&)>::~__func()
PUBLIC 97d7c 0 std::__ndk1::__function::__func<MoreLeaderboards::startLoadingMore()::$_0, std::__ndk1::allocator<MoreLeaderboards::startLoadingMore()::$_0>, void (std::__ndk1::basic_string<char, std::__ndk1::char_traits<char>, std::__ndk1::allocator<char> > const&)>::__clone() const
PUBLIC 97db0 0 std::__ndk1::__function::__func<MoreLeaderboards::startLoadingMore()::$_0, std::__ndk1::allocator<MoreLeaderboards::startLoadingMore()::$_0>, void (std::__ndk1::basic_string<char, std::__ndk1::char_traits<char>, std::__ndk1::allocator<char> > const&)>::__clone(std::__ndk1::__function::__base<void (std::__ndk1::basic_string<char, std::__ndk1::char_traits<char>, std::__ndk1::allocator<char> > const&)>*) const
PUBLIC 97dc4 0 std::__ndk1::__function::__func<MoreLeaderboards::startLoadingMore()::$_0, std::__ndk1::allocator<MoreLeaderboards::startLoadingMore()::$_0>, void (std::__ndk1::basic_string<char, std::__ndk1::char_traits<char>, std::__ndk1::allocator<char> > const&)>::destroy()
PUBLIC 97dc8 0 std::__ndk1::__function::__func<MoreLeaderboards::startLoadingMore()::$_0, std::__ndk1::allocator<MoreLeaderboards::startLoadingMore()::$_0>, void (std::__ndk1::basic_string<char, std::__ndk1::char_traits<char>, std::__ndk1::allocator<char> > const&)>::destroy_deallocate()
PUBLIC 97dcc 0 std::__ndk1::__function::__func<MoreLeaderboards::startLoadingMore()::$_0, std::__ndk1::allocator<MoreLeaderboards::startLoadingMore()::$_0>, void (std::__ndk1::basic_string<char, std::__ndk1::char_traits<char>, std::__ndk1::allocator<char> > const&)>::operator()(std::__ndk1::basic_string<char, std::__ndk1::char_traits<char>, std::__ndk1::allocator<char> > const&)
PUBLIC 98068 0 std::__ndk1::__function::__func<MoreLeaderboards::startLoadingMore()::$_0, std::__ndk1::allocator<MoreLeaderboards::startLoadingMore()::$_0>, void (std::__ndk1::basic_string<char, std::__ndk1::char_traits<char>, std::__ndk1::allocator<char> > const&)>::target(std::type_info const&) const
PUBLIC 98084 0 std::__ndk1::__function::__func<MoreLeaderboards::startLoadingMore()::$_0, std::__ndk1::allocator<MoreLeaderboards::startLoadingMore()::$_0>, void (std::__ndk1::basic_string<char, std::__ndk1::char_traits<char>, std::__ndk1::allocator<char> > const&)>::target_type() const
PUBLIC 98090 0 std::__ndk1::__function::__func<MoreLeaderboards::startLoadingMore()::$_0::operator()(std::__ndk1::basic_string<char, std::__ndk1::char_traits<char>, std::__ndk1::allocator<char> > const&) const::{lambda(auto:1, bool)#1}, std::__ndk1::allocator<MoreLeaderboards::startLoadingMore()::$_0::operator()(std::__ndk1::basic_string<char, std::__ndk1::char_traits<char>, std::__ndk1::allocator<char> > const&) const::{lambda(auto:1, bool)#1}>, void (FLAlertLayer*, bool)>::~__func()
PUBLIC 98094 0 std::__ndk1::__function::__func<MoreLeaderboards::startLoadingMore()::$_0::operator()(std::__ndk1::basic_string<char, std::__ndk1::char_traits<char>, std::__ndk1::allocator<char> > const&) const::{lambda(auto:1, bool)#1}, std::__ndk1::allocator<MoreLeaderboards::startLoadingMore()::$_0::operator()(std::__ndk1::basic_string<char, std::__ndk1::char_traits<char>, std::__ndk1::allocator<char> > const&) const::{lambda(auto:1, bool)#1}>, void (FLAlertLayer*, bool)>::__clone() const
PUBLIC 980c8 0 std::__ndk1::__function::__func<MoreLeaderboards::startLoadingMore()::$_0::operator()(std::__ndk1::basic_string<char, std::__ndk1::char_traits<char>, std::__ndk1::allocator<char> > const&) const::{lambda(auto:1, bool)#1}, std::__ndk1::allocator<MoreLeaderboards::startLoadingMore()::$_0::operator()(std::__ndk1::basic_string<char, std::__ndk1::char_traits<char>, std::__ndk1::allocator<char> > const&) const::{lambda(auto:1, bool)#1}>, void (FLAlertLayer*, bool)>::__clone(std::__ndk1::__function::__base<void (FLAlertLayer*, bool)>*) const
PUBLIC 980dc 0 std::__ndk1::__function::__func<MoreLeaderboards::startLoadingMore()::$_0::operator()(std::__ndk1::basic_string<char, std::__ndk1::char_traits<char>, std::__ndk1::allocator<char> > const&) const::{lambda(auto:1, bool)#1}, std::__ndk1::allocator<MoreLeaderboards::startLoadingMore()::$_0::operator()(std::__ndk1::basic_string<char, std::__ndk1::char_traits<char>, std::__ndk1::allocator<char> > const&) const::{lambda(auto:1, bool)#1}>, void (FLAlertLayer*, bool)>::destroy()
PUBLIC 980e0 0 std::__ndk1::__function::__func<MoreLeaderboards::startLoadingMore()::$_0::operator()(std::__ndk1::basic_string<char, std::__ndk1::char_traits<char>, std::__ndk1::allocator<char> > const&) const::{lambda(auto:1, bool)#1}, std::__ndk1::allocator<MoreLeaderboards::startLoadingMore()::$_0::operator()(std::__ndk1::basic_string<char, std::__ndk1::char_traits<char>, std::__ndk1::allocator<char> > const&) const::{lambda(auto:1, bool)#1}>, void (FLAlertLayer*, bool)>::destroy_deallocate()
PUBLIC 980e4 0 std::__ndk1::__function::__func<MoreLeaderboards::startLoadingMore()::$_0::operator()(std::__ndk1::basic_string<char, std::__ndk1::char_traits<char>, std::__ndk1::allocator<char> > const&) const::{lambda(auto:1, bool)#1}, std::__ndk1::allocator<MoreLeaderboards::startLoadingMore()::$_0::operator()(std::__ndk1::basic_string<char, std::__ndk1::char_traits<char>, std::__ndk1::allocator<char> > const&) const::{lambda(auto:1, bool)#1}>, void (FLAlertLayer*, bool)>::operator()(FLAlertLayer*&&, bool&&)
PUBLIC 98108 0 std::__ndk1::__function::__func<MoreLeaderboards::startLoadingMore()::$_0::operator()(std::__ndk1::basic_string<char, std::__ndk1::char_traits<char>, std::__ndk1::allocator<char> > const&) const::{lambda(auto:1, bool)#1}, std::__ndk1::allocator<MoreLeaderboards::startLoadingMore()::$_0::operator()(std::__ndk1::basic_string<char, std::__ndk1::char_traits<char>, std::__ndk1::allocator<char> > const&) const::{lambda(auto:1, bool)#1}>, void (FLAlertLayer*, bool)>::target(std::type_info const&) const
PUBLIC 98124 0 std::__ndk1::__function::__func<MoreLeaderboards::startLoadingMore()::$_0::operator()(std::__ndk1::basic_string<char, std::__ndk1::char_traits<char>, std::__ndk1::allocator<char> > const&) const::{lambda(auto:1, bool)#1}, std::__ndk1::allocator<MoreLeaderboards::startLoadingMore()::$_0::operator()(std::__ndk1::basic_string<char, std::__ndk1::char_traits<char>, std::__ndk1::allocator<char> > const&) const::{lambda(auto:1, bool)#1}>, void (FLAlertLayer*, bool)>::target_type() const
PUBLIC 98130 0 std::__ndk1::__function::__func<MoreLeaderboards::startLoadingMore()::$_1, std::__ndk1::allocator<MoreLeaderboards::startLoadingMore()::$_1>, void (std::__ndk1::basic_string<char, std::__ndk1::char_traits<char>, std::__ndk1::allocator<char> > const&)>::~__func()
PUBLIC 98134 0 std::__ndk1::__function::__func<MoreLeaderboards::startLoadingMore()::$_1, std::__ndk1::allocator<MoreLeaderboards::startLoadingMore()::$_1>, void (std::__ndk1::basic_string<char, std::__ndk1::char_traits<char>, std::__ndk1::allocator<char> > const&)>::__clone() const
PUBLIC 98168 0 std::__ndk1::__function::__func<MoreLeaderboards::startLoadingMore()::$_1, std::__ndk1::allocator<MoreLeaderboards::startLoadingMore()::$_1>, void (std::__ndk1::basic_string<char, std::__ndk1::char_traits<char>, std::__ndk1::allocator<char> > const&)>::__clone(std::__ndk1::__function::__base<void (std::__ndk1::basic_string<char, std::__ndk1::char_traits<char>, std::__ndk1::allocator<char> > const&)>*) const
PUBLIC 9817c 0 std::__ndk1::__function::__func<MoreLeaderboards::startLoadingMore()::$_1, std::__ndk1::allocator<MoreLeaderboards::startLoadingMore()::$_1>, void (std::__ndk1::basic_string<char, std::__ndk1::char_traits<char>, std::__ndk1::allocator<char> > const&)>::destroy()
PUBLIC 98180 0 std::__ndk1::__function::__func<MoreLeaderboards::startLoadingMore()::$_1, std::__ndk1::allocator<MoreLeaderboards::startLoadingMore()::$_1>, void (std::__ndk1::basic_string<char, std::__ndk1::char_traits<char>, std::__ndk1::allocator<char> > const&)>::destroy_deallocate()
PUBLIC 98184 0 std::__ndk1::__function::__func<MoreLeaderboards::startLoadingMore()::$_1, std::__ndk1::allocator<MoreLeaderboards::startLoadingMore()::$_1>, void (std::__ndk1::basic_string<char, std::__ndk1::char_traits<char>, std::__ndk1::allocator<char> > const&)>::operator()(std::__ndk1::basic_string<char, std::__ndk1::char_traits<char>, std::__ndk1::allocator<char> > const&)
PUBLIC 9818c 0 std::__ndk1::__function::__func<MoreLeaderboards::startLoadingMore()::$_1, std::__ndk1::allocator<MoreLeaderboards::startLoadingMore()::$_1>, void (std::__ndk1::basic_string<char, std::__ndk1::char_traits<char>, std::__ndk1::allocator<char> > const&)>::target(std::type_info const&) const
PUBLIC 981a8 0 std::__ndk1::__function::__func<MoreLeaderboards::startLoadingMore()::$_1, std::__ndk1::allocator<MoreLeaderboards::startLoadingMore()::$_1>, void (std::__ndk1::basic_string<char, std::__ndk1::char_traits<char>, std::__ndk1::allocator<char> > const&)>::target_type() const
PUBLIC 981b4 0 MoreLeaderboards::startLoadingMore()::$_1::operator()(std::__ndk1::basic_string<char, std::__ndk1::char_traits<char>, std::__ndk1::allocator<char> > const&) const
PUBLIC 99420 0 MoreLeaderboards::startLoadingMore()::$_1::operator()(std::__ndk1::basic_string<char, std::__ndk1::char_traits<char>, std::__ndk1::allocator<char> > const&) const::{lambda(geode::utils::web::WebResponse*)#1}::~{lambda(geode::utils::web::WebResponse*)#1}()
PUBLIC 994b8 0 std::__ndk1::__function::__func<MoreLeaderboards::startLoadingMore()::$_1::operator()(std::__ndk1::basic_string<char, std::__ndk1::char_traits<char>, std::__ndk1::allocator<char> > const&) const::{lambda(std::__ndk1::basic_string<char, std::__ndk1::char_traits<char>, std::__ndk1::allocator<char> > const&)#1}, std::__ndk1::allocator<MoreLeaderboards::startLoadingMore()::$_1::operator()(std::__ndk1::basic_string<char, std::__ndk1::char_traits<char>, std::__ndk1::allocator<char> > const&) const::{lambda(std::__ndk1::basic_string<char, std::__ndk1::char_traits<char>, std::__ndk1::allocator<char> > const&)#1}>, void (std::__ndk1::basic_string<char, std::__ndk1::char_traits<char>, std::__ndk1::allocator<char> > const&)>::~__func()
PUBLIC 994bc 0 std::__ndk1::__function::__func<MoreLeaderboards::startLoadingMore()::$_1::operator()(std::__ndk1::basic_string<char, std::__ndk1::char_traits<char>, std::__ndk1::allocator<char> > const&) const::{lambda(std::__ndk1::basic_string<char, std::__ndk1::char_traits<char>, std::__ndk1::allocator<char> > const&)#1}, std::__ndk1::allocator<MoreLeaderboards::startLoadingMore()::$_1::operator()(std::__ndk1::basic_string<char, std::__ndk1::char_traits<char>, std::__ndk1::allocator<char> > const&) const::{lambda(std::__ndk1::basic_string<char, std::__ndk1::char_traits<char>, std::__ndk1::allocator<char> > const&)#1}>, void (std::__ndk1::basic_string<char, std::__ndk1::char_traits<char>, std::__ndk1::allocator<char> > const&)>::__clone() const
PUBLIC 994f0 0 std::__ndk1::__function::__func<MoreLeaderboards::startLoadingMore()::$_1::operator()(std::__ndk1::basic_string<char, std::__ndk1::char_traits<char>, std::__ndk1::allocator<char> > const&) const::{lambda(std::__ndk1::basic_string<char, std::__ndk1::char_traits<char>, std::__ndk1::allocator<char> > const&)#1}, std::__ndk1::allocator<MoreLeaderboards::startLoadingMore()::$_1::operator()(std::__ndk1::basic_string<char, std::__ndk1::char_traits<char>, std::__ndk1::allocator<char> > const&) const::{lambda(std::__ndk1::basic_string<char, std::__ndk1::char_traits<char>, std::__ndk1::allocator<char> > const&)#1}>, void (std::__ndk1::basic_string<char, std::__ndk1::char_traits<char>, std::__ndk1::allocator<char> > const&)>::__clone(std::__ndk1::__function::__base<void (std::__ndk1::basic_string<char, std::__ndk1::char_traits<char>, std::__ndk1::allocator<char> > const&)>*) const
PUBLIC 99504 0 std::__ndk1::__function::__func<MoreLeaderboards::startLoadingMore()::$_1::operator()(std::__ndk1::basic_string<char, std::__ndk1::char_traits<char>, std::__ndk1::allocator<char> > const&) const::{lambda(std::__ndk1::basic_string<char, std::__ndk1::char_traits<char>, std::__ndk1::allocator<char> > const&)#1}, std::__ndk1::allocator<MoreLeaderboards::startLoadingMore()::$_1::operator()(std::__ndk1::basic_string<char, std::__ndk1::char_traits<char>, std::__ndk1::allocator<char> > const&) const::{lambda(std::__ndk1::basic_string<char, std::__ndk1::char_traits<char>, std::__ndk1::allocator<char> > const&)#1}>, void (std::__ndk1::basic_string<char, std::__ndk1::char_traits<char>, std::__ndk1::allocator<char> > const&)>::destroy()
PUBLIC 99508 0 std::__ndk1::__function::__func<MoreLeaderboards::startLoadingMore()::$_1::operator()(std::__ndk1::basic_string<char, std::__ndk1::char_traits<char>, std::__ndk1::allocator<char> > const&) const::{lambda(std::__ndk1::basic_string<char, std::__ndk1::char_traits<char>, std::__ndk1::allocator<char> > const&)#1}, std::__ndk1::allocator<MoreLeaderboards::startLoadingMore()::$_1::operator()(std::__ndk1::basic_string<char, std::__ndk1::char_traits<char>, std::__ndk1::allocator<char> > const&) const::{lambda(std::__ndk1::basic_string<char, std::__ndk1::char_traits<char>, std::__ndk1::allocator<char> > const&)#1}>, void (std::__ndk1::basic_string<char, std::__ndk1::char_traits<char>, std::__ndk1::allocator<char> > const&)>::destroy_deallocate()
PUBLIC 9950c 0 std::__ndk1::__function::__func<MoreLeaderboards::startLoadingMore()::$_1::operator()(std::__ndk1::basic_string<char, std::__ndk1::char_traits<char>, std::__ndk1::allocator<char> > const&) const::{lambda(std::__ndk1::basic_string<char, std::__ndk1::char_traits<char>, std::__ndk1::allocator<char> > const&)#1}, std::__ndk1::allocator<MoreLeaderboards::startLoadingMore()::$_1::operator()(std::__ndk1::basic_string<char, std::__ndk1::char_traits<char>, std::__ndk1::allocator<char> > const&) const::{lambda(std::__ndk1::basic_string<char, std::__ndk1::char_traits<char>, std::__ndk1::allocator<char> > const&)#1}>, void (std::__ndk1::basic_string<char, std::__ndk1::char_traits<char>, std::__ndk1::allocator<char> > const&)>::operator()(std::__ndk1::basic_string<char, std::__ndk1::char_traits<char>, std::__ndk1::allocator<char> > const&)
PUBLIC 997a8 0 std::__ndk1::__function::__func<MoreLeaderboards::startLoadingMore()::$_1::operator()(std::__ndk1::basic_string<char, std::__ndk1::char_traits<char>, std::__ndk1::allocator<char> > const&) const::{lambda(std::__ndk1::basic_string<char, std::__ndk1::char_traits<char>, std::__ndk1::allocator<char> > const&)#1}, std::__ndk1::allocator<MoreLeaderboards::startLoadingMore()::$_1::operator()(std::__ndk1::basic_string<char, std::__ndk1::char_traits<char>, std::__ndk1::allocator<char> > const&) const::{lambda(std::__ndk1::basic_string<char, std::__ndk1::char_traits<char>, std::__ndk1::allocator<char> > const&)#1}>, void (std::__ndk1::basic_string<char, std::__ndk1::char_traits<char>, std::__ndk1::allocator<char> > const&)>::target(std::type_info const&) const
PUBLIC 997c4 0 std::__ndk1::__function::__func<MoreLeaderboards::startLoadingMore()::$_1::operator()(std::__ndk1::basic_string<char, std::__ndk1::char_traits<char>, std::__ndk1::allocator<char> > const&) const::{lambda(std::__ndk1::basic_string<char, std::__ndk1::char_traits<char>, std::__ndk1::allocator<char> > const&)#1}, std::__ndk1::allocator<MoreLeaderboards::startLoadingMore()::$_1::operator()(std::__ndk1::basic_string<char, std::__ndk1::char_traits<char>, std::__ndk1::allocator<char> > const&) const::{lambda(std::__ndk1::basic_string<char, std::__ndk1::char_traits<char>, std::__ndk1::allocator<char> > const&)#1}>, void (std::__ndk1::basic_string<char, std::__ndk1::char_traits<char>, std::__ndk1::allocator<char> > const&)>::target_type() const
PUBLIC 997d0 0 std::__ndk1::__function::__func<MoreLeaderboards::startLoadingMore()::$_1::operator()(std::__ndk1::basic_string<char, std::__ndk1::char_traits<char>, std::__ndk1::allocator<char> > const&) const::{lambda(std::__ndk1::basic_string<char, std::__ndk1::char_traits<char>, std::__ndk1::allocator<char> > const&)#1}::operator()(std::__ndk1::basic_string<char, std::__ndk1::char_traits<char>, std::__ndk1::allocator<char> > const&) const::{lambda(auto:1, bool)#1}, std::__ndk1::allocator<MoreLeaderboards::startLoadingMore()::$_1::operator()(std::__ndk1::basic_string<char, std::__ndk1::char_traits<char>, std::__ndk1::allocator<char> > const&) const::{lambda(std::__ndk1::basic_string<char, std::__ndk1::char_traits<char>, std::__ndk1::allocator<char> > const&)#1}::operator()(std::__ndk1::basic_string<char, std::__ndk1::char_traits<char>, std::__ndk1::allocator<char> > const&) const::{lambda(auto:1, bool)#1}>, void (FLAlertLayer*, bool)>::~__func()
PUBLIC 997d4 0 std::__ndk1::__function::__func<MoreLeaderboards::startLoadingMore()::$_1::operator()(std::__ndk1::basic_string<char, std::__ndk1::char_traits<char>, std::__ndk1::allocator<char> > const&) const::{lambda(std::__ndk1::basic_string<char, std::__ndk1::char_traits<char>, std::__ndk1::allocator<char> > const&)#1}::operator()(std::__ndk1::basic_string<char, std::__ndk1::char_traits<char>, std::__ndk1::allocator<char> > const&) const::{lambda(auto:1, bool)#1}, std::__ndk1::allocator<MoreLeaderboards::startLoadingMore()::$_1::operator()(std::__ndk1::basic_string<char, std::__ndk1::char_traits<char>, std::__ndk1::allocator<char> > const&) const::{lambda(std::__ndk1::basic_string<char, std::__ndk1::char_traits<char>, std::__ndk1::allocator<char> > const&)#1}::operator()(std::__ndk1::basic_string<char, std::__ndk1::char_traits<char>, std::__ndk1::allocator<char> > const&) const::{lambda(auto:1, bool)#1}>, void (FLAlertLayer*, bool)>::__clone() const
PUBLIC 99808 0 std::__ndk1::__function::__func<MoreLeaderboards::startLoadingMore()::$_1::operator()(std::__ndk1::basic_string<char, std::__ndk1::char_traits<char>, std::__ndk1::allocator<char> > const&) const::{lambda(std::__ndk1::basic_string<char, std::__ndk1::char_traits<char>, std::__ndk1::allocator<char> > const&)#1}::operator()(std::__ndk1::basic_string<char, std::__ndk1::char_traits<char>, std::__ndk1::allocator<char> > const&) const::{lambda(auto:1, bool)#1}, std::__ndk1::allocator<MoreLeaderboards::startLoadingMore()::$_1::operator()(std::__ndk1::basic_string<char, std::__ndk1::char_traits<char>, std::__ndk1::allocator<char> > const&) const::{lambda(std::__ndk1::basic_string<char, std::__ndk1::char_traits<char>, std::__ndk1::allocator<char> > const&)#1}::operator()(std::__ndk1::basic_string<char, std::__ndk1::char_traits<char>, std::__ndk1::allocator<char> > const&) const::{lambda(auto:1, bool)#1}>, void (FLAlertLayer*, bool)>::__clone(std::__ndk1::__function::__base<void (FLAlertLayer*, bool)>*) const
PUBLIC 9981c 0 std::__ndk1::__function::__func<MoreLeaderboards::startLoadingMore()::$_1::operator()(std::__ndk1::basic_string<char, std::__ndk1::char_traits<char>, std::__ndk1::allocator<char> > const&) const::{lambda(std::__ndk1::basic_string<char, std::__ndk1::char_traits<char>, std::__ndk1::allocator<char> > const&)#1}::operator()(std::__ndk1::basic_string<char, std::__ndk1::char_traits<char>, std::__ndk1::allocator<char> > const&) const::{lambda(auto:1, bool)#1}, std::__ndk1::allocator<MoreLeaderboards::startLoadingMore()::$_1::operator()(std::__ndk1::basic_string<char, std::__ndk1::char_traits<char>, std::__ndk1::allocator<char> > const&) const::{lambda(std::__ndk1::basic_string<char, std::__ndk1::char_traits<char>, std::__ndk1::allocator<char> > const&)#1}::operator()(std::__ndk1::basic_string<char, std::__ndk1::char_traits<char>, std::__ndk1::allocator<char> > const&) const::{lambda(auto:1, bool)#1}>, void (FLAlertLayer*, bool)>::destroy()
PUBLIC 99820 0 std::__ndk1::__function::__func<MoreLeaderboards::startLoadingMore()::$_1::operator()(std::__ndk1::basic_string<char, std::__ndk1::char_traits<char>, std::__ndk1::allocator<char> > const&) const::{lambda(std::__ndk1::basic_string<char, std::__ndk1::char_traits<char>, std::__ndk1::allocator<char> > const&)#1}::operator()(std::__ndk1::basic_string<char, std::__ndk1::char_traits<char>, std::__ndk1::allocator<char> > const&) const::{lambda(auto:1, bool)#1}, std::__ndk1::allocator<MoreLeaderboards::startLoadingMore()::$_1::operator()(std::__ndk1::basic_string<char, std::__ndk1::char_traits<char>, std::__ndk1::allocator<char> > const&) const::{lambda(std::__ndk1::basic_string<char, std::__ndk1::char_traits<char>, std::__ndk1::allocator<char> > const&)#1}::operator()(std::__ndk1::basic_string<char, std::__ndk1::char_traits<char>, std::__ndk1::allocator<char> > const&) const::{lambda(auto:1, bool)#1}>, void (FLAlertLayer*, bool)>::destroy_deallocate()
PUBLIC 99824 0 std::__ndk1::__function::__func<MoreLeaderboards::startLoadingMore()::$_1::operator()(std::__ndk1::basic_string<char, std::__ndk1::char_traits<char>, std::__ndk1::allocator<char> > const&) const::{lambda(std::__ndk1::basic_string<char, std::__ndk1::char_traits<char>, std::__ndk1::allocator<char> > const&)#1}::operator()(std::__ndk1::basic_string<char, std::__ndk1::char_traits<char>, std::__ndk1::allocator<char> > const&) const::{lambda(auto:1, bool)#1}, std::__ndk1::allocator<MoreLeaderboards::startLoadingMore()::$_1::operator()(std::__ndk1::basic_string<char, std::__ndk1::char_traits<char>, std::__ndk1::allocator<char> > const&) const::{lambda(std::__ndk1::basic_string<char, std::__ndk1::char_traits<char>, std::__ndk1::allocator<char> > const&)#1}::operator()(std::__ndk1::basic_string<char, std::__ndk1::char_traits<char>, std::__ndk1::allocator<char> > const&) const::{lambda(auto:1, bool)#1}>, void (FLAlertLayer*, bool)>::operator()(FLAlertLayer*&&, bool&&)
PUBLIC 99848 0 std::__ndk1::__function::__func<MoreLeaderboards::startLoadingMore()::$_1::operator()(std::__ndk1::basic_string<char, std::__ndk1::char_traits<char>, std::__ndk1::allocator<char> > const&) const::{lambda(std::__ndk1::basic_string<char, std::__ndk1::char_traits<char>, std::__ndk1::allocator<char> > const&)#1}::operator()(std::__ndk1::basic_string<char, std::__ndk1::char_traits<char>, std::__ndk1::allocator<char> > const&) const::{lambda(auto:1, bool)#1}, std::__ndk1::allocator<MoreLeaderboards::startLoadingMore()::$_1::operator()(std::__ndk1::basic_string<char, std::__ndk1::char_traits<char>, std::__ndk1::allocator<char> > const&) const::{lambda(std::__ndk1::basic_string<char, std::__ndk1::char_traits<char>, std::__ndk1::allocator<char> > const&)#1}::operator()(std::__ndk1::basic_string<char, std::__ndk1::char_traits<char>, std::__ndk1::allocator<char> > const&) const::{lambda(auto:1, bool)#1}>, void (FLAlertLayer*, bool)>::target(std::type_info const&) const
PUBLIC 99864 0 std::__ndk1::__function::__func<MoreLeaderboards::startLoadingMore()::$_1::operator()(std::__ndk1::basic_string<char, std::__ndk1::char_traits<char>, std::__ndk1::allocator<char> > const&) const::{lambda(std::__ndk1::basic_string<char, std::__ndk1::char_traits<char>, std::__ndk1::allocator<char> > const&)#1}::operator()(std::__ndk1::basic_string<char, std::__ndk1::char_traits<char>, std::__ndk1::allocator<char> > const&) const::{lambda(auto:1, bool)#1}, std::__ndk1::allocator<MoreLeaderboards::startLoadingMore()::$_1::operator()(std::__ndk1::basic_string<char, std::__ndk1::char_traits<char>, std::__ndk1::allocator<char> > const&) const::{lambda(std::__ndk1::basic_string<char, std::__ndk1::char_traits<char>, std::__ndk1::allocator<char> > const&)#1}::operator()(std::__ndk1::basic_string<char, std::__ndk1::char_traits<char>, std::__ndk1::allocator<char> > const&) const::{lambda(auto:1, bool)#1}>, void (FLAlertLayer*, bool)>::target_type() const
PUBLIC 99870 0 std::__ndk1::__function::__base<void (std::__ndk1::basic_string<char, std::__ndk1::char_traits<char>, std::__ndk1::allocator<char> > const&)>::~__base()
PUBLIC 99874 0 std::__ndk1::__function::__func<MoreLeaderboards::startLoadingMore()::$_1::operator()(std::__ndk1::basic_string<char, std::__ndk1::char_traits<char>, std::__ndk1::allocator<char> > const&) const::{lambda(std::__ndk1::basic_string<char, std::__ndk1::char_traits<char>, std::__ndk1::allocator<char> > const&)#2}, std::__ndk1::allocator<MoreLeaderboards::startLoadingMore()::$_1::operator()(std::__ndk1::basic_string<char, std::__ndk1::char_traits<char>, std::__ndk1::allocator<char> > const&) const::{lambda(std::__ndk1::basic_string<char, std::__ndk1::char_traits<char>, std::__ndk1::allocator<char> > const&)#2}>, void (std::__ndk1::basic_string<char, std::__ndk1::char_traits<char>, std::__ndk1::allocator<char> > const&)>::~__func()
PUBLIC 99878 0 std::__ndk1::__function::__func<MoreLeaderboards::startLoadingMore()::$_1::operator()(std::__ndk1::basic_string<char, std::__ndk1::char_traits<char>, std::__ndk1::allocator<char> > const&) const::{lambda(std::__ndk1::basic_string<char, std::__ndk1::char_traits<char>, std::__ndk1::allocator<char> > const&)#2}, std::__ndk1::allocator<MoreLeaderboards::startLoadingMore()::$_1::operator()(std::__ndk1::basic_string<char, std::__ndk1::char_traits<char>, std::__ndk1::allocator<char> > const&) const::{lambda(std::__ndk1::basic_string<char, std::__ndk1::char_traits<char>, std::__ndk1::allocator<char> > const&)#2}>, void (std::__ndk1::basic_string<char, std::__ndk1::char_traits<char>, std::__ndk1::allocator<char> > const&)>::__clone() const
PUBLIC 998ac 0 std::__ndk1::__function::__func<MoreLeaderboards::startLoadingMore()::$_1::operator()(std::__ndk1::basic_string<char, std::__ndk1::char_traits<char>, std::__ndk1::allocator<char> > const&) const::{lambda(std::__ndk1::basic_string<char, std::__ndk1::char_traits<char>, std::__ndk1::allocator<char> > const&)#2}, std::__ndk1::allocator<MoreLeaderboards::startLoadingMore()::$_1::operator()(std::__ndk1::basic_string<char, std::__ndk1::char_traits<char>, std::__ndk1::allocator<char> > const&) const::{lambda(std::__ndk1::basic_string<char, std::__ndk1::char_traits<char>, std::__ndk1::allocator<char> > const&)#2}>, void (std::__ndk1::basic_string<char, std::__ndk1::char_traits<char>, std::__ndk1::allocator<char> > const&)>::__clone(std::__ndk1::__function::__base<void (std::__ndk1::basic_string<char, std::__ndk1::char_traits<char>, std::__ndk1::allocator<char> > const&)>*) const
PUBLIC 998c0 0 std::__ndk1::__function::__func<MoreLeaderboards::startLoadingMore()::$_1::operator()(std::__ndk1::basic_string<char, std::__ndk1::char_traits<char>, std::__ndk1::allocator<char> > const&) const::{lambda(std::__ndk1::basic_string<char, std::__ndk1::char_traits<char>, std::__ndk1::allocator<char> > const&)#2}, std::__ndk1::allocator<MoreLeaderboards::startLoadingMore()::$_1::operator()(std::__ndk1::basic_string<char, std::__ndk1::char_traits<char>, std::__ndk1::allocator<char> > const&) const::{lambda(std::__ndk1::basic_string<char, std::__ndk1::char_traits<char>, std::__ndk1::allocator<char> > const&)#2}>, void (std::__ndk1::basic_string<char, std::__ndk1::char_traits<char>, std::__ndk1::allocator<char> > const&)>::destroy()
PUBLIC 998c4 0 std::__ndk1::__function::__func<MoreLeaderboards::startLoadingMore()::$_1::operator()(std::__ndk1::basic_string<char, std::__ndk1::char_traits<char>, std::__ndk1::allocator<char> > const&) const::{lambda(std::__ndk1::basic_string<char, std::__ndk1::char_traits<char>, std::__ndk1::allocator<char> > const&)#2}, std::__ndk1::allocator<MoreLeaderboards::startLoadingMore()::$_1::operator()(std::__ndk1::basic_string<char, std::__ndk1::char_traits<char>, std::__ndk1::allocator<char> > const&) const::{lambda(std::__ndk1::basic_string<char, std::__ndk1::char_traits<char>, std::__ndk1::allocator<char> > const&)#2}>, void (std::__ndk1::basic_string<char, std::__ndk1::char_traits<char>, std::__ndk1::allocator<char> > const&)>::destroy_deallocate()
PUBLIC 998c8 0 std::__ndk1::__function::__func<MoreLeaderboards::startLoadingMore()::$_1::operator()(std::__ndk1::basic_string<char, std::__ndk1::char_traits<char>, std::__ndk1::allocator<char> > const&) const::{lambda(std::__ndk1::basic_string<char, std::__ndk1::char_traits<char>, std::__ndk1::allocator<char> > const&)#2}, std::__ndk1::allocator<MoreLeaderboards::startLoadingMore()::$_1::operator()(std::__ndk1::basic_string<char, std::__ndk1::char_traits<char>, std::__ndk1::allocator<char> > const&) const::{lambda(std::__ndk1::basic_string<char, std::__ndk1::char_traits<char>, std::__ndk1::allocator<char> > const&)#2}>, void (std::__ndk1::basic_string<char, std::__ndk1::char_traits<char>, std::__ndk1::allocator<char> > const&)>::operator()(std::__ndk1::basic_string<char, std::__ndk1::char_traits<char>, std::__ndk1::allocator<char> > const&)
PUBLIC 9ae50 0 std::__ndk1::__function::__func<MoreLeaderboards::startLoadingMore()::$_1::operator()(std::__ndk1::basic_string<char, std::__ndk1::char_traits<char>, std::__ndk1::allocator<char> > const&) const::{lambda(std::__ndk1::basic_string<char, std::__ndk1::char_traits<char>, std::__ndk1::allocator<char> > const&)#2}, std::__ndk1::allocator<MoreLeaderboards::startLoadingMore()::$_1::operator()(std::__ndk1::basic_string<char, std::__ndk1::char_traits<char>, std::__ndk1::allocator<char> > const&) const::{lambda(std::__ndk1::basic_string<char, std::__ndk1::char_traits<char>, std::__ndk1::allocator<char> > const&)#2}>, void (std::__ndk1::basic_string<char, std::__ndk1::char_traits<char>, std::__ndk1::allocator<char> > const&)>::target(std::type_info const&) const
PUBLIC 9ae6c 0 std::__ndk1::__function::__func<MoreLeaderboards::startLoadingMore()::$_1::operator()(std::__ndk1::basic_string<char, std::__ndk1::char_traits<char>, std::__ndk1::allocator<char> > const&) const::{lambda(std::__ndk1::basic_string<char, std::__ndk1::char_traits<char>, std::__ndk1::allocator<char> > const&)#2}, std::__ndk1::allocator<MoreLeaderboards::startLoadingMore()::$_1::operator()(std::__ndk1::basic_string<char, std::__ndk1::char_traits<char>, std::__ndk1::allocator<char> > const&) const::{lambda(std::__ndk1::basic_string<char, std::__ndk1::char_traits<char>, std::__ndk1::allocator<char> > const&)#2}>, void (std::__ndk1::basic_string<char, std::__ndk1::char_traits<char>, std::__ndk1::allocator<char> > const&)>::target_type() const
PUBLIC 9ae78 0 std::__ndk1::__function::__base<void (FLAlertLayer*, bool)>::~__base()
PUBLIC 9ae7c 0 std::__ndk1::__function::__func<MoreLeaderboards::startLoadingMore()::$_1::operator()(std::__ndk1::basic_string<char, std::__ndk1::char_traits<char>, std::__ndk1::allocator<char> > const&) const::{lambda(std::__ndk1::basic_string<char, std::__ndk1::char_traits<char>, std::__ndk1::allocator<char> > const&)#2}::operator()(std::__ndk1::basic_string<char, std::__ndk1::char_traits<char>, std::__ndk1::allocator<char> > const&) const::{lambda(auto:1, bool)#1}, std::__ndk1::allocator<MoreLeaderboards::startLoadingMore()::$_1::operator()(std::__ndk1::basic_string<char, std::__ndk1::char_traits<char>, std::__ndk1::allocator<char> > const&) const::{lambda(std::__ndk1::basic_string<char, std::__ndk1::char_traits<char>, std::__ndk1::allocator<char> > const&)#2}::operator()(std::__ndk1::basic_string<char, std::__ndk1::char_traits<char>, std::__ndk1::allocator<char> > const&) const::{lambda(auto:1, bool)#1}>, void (FLAlertLayer*, bool)>::~__func()
PUBLIC 9ae80 0 std::__ndk1::__function::__func<MoreLeaderboards::startLoadingMore()::$_1::operator()(std::__ndk1::basic_string<char, std::__ndk1::char_traits<char>, std::__ndk1::allocator<char> > const&) const::{lambda(std::__ndk1::basic_string<char, std::__ndk1::char_traits<char>, std::__ndk1::allocator<char> > const&)#2}::operator()(std::__ndk1::basic_string<char, std::__ndk1::char_traits<char>, std::__ndk1::allocator<char> > const&) const::{lambda(auto:1, bool)#1}, std::__ndk1::allocator<MoreLeaderboards::startLoadingMore()::$_1::operator()(std::__ndk1::basic_string<char, std::__ndk1::char_traits<char>, std::__ndk1::allocator<char> > const&) const::{lambda(std::__ndk1::basic_string<char, std::__ndk1::char_traits<char>, std::__ndk1::allocator<char> > const&)#2}::operator()(std::__ndk1::basic_string<char, std::__ndk1::char_traits<char>, std::__ndk1::allocator<char> > const&) const::{lambda(auto:1, bool)#1}>, void (FLAlertLayer*, bool)>::__clone() const
PUBLIC 9aeb4 0 std::__ndk1::__function::__func<MoreLeaderboards::startLoadingMore()::$_1::operator()(std::__ndk1::basic_string<char, std::__ndk1::char_traits<char>, std::__ndk1::allocator<char> > const&) const::{lambda(std::__ndk1::basic_string<char, std::__ndk1::char_traits<char>, std::__ndk1::allocator<char> > const&)#2}::operator()(std::__ndk1::basic_string<char, std::__ndk1::char_traits<char>, std::__ndk1::allocator<char> > const&) const::{lambda(auto:1, bool)#1}, std::__ndk1::allocator<MoreLeaderboards::startLoadingMore()::$_1::operator()(std::__ndk1::basic_string<char, std::__ndk1::char_traits<char>, std::__ndk1::allocator<char> > const&) const::{lambda(std::__ndk1::basic_string<char, std::__ndk1::char_traits<char>, std::__ndk1::allocator<char> > const&)#2}::operator()(std::__ndk1::basic_string<char, std::__ndk1::char_traits<char>, std::__ndk1::allocator<char> > const&) const::{lambda(auto:1, bool)#1}>, void (FLAlertLayer*, bool)>::__clone(std::__ndk1::__function::__base<void (FLAlertLayer*, bool)>*) const
PUBLIC 9aec8 0 std::__ndk1::__function::__func<MoreLeaderboards::startLoadingMore()::$_1::operator()(std::__ndk1::basic_string<char, std::__ndk1::char_traits<char>, std::__ndk1::allocator<char> > const&) const::{lambda(std::__ndk1::basic_string<char, std::__ndk1::char_traits<char>, std::__ndk1::allocator<char> > const&)#2}::operator()(std::__ndk1::basic_string<char, std::__ndk1::char_traits<char>, std::__ndk1::allocator<char> > const&) const::{lambda(auto:1, bool)#1}, std::__ndk1::allocator<MoreLeaderboards::startLoadingMore()::$_1::operator()(std::__ndk1::basic_string<char, std::__ndk1::char_traits<char>, std::__ndk1::allocator<char> > const&) const::{lambda(std::__ndk1::basic_string<char, std::__ndk1::char_traits<char>, std::__ndk1::allocator<char> > const&)#2}::operator()(std::__ndk1::basic_string<char, std::__ndk1::char_traits<char>, std::__ndk1::allocator<char> > const&) const::{lambda(auto:1, bool)#1}>, void (FLAlertLayer*, bool)>::destroy()
PUBLIC 9aecc 0 std::__ndk1::__function::__func<MoreLeaderboards::startLoadingMore()::$_1::operator()(std::__ndk1::basic_string<char, std::__ndk1::char_traits<char>, std::__ndk1::allocator<char> > const&) const::{lambda(std::__ndk1::basic_string<char, std::__ndk1::char_traits<char>, std::__ndk1::allocator<char> > const&)#2}::operator()(std::__ndk1::basic_string<char, std::__ndk1::char_traits<char>, std::__ndk1::allocator<char> > const&) const::{lambda(auto:1, bool)#1}, std::__ndk1::allocator<MoreLeaderboards::startLoadingMore()::$_1::operator()(std::__ndk1::basic_string<char, std::__ndk1::char_traits<char>, std::__ndk1::allocator<char> > const&) const::{lambda(std::__ndk1::basic_string<char, std::__ndk1::char_traits<char>, std::__ndk1::allocator<char> > const&)#2}::operator()(std::__ndk1::basic_string<char, std::__ndk1::char_traits<char>, std::__ndk1::allocator<char> > const&) const::{lambda(auto:1, bool)#1}>, void (FLAlertLayer*, bool)>::destroy_deallocate()
PUBLIC 9aed0 0 std::__ndk1::__function::__func<MoreLeaderboards::startLoadingMore()::$_1::operator()(std::__ndk1::basic_string<char, std::__ndk1::char_traits<char>, std::__ndk1::allocator<char> > const&) const::{lambda(std::__ndk1::basic_string<char, std::__ndk1::char_traits<char>, std::__ndk1::allocator<char> > const&)#2}::operator()(std::__ndk1::basic_string<char, std::__ndk1::char_traits<char>, std::__ndk1::allocator<char> > const&) const::{lambda(auto:1, bool)#1}, std::__ndk1::allocator<MoreLeaderboards::startLoadingMore()::$_1::operator()(std::__ndk1::basic_string<char, std::__ndk1::char_traits<char>, std::__ndk1::allocator<char> > const&) const::{lambda(std::__ndk1::basic_string<char, std::__ndk1::char_traits<char>, std::__ndk1::allocator<char> > const&)#2}::operator()(std::__ndk1::basic_string<char, std::__ndk1::char_traits<char>, std::__ndk1::allocator<char> > const&) const::{lambda(auto:1, bool)#1}>, void (FLAlertLayer*, bool)>::operator()(FLAlertLayer*&&, bool&&)
PUBLIC 9aef4 0 std::__ndk1::__function::__func<MoreLeaderboards::startLoadingMore()::$_1::operator()(std::__ndk1::basic_string<char, std::__ndk1::char_traits<char>, std::__ndk1::allocator<char> > const&) const::{lambda(std::__ndk1::basic_string<char, std::__ndk1::char_traits<char>, std::__ndk1::allocator<char> > const&)#2}::operator()(std::__ndk1::basic_string<char, std::__ndk1::char_traits<char>, std::__ndk1::allocator<char> > const&) const::{lambda(auto:1, bool)#1}, std::__ndk1::allocator<MoreLeaderboards::startLoadingMore()::$_1::operator()(std::__ndk1::basic_string<char, std::__ndk1::char_traits<char>, std::__ndk1::allocator<char> > const&) const::{lambda(std::__ndk1::basic_string<char, std::__ndk1::char_traits<char>, std::__ndk1::allocator<char> > const&)#2}::operator()(std::__ndk1::basic_string<char, std::__ndk1::char_traits<char>, std::__ndk1::allocator<char> > const&) const::{lambda(auto:1, bool)#1}>, void (FLAlertLayer*, bool)>::target(std::type_info const&) const
PUBLIC 9af10 0 std::__ndk1::__function::__func<MoreLeaderboards::startLoadingMore()::$_1::operator()(std::__ndk1::basic_string<char, std::__ndk1::char_traits<char>, std::__ndk1::allocator<char> > const&) const::{lambda(std::__ndk1::basic_string<char, std::__ndk1::char_traits<char>, std::__ndk1::allocator<char> > const&)#2}::operator()(std::__ndk1::basic_string<char, std::__ndk1::char_traits<char>, std::__ndk1::allocator<char> > const&) const::{lambda(auto:1, bool)#1}, std::__ndk1::allocator<MoreLeaderboards::startLoadingMore()::$_1::operator()(std::__ndk1::basic_string<char, std::__ndk1::char_traits<char>, std::__ndk1::allocator<char> > const&) const::{lambda(std::__ndk1::basic_string<char, std::__ndk1::char_traits<char>, std::__ndk1::allocator<char> > const&)#2}::operator()(std::__ndk1::basic_string<char, std::__ndk1::char_traits<char>, std::__ndk1::allocator<char> > const&) const::{lambda(auto:1, bool)#1}>, void (FLAlertLayer*, bool)>::target_type() const
PUBLIC 9af1c 0 MoreLeaderboards::startLoadingMore()::$_1::operator()(std::__ndk1::basic_string<char, std::__ndk1::char_traits<char>, std::__ndk1::allocator<char> > const&) const::{lambda(geode::utils::web::WebResponse*)#1}::operator()(geode::utils::web::WebResponse*) const
PUBLIC 9b180 0 geode::Task<geode::utils::web::WebResponse, geode::utils::web::WebProgress>::map<MoreLeaderboards::startLoadingMore()::$_1::operator()(std::__ndk1::basic_string<char, std::__ndk1::char_traits<char>, std::__ndk1::allocator<char> > const&) const::{lambda(geode::utils::web::WebResponse*)#1}, geode::utils::web::WebProgress (*)(geode::utils::web::WebProgress*), void (*)()>(MoreLeaderboards::startLoadingMore()::$_1::operator()(std::__ndk1::basic_string<char, std::__ndk1::char_traits<char>, std::__ndk1::allocator<char> > const&) const::{lambda(geode::utils::web::WebResponse*)#1}&&, geode::utils::web::WebProgress (*&&)(geode::utils::web::WebProgress*), void (*&&)(), std::__ndk1::basic_string_view<char, std::__ndk1::char_traits<char> >) const::{lambda(geode::Task<geode::utils::web::WebResponse, geode::utils::web::WebProgress>::Event*)#1}::~{lambda(geode::Task<geode::utils::web::WebResponse, geode::utils::web::WebProgress>::Event*)#1}()
PUBLIC 9b210 0 _ZN5geode15UnwrapExceptionC2IRNSt6__ndk112basic_stringIcNS2_11char_traitsIcEENS2_9allocatorIcEEEEQsr4implE18IsStringStreamableIT_EEENS_4impl6ErrTagEOSA_
PUBLIC 9b378 0 std::__ndk1::__function::__func<geode::Task<geode::utils::web::WebResponse, geode::utils::web::WebProgress>::map<MoreLeaderboards::startLoadingMore()::$_1::operator()(std::__ndk1::basic_string<char, std::__ndk1::char_traits<char>, std::__ndk1::allocator<char> > const&) const::{lambda(geode::utils::web::WebResponse*)#1}, geode::utils::web::WebProgress (*)(geode::utils::web::WebProgress*), void (*)()>(MoreLeaderboards::startLoadingMore()::$_1::operator()(std::__ndk1::basic_string<char, std::__ndk1::char_traits<char>, std::__ndk1::allocator<char> > const&) const::{lambda(geode::utils::web::WebResponse*)#1}&&, geode::utils::web::WebProgress (*&&)(geode::utils::web::WebProgress*), void (*&&)(), std::__ndk1::basic_string_view<char, std::__ndk1::char_traits<char> >) const::{lambda(geode::Task<geode::utils::web::WebResponse, geode::utils::web::WebProgress>::Event*)#1}, std::__ndk1::allocator<geode::Task<geode::utils::web::WebResponse, geode::utils::web::WebProgress>::map<MoreLeaderboards::startLoadingMore()::$_1::operator()(std::__ndk1::basic_string<char, std::__ndk1::char_traits<char>, std::__ndk1::allocator<char> > const&) const::{lambda(geode::utils::web::WebResponse*)#1}, geode::utils::web::WebProgress (*)(geode::utils::web::WebProgress*), void (*)()>(MoreLeaderboards::startLoadingMore()::$_1::operator()(std::__ndk1::basic_string<char, std::__ndk1::char_traits<char>, std::__ndk1::allocator<char> > const&) const::{lambda(geode::utils::web::WebResponse*)#1}&&, geode::utils::web::WebProgress (*&&)(geode::utils::web::WebProgress*), void (*&&)(), std::__ndk1::basic_string_view<char, std::__ndk1::char_traits<char> >) const::{lambda(geode::Task<geode::utils::web::WebResponse, geode::utils::web::WebProgress>::Event*)#1}>, void (geode::Task<geode::utils::web::WebResponse, geode::utils::web::WebProgress>::Event*)>::~__func()
PUBLIC 9b414 0 std::__ndk1::__function::__func<geode::Task<geode::utils::web::WebResponse, geode::utils::web::WebProgress>::map<MoreLeaderboards::startLoadingMore()::$_1::operator()(std::__ndk1::basic_string<char, std::__ndk1::char_traits<char>, std::__ndk1::allocator<char> > const&) const::{lambda(geode::utils::web::WebResponse*)#1}, geode::utils::web::WebProgress (*)(geode::utils::web::WebProgress*), void (*)()>(MoreLeaderboards::startLoadingMore()::$_1::operator()(std::__ndk1::basic_string<char, std::__ndk1::char_traits<char>, std::__ndk1::allocator<char> > const&) const::{lambda(geode::utils::web::WebResponse*)#1}&&, geode::utils::web::WebProgress (*&&)(geode::utils::web::WebProgress*), void (*&&)(), std::__ndk1::basic_string_view<char, std::__ndk1::char_traits<char> >) const::{lambda(geode::Task<geode::utils::web::WebResponse, geode::utils::web::WebProgress>::Event*)#1}, std::__ndk1::allocator<geode::Task<geode::utils::web::WebResponse, geode::utils::web::WebProgress>::map<MoreLeaderboards::startLoadingMore()::$_1::operator()(std::__ndk1::basic_string<char, std::__ndk1::char_traits<char>, std::__ndk1::allocator<char> > const&) const::{lambda(geode::utils::web::WebResponse*)#1}, geode::utils::web::WebProgress (*)(geode::utils::web::WebProgress*), void (*)()>(MoreLeaderboards::startLoadingMore()::$_1::operator()(std::__ndk1::basic_string<char, std::__ndk1::char_traits<char>, std::__ndk1::allocator<char> > const&) const::{lambda(geode::utils::web::WebResponse*)#1}&&, geode::utils::web::WebProgress (*&&)(geode::utils::web::WebProgress*), void (*&&)(), std::__ndk1::basic_string_view<char, std::__ndk1::char_traits<char> >) const::{lambda(geode::Task<geode::utils::web::WebResponse, geode::utils::web::WebProgress>::Event*)#1}>, void (geode::Task<geode::utils::web::WebResponse, geode::utils::web::WebProgress>::Event*)>::~__func()
PUBLIC 9b4ac 0 std::__ndk1::__function::__func<geode::Task<geode::utils::web::WebResponse, geode::utils::web::WebProgress>::map<MoreLeaderboards::startLoadingMore()::$_1::operator()(std::__ndk1::basic_string<char, std::__ndk1::char_traits<char>, std::__ndk1::allocator<char> > const&) const::{lambda(geode::utils::web::WebResponse*)#1}, geode::utils::web::WebProgress (*)(geode::utils::web::WebProgress*), void (*)()>(MoreLeaderboards::startLoadingMore()::$_1::operator()(std::__ndk1::basic_string<char, std::__ndk1::char_traits<char>, std::__ndk1::allocator<char> > const&) const::{lambda(geode::utils::web::WebResponse*)#1}&&, geode::utils::web::WebProgress (*&&)(geode::utils::web::WebProgress*), void (*&&)(), std::__ndk1::basic_string_view<char, std::__ndk1::char_traits<char> >) const::{lambda(geode::Task<geode::utils::web::WebResponse, geode::utils::web::WebProgress>::Event*)#1}, std::__ndk1::allocator<geode::Task<geode::utils::web::WebResponse, geode::utils::web::WebProgress>::map<MoreLeaderboards::startLoadingMore()::$_1::operator()(std::__ndk1::basic_string<char, std::__ndk1::char_traits<char>, std::__ndk1::allocator<char> > const&) const::{lambda(geode::utils::web::WebResponse*)#1}, geode::utils::web::WebProgress (*)(geode::utils::web::WebProgress*), void (*)()>(MoreLeaderboards::startLoadingMore()::$_1::operator()(std::__ndk1::basic_string<char, std::__ndk1::char_traits<char>, std::__ndk1::allocator<char> > const&) const::{lambda(geode::utils::web::WebResponse*)#1}&&, geode::utils::web::WebProgress (*&&)(geode::utils::web::WebProgress*), void (*&&)(), std::__ndk1::basic_string_view<char, std::__ndk1::char_traits<char> >) const::{lambda(geode::Task<geode::utils::web::WebResponse, geode::utils::web::WebProgress>::Event*)#1}>, void (geode::Task<geode::utils::web::WebResponse, geode::utils::web::WebProgress>::Event*)>::__clone() const
PUBLIC 9b500 0 std::__ndk1::__function::__func<geode::Task<geode::utils::web::WebResponse, geode::utils::web::WebProgress>::map<MoreLeaderboards::startLoadingMore()::$_1::operator()(std::__ndk1::basic_string<char, std::__ndk1::char_traits<char>, std::__ndk1::allocator<char> > const&) const::{lambda(geode::utils::web::WebResponse*)#1}, geode::utils::web::WebProgress (*)(geode::utils::web::WebProgress*), void (*)()>(MoreLeaderboards::startLoadingMore()::$_1::operator()(std::__ndk1::basic_string<char, std::__ndk1::char_traits<char>, std::__ndk1::allocator<char> > const&) const::{lambda(geode::utils::web::WebResponse*)#1}&&, geode::utils::web::WebProgress (*&&)(geode::utils::web::WebProgress*), void (*&&)(), std::__ndk1::basic_string_view<char, std::__ndk1::char_traits<char> >) const::{lambda(geode::Task<geode::utils::web::WebResponse, geode::utils::web::WebProgress>::Event*)#1}, std::__ndk1::allocator<geode::Task<geode::utils::web::WebResponse, geode::utils::web::WebProgress>::map<MoreLeaderboards::startLoadingMore()::$_1::operator()(std::__ndk1::basic_string<char, std::__ndk1::char_traits<char>, std::__ndk1::allocator<char> > const&) const::{lambda(geode::utils::web::WebResponse*)#1}, geode::utils::web::WebProgress (*)(geode::utils::web::WebProgress*), void (*)()>(MoreLeaderboards::startLoadingMore()::$_1::operator()(std::__ndk1::basic_string<char, std::__ndk1::char_traits<char>, std::__ndk1::allocator<char> > const&) const::{lambda(geode::utils::web::WebResponse*)#1}&&, geode::utils::web::WebProgress (*&&)(geode::utils::web::WebProgress*), void (*&&)(), std::__ndk1::basic_string_view<char, std::__ndk1::char_traits<char> >) const::{lambda(geode::Task<geode::utils::web::WebResponse, geode::utils::web::WebProgress>::Event*)#1}>, void (geode::Task<geode::utils::web::WebResponse, geode::utils::web::WebProgress>::Event*)>::__clone(std::__ndk1::__function::__base<void (geode::Task<geode::utils::web::WebResponse, geode::utils::web::WebProgress>::Event*)>*) const
PUBLIC 9b51c 0 std::__ndk1::__function::__func<geode::Task<geode::utils::web::WebResponse, geode::utils::web::WebProgress>::map<MoreLeaderboards::startLoadingMore()::$_1::operator()(std::__ndk1::basic_string<char, std::__ndk1::char_traits<char>, std::__ndk1::allocator<char> > const&) const::{lambda(geode::utils::web::WebResponse*)#1}, geode::utils::web::WebProgress (*)(geode::utils::web::WebProgress*), void (*)()>(MoreLeaderboards::startLoadingMore()::$_1::operator()(std::__ndk1::basic_string<char, std::__ndk1::char_traits<char>, std::__ndk1::allocator<char> > const&) const::{lambda(geode::utils::web::WebResponse*)#1}&&, geode::utils::web::WebProgress (*&&)(geode::utils::web::WebProgress*), void (*&&)(), std::__ndk1::basic_string_view<char, std::__ndk1::char_traits<char> >) const::{lambda(geode::Task<geode::utils::web::WebResponse, geode::utils::web::WebProgress>::Event*)#1}, std::__ndk1::allocator<geode::Task<geode::utils::web::WebResponse, geode::utils::web::WebProgress>::map<MoreLeaderboards::startLoadingMore()::$_1::operator()(std::__ndk1::basic_string<char, std::__ndk1::char_traits<char>, std::__ndk1::allocator<char> > const&) const::{lambda(geode::utils::web::WebResponse*)#1}, geode::utils::web::WebProgress (*)(geode::utils::web::WebProgress*), void (*)()>(MoreLeaderboards::startLoadingMore()::$_1::operator()(std::__ndk1::basic_string<char, std::__ndk1::char_traits<char>, std::__ndk1::allocator<char> > const&) const::{lambda(geode::utils::web::WebResponse*)#1}&&, geode::utils::web::WebProgress (*&&)(geode::utils::web::WebProgress*), void (*&&)(), std::__ndk1::basic_string_view<char, std::__ndk1::char_traits<char> >) const::{lambda(geode::Task<geode::utils::web::WebResponse, geode::utils::web::WebProgress>::Event*)#1}>, void (geode::Task<geode::utils::web::WebResponse, geode::utils::web::WebProgress>::Event*)>::destroy()
PUBLIC 9b5ac 0 std::__ndk1::__function::__func<geode::Task<geode::utils::web::WebResponse, geode::utils::web::WebProgress>::map<MoreLeaderboards::startLoadingMore()::$_1::operator()(std::__ndk1::basic_string<char, std::__ndk1::char_traits<char>, std::__ndk1::allocator<char> > const&) const::{lambda(geode::utils::web::WebResponse*)#1}, geode::utils::web::WebProgress (*)(geode::utils::web::WebProgress*), void (*)()>(MoreLeaderboards::startLoadingMore()::$_1::operator()(std::__ndk1::basic_string<char, std::__ndk1::char_traits<char>, std::__ndk1::allocator<char> > const&) const::{lambda(geode::utils::web::WebResponse*)#1}&&, geode::utils::web::WebProgress (*&&)(geode::utils::web::WebProgress*), void (*&&)(), std::__ndk1::basic_string_view<char, std::__ndk1::char_traits<char> >) const::{lambda(geode::Task<geode::utils::web::WebResponse, geode::utils::web::WebProgress>::Event*)#1}, std::__ndk1::allocator<geode::Task<geode::utils::web::WebResponse, geode::utils::web::WebProgress>::map<MoreLeaderboards::startLoadingMore()::$_1::operator()(std::__ndk1::basic_string<char, std::__ndk1::char_traits<char>, std::__ndk1::allocator<char> > const&) const::{lambda(geode::utils::web::WebResponse*)#1}, geode::utils::web::WebProgress (*)(geode::utils::web::WebProgress*), void (*)()>(MoreLeaderboards::startLoadingMore()::$_1::operator()(std::__ndk1::basic_string<char, std::__ndk1::char_traits<char>, std::__ndk1::allocator<char> > const&) const::{lambda(geode::utils::web::WebResponse*)#1}&&, geode::utils::web::WebProgress (*&&)(geode::utils::web::WebProgress*), void (*&&)(), std::__ndk1::basic_string_view<char, std::__ndk1::char_traits<char> >) const::{lambda(geode::Task<geode::utils::web::WebResponse, geode::utils::web::WebProgress>::Event*)#1}>, void (geode::Task<geode::utils::web::WebResponse, geode::utils::web::WebProgress>::Event*)>::destroy_deallocate()
PUBLIC 9b638 0 std::__ndk1::__function::__func<geode::Task<geode::utils::web::WebResponse, geode::utils::web::WebProgress>::map<MoreLeaderboards::startLoadingMore()::$_1::operator()(std::__ndk1::basic_string<char, std::__ndk1::char_traits<char>, std::__ndk1::allocator<char> > const&) const::{lambda(geode::utils::web::WebResponse*)#1}, geode::utils::web::WebProgress (*)(geode::utils::web::WebProgress*), void (*)()>(MoreLeaderboards::startLoadingMore()::$_1::operator()(std::__ndk1::basic_string<char, std::__ndk1::char_traits<char>, std::__ndk1::allocator<char> > const&) const::{lambda(geode::utils::web::WebResponse*)#1}&&, geode::utils::web::WebProgress (*&&)(geode::utils::web::WebProgress*), void (*&&)(), std::__ndk1::basic_string_view<char, std::__ndk1::char_traits<char> >) const::{lambda(geode::Task<geode::utils::web::WebResponse, geode::utils::web::WebProgress>::Event*)#1}, std::__ndk1::allocator<geode::Task<geode::utils::web::WebResponse, geode::utils::web::WebProgress>::map<MoreLeaderboards::startLoadingMore()::$_1::operator()(std::__ndk1::basic_string<char, std::__ndk1::char_traits<char>, std::__ndk1::allocator<char> > const&) const::{lambda(geode::utils::web::WebResponse*)#1}, geode::utils::web::WebProgress (*)(geode::utils::web::WebProgress*), void (*)()>(MoreLeaderboards::startLoadingMore()::$_1::operator()(std::__ndk1::basic_string<char, std::__ndk1::char_traits<char>, std::__ndk1::allocator<char> > const&) const::{lambda(geode::utils::web::WebResponse*)#1}&&, geode::utils::web::WebProgress (*&&)(geode::utils::web::WebProgress*), void (*&&)(), std::__ndk1::basic_string_view<char, std::__ndk1::char_traits<char> >) const::{lambda(geode::Task<geode::utils::web::WebResponse, geode::utils::web::WebProgress>::Event*)#1}>, void (geode::Task<geode::utils::web::WebResponse, geode::utils::web::WebProgress>::Event*)>::operator()(geode::Task<geode::utils::web::WebResponse, geode::utils::web::WebProgress>::Event*&&)
PUBLIC 9b80c 0 std::__ndk1::__function::__func<geode::Task<geode::utils::web::WebResponse, geode::utils::web::WebProgress>::map<MoreLeaderboards::startLoadingMore()::$_1::operator()(std::__ndk1::basic_string<char, std::__ndk1::char_traits<char>, std::__ndk1::allocator<char> > const&) const::{lambda(geode::utils::web::WebResponse*)#1}, geode::utils::web::WebProgress (*)(geode::utils::web::WebProgress*), void (*)()>(MoreLeaderboards::startLoadingMore()::$_1::operator()(std::__ndk1::basic_string<char, std::__ndk1::char_traits<char>, std::__ndk1::allocator<char> > const&) const::{lambda(geode::utils::web::WebResponse*)#1}&&, geode::utils::web::WebProgress (*&&)(geode::utils::web::WebProgress*), void (*&&)(), std::__ndk1::basic_string_view<char, std::__ndk1::char_traits<char> >) const::{lambda(geode::Task<geode::utils::web::WebResponse, geode::utils::web::WebProgress>::Event*)#1}, std::__ndk1::allocator<geode::Task<geode::utils::web::WebResponse, geode::utils::web::WebProgress>::map<MoreLeaderboards::startLoadingMore()::$_1::operator()(std::__ndk1::basic_string<char, std::__ndk1::char_traits<char>, std::__ndk1::allocator<char> > const&) const::{lambda(geode::utils::web::WebResponse*)#1}, geode::utils::web::WebProgress (*)(geode::utils::web::WebProgress*), void (*)()>(MoreLeaderboards::startLoadingMore()::$_1::operator()(std::__ndk1::basic_string<char, std::__ndk1::char_traits<char>, std::__ndk1::allocator<char> > const&) const::{lambda(geode::utils::web::WebResponse*)#1}&&, geode::utils::web::WebProgress (*&&)(geode::utils::web::WebProgress*), void (*&&)(), std::__ndk1::basic_string_view<char, std::__ndk1::char_traits<char> >) const::{lambda(geode::Task<geode::utils::web::WebResponse, geode::utils::web::WebProgress>::Event*)#1}>, void (geode::Task<geode::utils::web::WebResponse, geode::utils::web::WebProgress>::Event*)>::target(std::type_info const&) const
PUBLIC 9b828 0 std::__ndk1::__function::__func<geode::Task<geode::utils::web::WebResponse, geode::utils::web::WebProgress>::map<MoreLeaderboards::startLoadingMore()::$_1::operator()(std::__ndk1::basic_string<char, std::__ndk1::char_traits<char>, std::__ndk1::allocator<char> > const&) const::{lambda(geode::utils::web::WebResponse*)#1}, geode::utils::web::WebProgress (*)(geode::utils::web::WebProgress*), void (*)()>(MoreLeaderboards::startLoadingMore()::$_1::operator()(std::__ndk1::basic_string<char, std::__ndk1::char_traits<char>, std::__ndk1::allocator<char> > const&) const::{lambda(geode::utils::web::WebResponse*)#1}&&, geode::utils::web::WebProgress (*&&)(geode::utils::web::WebProgress*), void (*&&)(), std::__ndk1::basic_string_view<char, std::__ndk1::char_traits<char> >) const::{lambda(geode::Task<geode::utils::web::WebResponse, geode::utils::web::WebProgress>::Event*)#1}, std::__ndk1::allocator<geode::Task<geode::utils::web::WebResponse, geode::utils::web::WebProgress>::map<MoreLeaderboards::startLoadingMore()::$_1::operator()(std::__ndk1::basic_string<char, std::__ndk1::char_traits<char>, std::__ndk1::allocator<char> > const&) const::{lambda(geode::utils::web::WebResponse*)#1}, geode::utils::web::WebProgress (*)(geode::utils::web::WebProgress*), void (*)()>(MoreLeaderboards::startLoadingMore()::$_1::operator()(std::__ndk1::basic_string<char, std::__ndk1::char_traits<char>, std::__ndk1::allocator<char> > const&) const::{lambda(geode::utils::web::WebResponse*)#1}&&, geode::utils::web::WebProgress (*&&)(geode::utils::web::WebProgress*), void (*&&)(), std::__ndk1::basic_string_view<char, std::__ndk1::char_traits<char> >) const::{lambda(geode::Task<geode::utils::web::WebResponse, geode::utils::web::WebProgress>::Event*)#1}>, void (geode::Task<geode::utils::web::WebResponse, geode::utils::web::WebProgress>::Event*)>::target_type() const
PUBLIC 9b834 0 std::__ndk1::__compressed_pair_elem<geode::Task<geode::utils::web::WebResponse, geode::utils::web::WebProgress>::map<MoreLeaderboards::startLoadingMore()::$_1::operator()(std::__ndk1::basic_string<char, std::__ndk1::char_traits<char>, std::__ndk1::allocator<char> > const&) const::{lambda(geode::utils::web::WebResponse*)#1}, geode::utils::web::WebProgress (*)(geode::utils::web::WebProgress*), void (*)()>(MoreLeaderboards::startLoadingMore()::$_1::operator()(std::__ndk1::basic_string<char, std::__ndk1::char_traits<char>, std::__ndk1::allocator<char> > const&) const::{lambda(geode::utils::web::WebResponse*)#1}&&, geode::utils::web::WebProgress (*&&)(geode::utils::web::WebProgress*), void (*&&)(), std::__ndk1::basic_string_view<char, std::__ndk1::char_traits<char> >) const::{lambda(geode::Task<geode::utils::web::WebResponse, geode::utils::web::WebProgress>::Event*)#1}, 0, false>::__compressed_pair_elem[abi:ne180000]<geode::Task<geode::utils::web::WebResponse, geode::utils::web::WebProgress>::map<MoreLeaderboards::startLoadingMore()::$_1::operator()(std::__ndk1::basic_string<char, std::__ndk1::char_traits<char>, std::__ndk1::allocator<char> > const&) const::{lambda(geode::utils::web::WebResponse*)#1}, geode::utils::web::WebProgress (*)(geode::utils::web::WebProgress*), void (*)()>(MoreLeaderboards::startLoadingMore()::$_1::operator()(std::__ndk1::basic_string<char, std::__ndk1::char_traits<char>, std::__ndk1::allocator<char> > const&) const::{lambda(geode::utils::web::WebResponse*)#1}&&, geode::utils::web::WebProgress (*&&)(geode::utils::web::WebProgress*), void (*&&)(), std::__ndk1::basic_string_view<char, std::__ndk1::char_traits<char> >) const::{lambda(geode::Task<geode::utils::web::WebResponse, geode::utils::web::WebProgress>::Event*)#1} const&, (unsigned long)0>(std::__ndk1::tuple<geode::Task<geode::utils::web::WebResponse, geode::utils::web::WebProgress>::map<MoreLeaderboards::startLoadingMore()::$_1::operator()(std::__ndk1::basic_string<char, std::__ndk1::char_traits<char>, std::__ndk1::allocator<char> > const&) const::{lambda(geode::utils::web::WebResponse*)#1}, geode::utils::web::WebProgress (*)(geode::utils::web::WebProgress*), void (*)()>(MoreLeaderboards::startLoadingMore()::$_1::operator()(std::__ndk1::basic_string<char, std::__ndk1::char_traits<char>, std::__ndk1::allocator<char> > const&) const::{lambda(geode::utils::web::WebResponse*)#1}&&, geode::utils::web::WebProgress (*&&)(geode::utils::web::WebProgress*), void (*&&)(), std::__ndk1::basic_string_view<char, std::__ndk1::char_traits<char> >) const::{lambda(geode::Task<geode::utils::web::WebResponse, geode::utils::web::WebProgress>::Event*)#1} const&>, std::__ndk1::__tuple_indices<((unsigned long)0)...>)
PUBLIC 9b97c 0 geode::Task<geode::utils::web::WebResponse, geode::utils::web::WebProgress>::map<MoreLeaderboards::startLoadingMore()::$_1::operator()(std::__ndk1::basic_string<char, std::__ndk1::char_traits<char>, std::__ndk1::allocator<char> > const&) const::{lambda(geode::utils::web::WebResponse*)#1}, geode::utils::web::WebProgress (*)(geode::utils::web::WebProgress*), void (*)()>(MoreLeaderboards::startLoadingMore()::$_1::operator()(std::__ndk1::basic_string<char, std::__ndk1::char_traits<char>, std::__ndk1::allocator<char> > const&) const::{lambda(geode::utils::web::WebResponse*)#1}&&, geode::utils::web::WebProgress (*&&)(geode::utils::web::WebProgress*), void (*&&)(), std::__ndk1::basic_string_view<char, std::__ndk1::char_traits<char> >) const::{lambda(void*)#1}::__invoke(void*)
PUBLIC 9b990 0 geode::Task<geode::utils::web::WebResponse, geode::utils::web::WebProgress>::map<MoreLeaderboards::startLoadingMore()::$_1::operator()(std::__ndk1::basic_string<char, std::__ndk1::char_traits<char>, std::__ndk1::allocator<char> > const&) const::{lambda(geode::utils::web::WebResponse*)#1}, geode::utils::web::WebProgress (*)(geode::utils::web::WebProgress*), void (*)()>(MoreLeaderboards::startLoadingMore()::$_1::operator()(std::__ndk1::basic_string<char, std::__ndk1::char_traits<char>, std::__ndk1::allocator<char> > const&) const::{lambda(geode::utils::web::WebResponse*)#1}&&, geode::utils::web::WebProgress (*&&)(geode::utils::web::WebProgress*), void (*&&)(), std::__ndk1::basic_string_view<char, std::__ndk1::char_traits<char> >) const::{lambda(void*)#2}::__invoke(void*)
PUBLIC 9ba48 0 geode::Task<geode::utils::web::WebResponse, geode::utils::web::WebProgress>::map<MoreLeaderboards::startLoadingMore()::$_1::operator()(std::__ndk1::basic_string<char, std::__ndk1::char_traits<char>, std::__ndk1::allocator<char> > const&) const::{lambda(geode::utils::web::WebResponse*)#1}, geode::utils::web::WebProgress (*)(geode::utils::web::WebProgress*)>(MoreLeaderboards::startLoadingMore()::$_1::operator()(std::__ndk1::basic_string<char, std::__ndk1::char_traits<char>, std::__ndk1::allocator<char> > const&) const::{lambda(geode::utils::web::WebResponse*)#1}&&, geode::utils::web::WebProgress (*&&)(geode::utils::web::WebProgress*), std::__ndk1::basic_string_view<char, std::__ndk1::char_traits<char> >) const::{lambda()#1}::__invoke()
PUBLIC 9ba4c 0 _ZZNK5geode4TaskINS_5utils3web11WebResponseENS2_11WebProgressEE3mapIZZN16MoreLeaderboards16startLoadingMoreEvENK3$_1clERKNSt6__ndk112basic_stringIcNS9_11char_traitsIcEENS9_9allocatorIcEEEEEUlPS3_E_Qsr3stdE18copy_constructibleIT0_EEEDaOT_NS9_17basic_string_viewIcSC_EEENUlPS4_E_8__invokeESP_
PUBLIC 9ba74 0 std::__ndk1::__function::__value_func<void (geode::Task<geode::utils::web::WebResponse, geode::utils::web::WebProgress>::Event*)>::swap[abi:ne180000](std::__ndk1::__function::__value_func<void (geode::Task<geode::utils::web::WebResponse, geode::utils::web::WebProgress>::Event*)>&)
PUBLIC 9bc0c 0 std::__ndk1::__function::__func<MoreLeaderboards::startLoadingMore()::$_2, std::__ndk1::allocator<MoreLeaderboards::startLoadingMore()::$_2>, void (geode::Task<geode::utils::web::WebResponse, geode::utils::web::WebProgress>::Event*)>::~__func()
PUBLIC 9bcac 0 std::__ndk1::__function::__func<MoreLeaderboards::startLoadingMore()::$_2, std::__ndk1::allocator<MoreLeaderboards::startLoadingMore()::$_2>, void (geode::Task<geode::utils::web::WebResponse, geode::utils::web::WebProgress>::Event*)>::~__func()
PUBLIC 9bd38 0 std::__ndk1::__function::__func<MoreLeaderboards::startLoadingMore()::$_2, std::__ndk1::allocator<MoreLeaderboards::startLoadingMore()::$_2>, void (geode::Task<geode::utils::web::WebResponse, geode::utils::web::WebProgress>::Event*)>::__clone() const
PUBLIC 9be5c 0 std::__ndk1::__function::__func<MoreLeaderboards::startLoadingMore()::$_2, std::__ndk1::allocator<MoreLeaderboards::startLoadingMore()::$_2>, void (geode::Task<geode::utils::web::WebResponse, geode::utils::web::WebProgress>::Event*)>::__clone(std::__ndk1::__function::__base<void (geode::Task<geode::utils::web::WebResponse, geode::utils::web::WebProgress>::Event*)>*) const
PUBLIC 9bf74 0 std::__ndk1::__function::__func<MoreLeaderboards::startLoadingMore()::$_2, std::__ndk1::allocator<MoreLeaderboards::startLoadingMore()::$_2>, void (geode::Task<geode::utils::web::WebResponse, geode::utils::web::WebProgress>::Event*)>::destroy()
PUBLIC 9c008 0 std::__ndk1::__function::__func<MoreLeaderboards::startLoadingMore()::$_2, std::__ndk1::allocator<MoreLeaderboards::startLoadingMore()::$_2>, void (geode::Task<geode::utils::web::WebResponse, geode::utils::web::WebProgress>::Event*)>::destroy_deallocate()
PUBLIC 9c088 0 std::__ndk1::__function::__func<MoreLeaderboards::startLoadingMore()::$_2, std::__ndk1::allocator<MoreLeaderboards::startLoadingMore()::$_2>, void (geode::Task<geode::utils::web::WebResponse, geode::utils::web::WebProgress>::Event*)>::operator()(geode::Task<geode::utils::web::WebResponse, geode::utils::web::WebProgress>::Event*&&)
PUBLIC 9c288 0 std::__ndk1::__function::__func<MoreLeaderboards::startLoadingMore()::$_2, std::__ndk1::allocator<MoreLeaderboards::startLoadingMore()::$_2>, void (geode::Task<geode::utils::web::WebResponse, geode::utils::web::WebProgress>::Event*)>::target(std::type_info const&) const
PUBLIC 9c2a4 0 std::__ndk1::__function::__func<MoreLeaderboards::startLoadingMore()::$_2, std::__ndk1::allocator<MoreLeaderboards::startLoadingMore()::$_2>, void (geode::Task<geode::utils::web::WebResponse, geode::utils::web::WebProgress>::Event*)>::target_type() const
PUBLIC 9c2b0 0 geode::modifier::ModifyDerive<hook1290<(anonymous namespace)::hook1290Parent>, LeaderboardsLayer>::apply()
PUBLIC 9c630 0 geode::modifier::ModifyBase<geode::modifier::ModifyDerive<hook1290<(anonymous namespace)::hook1290Parent>, LeaderboardsLayer> >::apply()
PUBLIC 9c634 0 geode::modifier::AsStaticFunction_init<hook1290<(anonymous namespace)::hook1290Parent>, bool (hook1290<(anonymous namespace)::hook1290Parent>::*)(LeaderboardState)>::Impl<bool (hook1290<(anonymous namespace)::hook1290Parent>::*)(LeaderboardState)>::function(hook1290<(anonymous namespace)::hook1290Parent>*, LeaderboardState)
PUBLIC 9c76c 0 MoreLeaderboardsCell::loadFromDict(cocos2d::CCDictionary*)
PUBLIC 9d53c 0 MoreLeaderboardsCell::callback_link(cocos2d::CCObject*)
PUBLIC 9d660 0 MoreLeaderboardsCell::callback_user(cocos2d::CCObject*)
PUBLIC 9d9fc 0 MoreLeaderboardsCell::~MoreLeaderboardsCell()
PUBLIC 9da60 0 {virtual override thunk({offset(-320)}, MoreLeaderboardsCell::~MoreLeaderboardsCell())}
PUBLIC 9dac0 0 {virtual override thunk({offset(-320)}, MoreLeaderboardsCell::~MoreLeaderboardsCell())}
PUBLIC 9db28 0 std::__ndk1::vector<std::__ndk1::basic_string<char, std::__ndk1::char_traits<char>, std::__ndk1::allocator<char> >, std::__ndk1::allocator<std::__ndk1::basic_string<char, std::__ndk1::char_traits<char>, std::__ndk1::allocator<char> > > >::__init_with_size[abi:ne180000]<std::__ndk1::basic_string<char, std::__ndk1::char_traits<char>, std::__ndk1::allocator<char> >*, std::__ndk1::vector<std::__ndk1::basic_string<char, std::__ndk1::char_traits<char>, std::__ndk1::allocator<char> >, std::__ndk1::allocator<std::__ndk1::basic_string<char, std::__ndk1::char_traits<char>, std::__ndk1::allocator<char> > > >::__init_with_size[abi:ne180000]>(std::__ndk1::basic_string<char, std::__ndk1::char_traits<char>, std::__ndk1::allocator<char> >*, std::__ndk1::vector<std::__ndk1::basic_string<char, std::__ndk1::char_traits<char>, std::__ndk1::allocator<char> >, std::__ndk1::allocator<std::__ndk1::basic_string<char, std::__ndk1::char_traits<char>, std::__ndk1::allocator<char> > > >::__init_with_size[abi:ne180000], unsigned long)
PUBLIC 9dc94 0 std::__ndk1::__exception_guard_exceptions<std::__ndk1::vector<std::__ndk1::basic_string<char, std::__ndk1::char_traits<char>, std::__ndk1::allocator<char> >, std::__ndk1::allocator<std::__ndk1::basic_string<char, std::__ndk1::char_traits<char>, std::__ndk1::allocator<char> > > >::__destroy_vector>::~__exception_guard_exceptions[abi:ne180000]()
PUBLIC 9dd20 0 std::__ndk1::__exception_guard_exceptions<std::__ndk1::_AllocatorDestroyRangeReverse<std::__ndk1::allocator<std::__ndk1::basic_string<char, std::__ndk1::char_traits<char>, std::__ndk1::allocator<char> > >, std::__ndk1::basic_string<char, std::__ndk1::char_traits<char>, std::__ndk1::allocator<char> >*> >::~__exception_guard_exceptions[abi:ne180000]()
PUBLIC 9dd80 0 TableViewCell::~TableViewCell()
PUBLIC 9dddc 0 TableViewCell::~TableViewCell()
PUBLIC 9de40 0 {virtual override thunk({offset(-320)}, TableViewCell::~TableViewCell())}
PUBLIC 9dea0 0 {virtual override thunk({offset(-320)}, TableViewCell::~TableViewCell())}
PUBLIC 9df08 0 MoreLeaderboardsListView::setupList(float)
PUBLIC 9e34c 0 MoreLeaderboardsListView::loadCell(TableViewCell*, int)
PUBLIC 9e38c 0 MoreLeaderboardsListView::getListCell(char const*)
PUBLIC 9e458 0 MoreLeaderboardsListView::~MoreLeaderboardsListView()
PUBLIC 9e4c8 0 {virtual override thunk({offset(-320)}, MoreLeaderboardsListView::~MoreLeaderboardsListView())}
PUBLIC 9e534 0 {virtual override thunk({offset(-320)}, MoreLeaderboardsListView::~MoreLeaderboardsListView())}
PUBLIC 9e5a8 0 NewTabButton::create(geode::TabBaseColor, geode::TabBaseColor, cocos2d::CCNode*, cocos2d::CCObject*, void (cocos2d::CCObject::*)(cocos2d::CCObject*))
PUBLIC 9e82c 0 NewBasedButtonSprite::getMaxTopSize() const
PUBLIC 9e840 0 NewBasedButtonSprite::init(cocos2d::CCNode*, geode::BaseType, int, int)
PUBLIC 9ec3c 0 cocos2d::CCSprite::setBlendFunc(cocos2d::_ccBlendFunc)
PUBLIC 9ec48 0 cocos2d::CCSprite::getBlendFunc()
PUBLIC 9ec54 0 cocos2d::CCSprite::isDirty()
PUBLIC 9ec5c 0 cocos2d::CCSprite::setDirty(bool)
PUBLIC 9ec64 0 {virtual override thunk({offset(-344)}, cocos2d::CCSprite::setBlendFunc(cocos2d::_ccBlendFunc))}
PUBLIC 9ec6c 0 {virtual override thunk({offset(-344)}, cocos2d::CCSprite::getBlendFunc())}
PUBLIC 9ec74 0 NewTabButton::~NewTabButton()
PUBLIC 9ec98 0 cocos2d::CCNodeRGBA::setOpacityModifyRGB(bool)
PUBLIC 9ec9c 0 cocos2d::CCNodeRGBA::isOpacityModifyRGB()
PUBLIC 9eca4 0 {virtual override thunk({offset(-320)}, cocos2d::CCNodeRGBA::setOpacityModifyRGB(bool))}
PUBLIC 9eca8 0 {virtual override thunk({offset(-320)}, cocos2d::CCNodeRGBA::isOpacityModifyRGB())}
PUBLIC 9ecb0 0 NewBasedButtonSprite::~NewBasedButtonSprite()
PUBLIC 9ecb4 0 NewTabButtonSprite::~NewTabButtonSprite()
PUBLIC 9ecd8 0 SelectRegion::getWords(std::__ndk1::basic_string<char, std::__ndk1::char_traits<char>, std::__ndk1::allocator<char> >, std::__ndk1::basic_string<char, std::__ndk1::char_traits<char>, std::__ndk1::allocator<char> >)
PUBLIC 9f080 0 SelectRegion::scene(std::__ndk1::function<void (int)> const&)
PUBLIC 9f244 0 SelectRegion::setup()
PUBLIC 9f57c 0 SelectRegion::~SelectRegion()
PUBLIC 9f654 0 SelectRegion::~SelectRegion()
PUBLIC 9f734 0 geode::Popup<>::registerWithTouchDispatcher()
PUBLIC 9f760 0 geode::Popup<>::keyDown(cocos2d::enumKeyCodes)
PUBLIC 9f788 0 geode::Popup<>::onClose(cocos2d::CCObject*)
PUBLIC 9f8d0 0 {virtual override thunk({offset(-320)}, SelectRegion::~SelectRegion())}
PUBLIC 9f9ac 0 {virtual override thunk({offset(-320)}, SelectRegion::~SelectRegion())}
PUBLIC 9fa90 0 {virtual override thunk({offset(-344)}, geode::Popup<>::keyDown(cocos2d::enumKeyCodes))}
PUBLIC 9fabc 0 geode::Popup<>::~Popup()
PUBLIC 9fb28 0 geode::Popup<>::~Popup()
PUBLIC 9fb2c 0 {virtual override thunk({offset(-320)}, geode::Popup<>::~Popup())}
PUBLIC 9fb98 0 {virtual override thunk({offset(-320)}, geode::Popup<>::~Popup())}
PUBLIC 9fb9c 0 geode::Popup<>::initBase(float, float, char const*, cocos2d::CCRect, bool)
PUBLIC 9fea4 0 std::__ndk1::__function::__func<SelectRegion::loadPage()::$_0, std::__ndk1::allocator<SelectRegion::loadPage()::$_0>, void (int)>::~__func()
PUBLIC 9fea8 0 std::__ndk1::__function::__func<SelectRegion::loadPage()::$_0, std::__ndk1::allocator<SelectRegion::loadPage()::$_0>, void (int)>::__clone() const
PUBLIC 9fedc 0 std::__ndk1::__function::__func<SelectRegion::loadPage()::$_0, std::__ndk1::allocator<SelectRegion::loadPage()::$_0>, void (int)>::__clone(std::__ndk1::__function::__base<void (int)>*) const
PUBLIC 9fef0 0 std::__ndk1::__function::__func<SelectRegion::loadPage()::$_0, std::__ndk1::allocator<SelectRegion::loadPage()::$_0>, void (int)>::destroy()
PUBLIC 9fef4 0 std::__ndk1::__function::__func<SelectRegion::loadPage()::$_0, std::__ndk1::allocator<SelectRegion::loadPage()::$_0>, void (int)>::destroy_deallocate()
PUBLIC 9fef8 0 std::__ndk1::__function::__func<SelectRegion::loadPage()::$_0, std::__ndk1::allocator<SelectRegion::loadPage()::$_0>, void (int)>::operator()(int&&)
PUBLIC 9ff80 0 std::__ndk1::__function::__func<SelectRegion::loadPage()::$_0, std::__ndk1::allocator<SelectRegion::loadPage()::$_0>, void (int)>::target(std::type_info const&) const
PUBLIC 9ff9c 0 std::__ndk1::__function::__func<SelectRegion::loadPage()::$_0, std::__ndk1::allocator<SelectRegion::loadPage()::$_0>, void (int)>::target_type() const
PUBLIC 9ffa8 0 geode::Popup<>::CloseEvent::~CloseEvent()
PUBLIC a0008 0 geode::Popup<>::CloseEvent::~CloseEvent()
PUBLIC a0078 0 std::__ndk1::__shared_ptr_emplace<geode::Popup<>::CloseEvent::Impl, std::__ndk1::allocator<geode::Popup<>::CloseEvent::Impl> >::~__shared_ptr_emplace()
PUBLIC a0088 0 std::__ndk1::__shared_ptr_emplace<geode::Popup<>::CloseEvent::Impl, std::__ndk1::allocator<geode::Popup<>::CloseEvent::Impl> >::~__shared_ptr_emplace()
PUBLIC a00b8 0 std::__ndk1::__shared_ptr_emplace<geode::Popup<>::CloseEvent::Impl, std::__ndk1::allocator<geode::Popup<>::CloseEvent::Impl> >::__on_zero_shared()
PUBLIC a00bc 0 std::__ndk1::__shared_ptr_emplace<geode::Popup<>::CloseEvent::Impl, std::__ndk1::allocator<geode::Popup<>::CloseEvent::Impl> >::__on_zero_shared_weak()
PUBLIC a00c0 0 _GLOBAL__sub_I_SelectRegion.cpp
PUBLIC a011c 0 SelectRegionCell::init(std::__ndk1::basic_string<char, std::__ndk1::char_traits<char>, std::__ndk1::allocator<char> >)
PUBLIC a0e50 0 SelectRegionCell::onClick(cocos2d::CCObject*)
PUBLIC a0ecc 0 SelectRegionCell::create(std::__ndk1::basic_string<char, std::__ndk1::char_traits<char>, std::__ndk1::allocator<char> >, std::__ndk1::function<void (int)> const&)
PUBLIC a102c 0 SelectRegionCell::~SelectRegionCell()
PUBLIC a10a8 0 SelectRegionCell::~SelectRegionCell()
PUBLIC a112c 0 {virtual override thunk({offset(-320)}, SelectRegionCell::~SelectRegionCell())}
PUBLIC a11ac 0 {virtual override thunk({offset(-320)}, SelectRegionCell::~SelectRegionCell())}
PUBLIC a1234 0 DailyChest::rewardsStatusFinished(int)
PUBLIC a263c 0 std::__ndk1::shared_ptr<sio::message>::~shared_ptr[abi:ne180000]()
PUBLIC a268c 0 {virtual override thunk({offset(-320)}, DailyChest::rewardsStatusFinished(int))}
PUBLIC a2690 0 DailyChest::rewardsStatusFailed()
PUBLIC a2708 0 {virtual override thunk({offset(-320)}, DailyChest::rewardsStatusFailed())}
PUBLIC a2780 0 DailyChest::~DailyChest()
PUBLIC a27a4 0 sio::object_message::~object_message()
PUBLIC a27c0 0 sio::object_message::~object_message()
PUBLIC a27f4 0 sio::message::get_bool() const
PUBLIC a27fc 0 sio::message::get_int() const
PUBLIC a2804 0 sio::message::get_double() const
PUBLIC a280c 0 sio::message::get_string() const
PUBLIC a28a4 0 sio::message::get_binary() const
PUBLIC a2960 0 sio::message::get_vector() const
PUBLIC a2a24 0 sio::message::get_vector()
PUBLIC a2ae8 0 sio::object_message::get_map() const
PUBLIC a2af0 0 sio::object_message::get_map()
PUBLIC a2af8 0 sio::message::get_map() const
PUBLIC a2b90 0 sio::message::get_map()
PUBLIC a2c28 0 std::__ndk1::map<std::__ndk1::basic_string<char, std::__ndk1::char_traits<char>, std::__ndk1::allocator<char> >, std::__ndk1::shared_ptr<sio::message>, std::__ndk1::less<std::__ndk1::basic_string<char, std::__ndk1::char_traits<char>, std::__ndk1::allocator<char> > >, std::__ndk1::allocator<std::__ndk1::pair<std::__ndk1::basic_string<char, std::__ndk1::char_traits<char>, std::__ndk1::allocator<char> > const, std::__ndk1::shared_ptr<sio::message> > > >::~map[abi:ne180000]()
PUBLIC a2c30 0 std::__ndk1::__tree<std::__ndk1::__value_type<std::__ndk1::basic_string<char, std::__ndk1::char_traits<char>, std::__ndk1::allocator<char> >, std::__ndk1::shared_ptr<sio::message> >, std::__ndk1::__map_value_compare<std::__ndk1::basic_string<char, std::__ndk1::char_traits<char>, std::__ndk1::allocator<char> >, std::__ndk1::__value_type<std::__ndk1::basic_string<char, std::__ndk1::char_traits<char>, std::__ndk1::allocator<char> >, std::__ndk1::shared_ptr<sio::message> >, std::__ndk1::less<std::__ndk1::basic_string<char, std::__ndk1::char_traits<char>, std::__ndk1::allocator<char> > >, true>, std::__ndk1::allocator<std::__ndk1::__value_type<std::__ndk1::basic_string<char, std::__ndk1::char_traits<char>, std::__ndk1::allocator<char> >, std::__ndk1::shared_ptr<sio::message> > > >::destroy(std::__ndk1::__tree_node<std::__ndk1::__value_type<std::__ndk1::basic_string<char, std::__ndk1::char_traits<char>, std::__ndk1::allocator<char> >, std::__ndk1::shared_ptr<sio::message> >, void*>*)
PUBLIC a2cbc 0 std::__ndk1::shared_ptr<std::__ndk1::basic_string<char, std::__ndk1::char_traits<char>, std::__ndk1::allocator<char> > const>::~shared_ptr[abi:ne180000]()
PUBLIC a2d0c 0 std::__ndk1::vector<std::__ndk1::shared_ptr<sio::message>, std::__ndk1::allocator<std::__ndk1::shared_ptr<sio::message> > >::~vector[abi:ne180000]()
PUBLIC a2db4 0 std::__ndk1::__shared_ptr_pointer<sio::object_message*, std::__ndk1::shared_ptr<sio::message>::__shared_ptr_default_delete<sio::message, sio::object_message>, std::__ndk1::allocator<sio::object_message> >::~__shared_ptr_pointer()
PUBLIC a2dd8 0 std::__ndk1::__shared_ptr_pointer<sio::object_message*, std::__ndk1::shared_ptr<sio::message>::__shared_ptr_default_delete<sio::message, sio::object_message>, std::__ndk1::allocator<sio::object_message> >::__on_zero_shared()
PUBLIC a2df0 0 std::__ndk1::__shared_ptr_pointer<sio::object_message*, std::__ndk1::shared_ptr<sio::message>::__shared_ptr_default_delete<sio::message, sio::object_message>, std::__ndk1::allocator<sio::object_message> >::__get_deleter(std::type_info const&) const
PUBLIC a2e0c 0 std::__ndk1::__shared_ptr_pointer<sio::object_message*, std::__ndk1::shared_ptr<sio::message>::__shared_ptr_default_delete<sio::message, sio::object_message>, std::__ndk1::allocator<sio::object_message> >::__on_zero_shared_weak()
PUBLIC a2e10 0 sio::string_message::~string_message()
PUBLIC a2e30 0 sio::string_message::~string_message()
PUBLIC a2e70 0 sio::string_message::get_string() const
PUBLIC a2e78 0 std::__ndk1::__shared_ptr_pointer<sio::string_message*, std::__ndk1::shared_ptr<sio::message>::__shared_ptr_default_delete<sio::message, sio::string_message>, std::__ndk1::allocator<sio::string_message> >::~__shared_ptr_pointer()
PUBLIC a2e9c 0 std::__ndk1::__shared_ptr_pointer<sio::string_message*, std::__ndk1::shared_ptr<sio::message>::__shared_ptr_default_delete<sio::message, sio::string_message>, std::__ndk1::allocator<sio::string_message> >::__on_zero_shared()
PUBLIC a2eb4 0 std::__ndk1::__shared_ptr_pointer<sio::string_message*, std::__ndk1::shared_ptr<sio::message>::__shared_ptr_default_delete<sio::message, sio::string_message>, std::__ndk1::allocator<sio::string_message> >::__get_deleter(std::type_info const&) const
PUBLIC a2ed0 0 std::__ndk1::__shared_ptr_pointer<sio::string_message*, std::__ndk1::shared_ptr<sio::message>::__shared_ptr_default_delete<sio::message, sio::string_message>, std::__ndk1::allocator<sio::string_message> >::__on_zero_shared_weak()
PUBLIC a2ed4 0 sio::message::~message()
PUBLIC a2ed8 0 sio::int_message::~int_message()
PUBLIC a2edc 0 sio::int_message::get_int() const
PUBLIC a2ee4 0 sio::int_message::get_double() const
PUBLIC a2ef0 0 std::__ndk1::__shared_ptr_pointer<sio::int_message*, std::__ndk1::shared_ptr<sio::message>::__shared_ptr_default_delete<sio::message, sio::int_message>, std::__ndk1::allocator<sio::int_message> >::~__shared_ptr_pointer()
PUBLIC a2f14 0 std::__ndk1::__shared_ptr_pointer<sio::int_message*, std::__ndk1::shared_ptr<sio::message>::__shared_ptr_default_delete<sio::message, sio::int_message>, std::__ndk1::allocator<sio::int_message> >::__on_zero_shared()
PUBLIC a2f2c 0 std::__ndk1::__shared_ptr_pointer<sio::int_message*, std::__ndk1::shared_ptr<sio::message>::__shared_ptr_default_delete<sio::message, sio::int_message>, std::__ndk1::allocator<sio::int_message> >::__get_deleter(std::type_info const&) const
PUBLIC a2f48 0 std::__ndk1::__shared_ptr_pointer<sio::int_message*, std::__ndk1::shared_ptr<sio::message>::__shared_ptr_default_delete<sio::message, sio::int_message>, std::__ndk1::allocator<sio::int_message> >::__on_zero_shared_weak()
PUBLIC a2f4c 0 std::__ndk1::__tree<std::__ndk1::__value_type<std::__ndk1::basic_string<char, std::__ndk1::char_traits<char>, std::__ndk1::allocator<char> >, std::__ndk1::shared_ptr<sio::message> >, std::__ndk1::__map_value_compare<std::__ndk1::basic_string<char, std::__ndk1::char_traits<char>, std::__ndk1::allocator<char> >, std::__ndk1::__value_type<std::__ndk1::basic_string<char, std::__ndk1::char_traits<char>, std::__ndk1::allocator<char> >, std::__ndk1::shared_ptr<sio::message> >, std::__ndk1::less<std::__ndk1::basic_string<char, std::__ndk1::char_traits<char>, std::__ndk1::allocator<char> > >, true>, std::__ndk1::allocator<std::__ndk1::__value_type<std::__ndk1::basic_string<char, std::__ndk1::char_traits<char>, std::__ndk1::allocator<char> >, std::__ndk1::shared_ptr<sio::message> > > >::__emplace_unique_key_args<std::__ndk1::basic_string<char, std::__ndk1::char_traits<char>, std::__ndk1::allocator<char> >, std::__ndk1::piecewise_construct_t const&, std::__ndk1::tuple<std::__ndk1::basic_string<char, std::__ndk1::char_traits<char>, std::__ndk1::allocator<char> >&&>, std::__ndk1::tuple<> >(std::__ndk1::basic_string<char, std::__ndk1::char_traits<char>, std::__ndk1::allocator<char> > const&, std::__ndk1::piecewise_construct_t const&, std::__ndk1::tuple<std::__ndk1::basic_string<char, std::__ndk1::char_traits<char>, std::__ndk1::allocator<char> >&&>, std::__ndk1::tuple<>)
PUBLIC a30c4 0 std::__ndk1::lock_guard<std::__ndk1::mutex>::~lock_guard[abi:ne180000]()
PUBLIC a30cc 0 std::__ndk1::queue<std::__ndk1::shared_ptr<sio::message>, std::__ndk1::deque<std::__ndk1::shared_ptr<sio::message>, std::__ndk1::allocator<std::__ndk1::shared_ptr<sio::message> > > >::~queue()
PUBLIC a30d0 0 EventData::~EventData()
PUBLIC a314c 0 EventsPush::destroySelf()
PUBLIC a31a4 0 getDifficulty(int)
PUBLIC a3214 0 EventsPush::onClickBtn(cocos2d::CCObject*)
PUBLIC a3d14 0 EventsPush::init(std::__ndk1::shared_ptr<sio::message> const&)
PUBLIC a722c 0 geode::Mod::getSettingValue<bool>(std::__ndk1::basic_string_view<char, std::__ndk1::char_traits<char> >) const
PUBLIC a7360 0 geode::Mod::getSettingValue<double>(std::__ndk1::basic_string_view<char, std::__ndk1::char_traits<char> >) const
PUBLIC a7490 0 std::__ndk1::operator+[abi:ne180000]<char, std::__ndk1::char_traits<char>, std::__ndk1::allocator<char> >(std::__ndk1::allocator<char>&&, std::__ndk1::basic_string const*)
PUBLIC a74ec 0 EventsPush::processNextEvent(cocos2d::CCScene*)
PUBLIC a80dc 0 GDUtils::Events::OnRate::~OnRate()
PUBLIC a8170 0 EventsPush::~EventsPush()
PUBLIC a8194 0 {virtual override thunk({offset(-320)}, EventsPush::~EventsPush())}
PUBLIC a819c 0 {virtual override thunk({offset(-320)}, EventsPush::~EventsPush())}
PUBLIC a81c4 0 std::__ndk1::deque<std::__ndk1::shared_ptr<sio::message>, std::__ndk1::allocator<std::__ndk1::shared_ptr<sio::message> > >::~deque[abi:ne180000]()
PUBLIC a8380 0 std::__ndk1::basic_string<char, std::__ndk1::char_traits<char>, std::__ndk1::allocator<char> >::__throw_out_of_range[abi:ne180000]() const
PUBLIC a8394 0 std::__ndk1::__throw_out_of_range[abi:ne180000](char const*)
PUBLIC a83e4 0 std::out_of_range::out_of_range[abi:ne180000](char const*)
PUBLIC a8414 0 EventsPush::onClickBtn(cocos2d::CCObject*)::$_0::operator()(geode::utils::web::WebResponse*) const
PUBLIC a875c 0 std::__ndk1::__function::__func<geode::Task<geode::utils::web::WebResponse, geode::utils::web::WebProgress>::map<EventsPush::onClickBtn(cocos2d::CCObject*)::$_0, geode::utils::web::WebProgress (*)(geode::utils::web::WebProgress*), void (*)()>(EventsPush::onClickBtn(cocos2d::CCObject*)::$_0&&, geode::utils::web::WebProgress (*&&)(geode::utils::web::WebProgress*), void (*&&)(), std::__ndk1::basic_string_view<char, std::__ndk1::char_traits<char> >) const::{lambda(geode::Task<geode::utils::web::WebResponse, geode::utils::web::WebProgress>::Event*)#1}, std::__ndk1::allocator<geode::Task<geode::utils::web::WebResponse, geode::utils::web::WebProgress>::map<EventsPush::onClickBtn(cocos2d::CCObject*)::$_0, geode::utils::web::WebProgress (*)(geode::utils::web::WebProgress*), void (*)()>(EventsPush::onClickBtn(cocos2d::CCObject*)::$_0&&, geode::utils::web::WebProgress (*&&)(geode::utils::web::WebProgress*), void (*&&)(), std::__ndk1::basic_string_view<char, std::__ndk1::char_traits<char> >) const::{lambda(geode::Task<geode::utils::web::WebResponse, geode::utils::web::WebProgress>::Event*)#1}>, void (geode::Task<geode::utils::web::WebResponse, geode::utils::web::WebProgress>::Event*)>::~__func()
PUBLIC a877c 0 std::__ndk1::__function::__func<geode::Task<geode::utils::web::WebResponse, geode::utils::web::WebProgress>::map<EventsPush::onClickBtn(cocos2d::CCObject*)::$_0, geode::utils::web::WebProgress (*)(geode::utils::web::WebProgress*), void (*)()>(EventsPush::onClickBtn(cocos2d::CCObject*)::$_0&&, geode::utils::web::WebProgress (*&&)(geode::utils::web::WebProgress*), void (*&&)(), std::__ndk1::basic_string_view<char, std::__ndk1::char_traits<char> >) const::{lambda(geode::Task<geode::utils::web::WebResponse, geode::utils::web::WebProgress>::Event*)#1}, std::__ndk1::allocator<geode::Task<geode::utils::web::WebResponse, geode::utils::web::WebProgress>::map<EventsPush::onClickBtn(cocos2d::CCObject*)::$_0, geode::utils::web::WebProgress (*)(geode::utils::web::WebProgress*), void (*)()>(EventsPush::onClickBtn(cocos2d::CCObject*)::$_0&&, geode::utils::web::WebProgress (*&&)(geode::utils::web::WebProgress*), void (*&&)(), std::__ndk1::basic_string_view<char, std::__ndk1::char_traits<char> >) const::{lambda(geode::Task<geode::utils::web::WebResponse, geode::utils::web::WebProgress>::Event*)#1}>, void (geode::Task<geode::utils::web::WebResponse, geode::utils::web::WebProgress>::Event*)>::~__func()
PUBLIC a87b8 0 std::__ndk1::__function::__func<geode::Task<geode::utils::web::WebResponse, geode::utils::web::WebProgress>::map<EventsPush::onClickBtn(cocos2d::CCObject*)::$_0, geode::utils::web::WebProgress (*)(geode::utils::web::WebProgress*), void (*)()>(EventsPush::onClickBtn(cocos2d::CCObject*)::$_0&&, geode::utils::web::WebProgress (*&&)(geode::utils::web::WebProgress*), void (*&&)(), std::__ndk1::basic_string_view<char, std::__ndk1::char_traits<char> >) const::{lambda(geode::Task<geode::utils::web::WebResponse, geode::utils::web::WebProgress>::Event*)#1}, std::__ndk1::allocator<geode::Task<geode::utils::web::WebResponse, geode::utils::web::WebProgress>::map<EventsPush::onClickBtn(cocos2d::CCObject*)::$_0, geode::utils::web::WebProgress (*)(geode::utils::web::WebProgress*), void (*)()>(EventsPush::onClickBtn(cocos2d::CCObject*)::$_0&&, geode::utils::web::WebProgress (*&&)(geode::utils::web::WebProgress*), void (*&&)(), std::__ndk1::basic_string_view<char, std::__ndk1::char_traits<char> >) const::{lambda(geode::Task<geode::utils::web::WebResponse, geode::utils::web::WebProgress>::Event*)#1}>, void (geode::Task<geode::utils::web::WebResponse, geode::utils::web::WebProgress>::Event*)>::__clone() const
PUBLIC a8818 0 std::__ndk1::__function::__func<geode::Task<geode::utils::web::WebResponse, geode::utils::web::WebProgress>::map<EventsPush::onClickBtn(cocos2d::CCObject*)::$_0, geode::utils::web::WebProgress (*)(geode::utils::web::WebProgress*), void (*)()>(EventsPush::onClickBtn(cocos2d::CCObject*)::$_0&&, geode::utils::web::WebProgress (*&&)(geode::utils::web::WebProgress*), void (*&&)(), std::__ndk1::basic_string_view<char, std::__ndk1::char_traits<char> >) const::{lambda(geode::Task<geode::utils::web::WebResponse, geode::utils::web::WebProgress>::Event*)#1}, std::__ndk1::allocator<geode::Task<geode::utils::web::WebResponse, geode::utils::web::WebProgress>::map<EventsPush::onClickBtn(cocos2d::CCObject*)::$_0, geode::utils::web::WebProgress (*)(geode::utils::web::WebProgress*), void (*)()>(EventsPush::onClickBtn(cocos2d::CCObject*)::$_0&&, geode::utils::web::WebProgress (*&&)(geode::utils::web::WebProgress*), void (*&&)(), std::__ndk1::basic_string_view<char, std::__ndk1::char_traits<char> >) const::{lambda(geode::Task<geode::utils::web::WebResponse, geode::utils::web::WebProgress>::Event*)#1}>, void (geode::Task<geode::utils::web::WebResponse, geode::utils::web::WebProgress>::Event*)>::__clone(std::__ndk1::__function::__base<void (geode::Task<geode::utils::web::WebResponse, geode::utils::web::WebProgress>::Event*)>*) const
PUBLIC a886c 0 std::__ndk1::__function::__func<geode::Task<geode::utils::web::WebResponse, geode::utils::web::WebProgress>::map<EventsPush::onClickBtn(cocos2d::CCObject*)::$_0, geode::utils::web::WebProgress (*)(geode::utils::web::WebProgress*), void (*)()>(EventsPush::onClickBtn(cocos2d::CCObject*)::$_0&&, geode::utils::web::WebProgress (*&&)(geode::utils::web::WebProgress*), void (*&&)(), std::__ndk1::basic_string_view<char, std::__ndk1::char_traits<char> >) const::{lambda(geode::Task<geode::utils::web::WebResponse, geode::utils::web::WebProgress>::Event*)#1}, std::__ndk1::allocator<geode::Task<geode::utils::web::WebResponse, geode::utils::web::WebProgress>::map<EventsPush::onClickBtn(cocos2d::CCObject*)::$_0, geode::utils::web::WebProgress (*)(geode::utils::web::WebProgress*), void (*)()>(EventsPush::onClickBtn(cocos2d::CCObject*)::$_0&&, geode::utils::web::WebProgress (*&&)(geode::utils::web::WebProgress*), void (*&&)(), std::__ndk1::basic_string_view<char, std::__ndk1::char_traits<char> >) const::{lambda(geode::Task<geode::utils::web::WebResponse, geode::utils::web::WebProgress>::Event*)#1}>, void (geode::Task<geode::utils::web::WebResponse, geode::utils::web::WebProgress>::Event*)>::destroy()
PUBLIC a887c 0 std::__ndk1::__function::__func<geode::Task<geode::utils::web::WebResponse, geode::utils::web::WebProgress>::map<EventsPush::onClickBtn(cocos2d::CCObject*)::$_0, geode::utils::web::WebProgress (*)(geode::utils::web::WebProgress*), void (*)()>(EventsPush::onClickBtn(cocos2d::CCObject*)::$_0&&, geode::utils::web::WebProgress (*&&)(geode::utils::web::WebProgress*), void (*&&)(), std::__ndk1::basic_string_view<char, std::__ndk1::char_traits<char> >) const::{lambda(geode::Task<geode::utils::web::WebResponse, geode::utils::web::WebProgress>::Event*)#1}, std::__ndk1::allocator<geode::Task<geode::utils::web::WebResponse, geode::utils::web::WebProgress>::map<EventsPush::onClickBtn(cocos2d::CCObject*)::$_0, geode::utils::web::WebProgress (*)(geode::utils::web::WebProgress*), void (*)()>(EventsPush::onClickBtn(cocos2d::CCObject*)::$_0&&, geode::utils::web::WebProgress (*&&)(geode::utils::web::WebProgress*), void (*&&)(), std::__ndk1::basic_string_view<char, std::__ndk1::char_traits<char> >) const::{lambda(geode::Task<geode::utils::web::WebResponse, geode::utils::web::WebProgress>::Event*)#1}>, void (geode::Task<geode::utils::web::WebResponse, geode::utils::web::WebProgress>::Event*)>::destroy_deallocate()
PUBLIC a88ac 0 std::__ndk1::__function::__func<geode::Task<geode::utils::web::WebResponse, geode::utils::web::WebProgress>::map<EventsPush::onClickBtn(cocos2d::CCObject*)::$_0, geode::utils::web::WebProgress (*)(geode::utils::web::WebProgress*), void (*)()>(EventsPush::onClickBtn(cocos2d::CCObject*)::$_0&&, geode::utils::web::WebProgress (*&&)(geode::utils::web::WebProgress*), void (*&&)(), std::__ndk1::basic_string_view<char, std::__ndk1::char_traits<char> >) const::{lambda(geode::Task<geode::utils::web::WebResponse, geode::utils::web::WebProgress>::Event*)#1}, std::__ndk1::allocator<geode::Task<geode::utils::web::WebResponse, geode::utils::web::WebProgress>::map<EventsPush::onClickBtn(cocos2d::CCObject*)::$_0, geode::utils::web::WebProgress (*)(geode::utils::web::WebProgress*), void (*)()>(EventsPush::onClickBtn(cocos2d::CCObject*)::$_0&&, geode::utils::web::WebProgress (*&&)(geode::utils::web::WebProgress*), void (*&&)(), std::__ndk1::basic_string_view<char, std::__ndk1::char_traits<char> >) const::{lambda(geode::Task<geode::utils::web::WebResponse, geode::utils::web::WebProgress>::Event*)#1}>, void (geode::Task<geode::utils::web::WebResponse, geode::utils::web::WebProgress>::Event*)>::operator()(geode::Task<geode::utils::web::WebResponse, geode::utils::web::WebProgress>::Event*&&)
PUBLIC a8a7c 0 std::__ndk1::__function::__func<geode::Task<geode::utils::web::WebResponse, geode::utils::web::WebProgress>::map<EventsPush::onClickBtn(cocos2d::CCObject*)::$_0, geode::utils::web::WebProgress (*)(geode::utils::web::WebProgress*), void (*)()>(EventsPush::onClickBtn(cocos2d::CCObject*)::$_0&&, geode::utils::web::WebProgress (*&&)(geode::utils::web::WebProgress*), void (*&&)(), std::__ndk1::basic_string_view<char, std::__ndk1::char_traits<char> >) const::{lambda(geode::Task<geode::utils::web::WebResponse, geode::utils::web::WebProgress>::Event*)#1}, std::__ndk1::allocator<geode::Task<geode::utils::web::WebResponse, geode::utils::web::WebProgress>::map<EventsPush::onClickBtn(cocos2d::CCObject*)::$_0, geode::utils::web::WebProgress (*)(geode::utils::web::WebProgress*), void (*)()>(EventsPush::onClickBtn(cocos2d::CCObject*)::$_0&&, geode::utils::web::WebProgress (*&&)(geode::utils::web::WebProgress*), void (*&&)(), std::__ndk1::basic_string_view<char, std::__ndk1::char_traits<char> >) const::{lambda(geode::Task<geode::utils::web::WebResponse, geode::utils::web::WebProgress>::Event*)#1}>, void (geode::Task<geode::utils::web::WebResponse, geode::utils::web::WebProgress>::Event*)>::target(std::type_info const&) const
PUBLIC a8a98 0 std::__ndk1::__function::__func<geode::Task<geode::utils::web::WebResponse, geode::utils::web::WebProgress>::map<EventsPush::onClickBtn(cocos2d::CCObject*)::$_0, geode::utils::web::WebProgress (*)(geode::utils::web::WebProgress*), void (*)()>(EventsPush::onClickBtn(cocos2d::CCObject*)::$_0&&, geode::utils::web::WebProgress (*&&)(geode::utils::web::WebProgress*), void (*&&)(), std::__ndk1::basic_string_view<char, std::__ndk1::char_traits<char> >) const::{lambda(geode::Task<geode::utils::web::WebResponse, geode::utils::web::WebProgress>::Event*)#1}, std::__ndk1::allocator<geode::Task<geode::utils::web::WebResponse, geode::utils::web::WebProgress>::map<EventsPush::onClickBtn(cocos2d::CCObject*)::$_0, geode::utils::web::WebProgress (*)(geode::utils::web::WebProgress*), void (*)()>(EventsPush::onClickBtn(cocos2d::CCObject*)::$_0&&, geode::utils::web::WebProgress (*&&)(geode::utils::web::WebProgress*), void (*&&)(), std::__ndk1::basic_string_view<char, std::__ndk1::char_traits<char> >) const::{lambda(geode::Task<geode::utils::web::WebResponse, geode::utils::web::WebProgress>::Event*)#1}>, void (geode::Task<geode::utils::web::WebResponse, geode::utils::web::WebProgress>::Event*)>::target_type() const
PUBLIC a8aa4 0 geode::Task<geode::utils::web::WebResponse, geode::utils::web::WebProgress>::map<EventsPush::onClickBtn(cocos2d::CCObject*)::$_0, geode::utils::web::WebProgress (*)(geode::utils::web::WebProgress*), void (*)()>(EventsPush::onClickBtn(cocos2d::CCObject*)::$_0&&, geode::utils::web::WebProgress (*&&)(geode::utils::web::WebProgress*), void (*&&)(), std::__ndk1::basic_string_view<char, std::__ndk1::char_traits<char> >) const::{lambda(void*)#1}::__invoke(void*)
PUBLIC a8ab8 0 geode::Task<geode::utils::web::WebResponse, geode::utils::web::WebProgress>::map<EventsPush::onClickBtn(cocos2d::CCObject*)::$_0, geode::utils::web::WebProgress (*)(geode::utils::web::WebProgress*), void (*)()>(EventsPush::onClickBtn(cocos2d::CCObject*)::$_0&&, geode::utils::web::WebProgress (*&&)(geode::utils::web::WebProgress*), void (*&&)(), std::__ndk1::basic_string_view<char, std::__ndk1::char_traits<char> >) const::{lambda(void*)#2}::__invoke(void*)
PUBLIC a8b70 0 geode::Task<geode::utils::web::WebResponse, geode::utils::web::WebProgress>::map<EventsPush::onClickBtn(cocos2d::CCObject*)::$_0, geode::utils::web::WebProgress (*)(geode::utils::web::WebProgress*)>(EventsPush::onClickBtn(cocos2d::CCObject*)::$_0&&, geode::utils::web::WebProgress (*&&)(geode::utils::web::WebProgress*), std::__ndk1::basic_string_view<char, std::__ndk1::char_traits<char> >) const::{lambda()#1}::__invoke()
PUBLIC a8b74 0 _ZZNK5geode4TaskINS_5utils3web11WebResponseENS2_11WebProgressEE3mapIZN10EventsPush10onClickBtnEPN7cocos2d8CCObjectEE3$_0Qsr3stdE18copy_constructibleIT0_EEEDaOT_NSt6__ndk117basic_string_viewIcNSF_11char_traitsIcEEEEENUlPS4_E_8__invokeESK_
PUBLIC a8b9c 0 EventData::EventData(EventData const&)
PUBLIC a8d20 0 GDUtils::Events::OnRate::~OnRate()
PUBLIC a8dc4 0 std::__ndk1::__tree<std::__ndk1::__value_type<std::__ndk1::basic_string<char, std::__ndk1::char_traits<char>, std::__ndk1::allocator<char> >, std::__ndk1::shared_ptr<sio::message> >, std::__ndk1::__map_value_compare<std::__ndk1::basic_string<char, std::__ndk1::char_traits<char>, std::__ndk1::allocator<char> >, std::__ndk1::__value_type<std::__ndk1::basic_string<char, std::__ndk1::char_traits<char>, std::__ndk1::allocator<char> >, std::__ndk1::shared_ptr<sio::message> >, std::__ndk1::less<std::__ndk1::basic_string<char, std::__ndk1::char_traits<char>, std::__ndk1::allocator<char> > >, true>, std::__ndk1::allocator<std::__ndk1::__value_type<std::__ndk1::basic_string<char, std::__ndk1::char_traits<char>, std::__ndk1::allocator<char> >, std::__ndk1::shared_ptr<sio::message> > > >::find<std::__ndk1::basic_string<char, std::__ndk1::char_traits<char>, std::__ndk1::allocator<char> > >(std::__ndk1::basic_string<char, std::__ndk1::char_traits<char>, std::__ndk1::allocator<char> > const&)
PUBLIC a8ee4 0 std::__ndk1::unique_ptr<std::__ndk1::__tree_node<std::__ndk1::__value_type<std::__ndk1::basic_string<char, std::__ndk1::char_traits<char>, std::__ndk1::allocator<char> >, std::__ndk1::shared_ptr<sio::message> >, void*>, std::__ndk1::__tree_node_destructor<std::__ndk1::allocator<std::__ndk1::__tree_node<std::__ndk1::__value_type<std::__ndk1::basic_string<char, std::__ndk1::char_traits<char>, std::__ndk1::allocator<char> >, std::__ndk1::shared_ptr<sio::message> >, void*> > > >::~unique_ptr[abi:ne180000]()
PUBLIC a8f60 0 std::__ndk1::__tree<std::__ndk1::__value_type<std::__ndk1::basic_string<char, std::__ndk1::char_traits<char>, std::__ndk1::allocator<char> >, std::__ndk1::shared_ptr<sio::message> >, std::__ndk1::__map_value_compare<std::__ndk1::basic_string<char, std::__ndk1::char_traits<char>, std::__ndk1::allocator<char> >, std::__ndk1::__value_type<std::__ndk1::basic_string<char, std::__ndk1::char_traits<char>, std::__ndk1::allocator<char> >, std::__ndk1::shared_ptr<sio::message> >, std::__ndk1::less<std::__ndk1::basic_string<char, std::__ndk1::char_traits<char>, std::__ndk1::allocator<char> > >, true>, std::__ndk1::allocator<std::__ndk1::__value_type<std::__ndk1::basic_string<char, std::__ndk1::char_traits<char>, std::__ndk1::allocator<char> >, std::__ndk1::shared_ptr<sio::message> > > >::__emplace_hint_unique_key_args<std::__ndk1::basic_string<char, std::__ndk1::char_traits<char>, std::__ndk1::allocator<char> >, std::__ndk1::pair<std::__ndk1::basic_string<char, std::__ndk1::char_traits<char>, std::__ndk1::allocator<char> > const, std::__ndk1::shared_ptr<sio::message> > const&>(std::__ndk1::__tree_const_iterator<std::__ndk1::__value_type<std::__ndk1::basic_string<char, std::__ndk1::char_traits<char>, std::__ndk1::allocator<char> >, std::__ndk1::shared_ptr<sio::message> >, std::__ndk1::__tree_node<std::__ndk1::__value_type<std::__ndk1::basic_string<char, std::__ndk1::char_traits<char>, std::__ndk1::allocator<char> >, std::__ndk1::shared_ptr<sio::message> >, void*>*, long>, std::__ndk1::basic_string<char, std::__ndk1::char_traits<char>, std::__ndk1::allocator<char> > const&, std::__ndk1::pair<std::__ndk1::basic_string<char, std::__ndk1::char_traits<char>, std::__ndk1::allocator<char> > const, std::__ndk1::shared_ptr<sio::message> > const&)
PUBLIC a93cc 0 std::__ndk1::deque<std::__ndk1::shared_ptr<sio::message>, std::__ndk1::allocator<std::__ndk1::shared_ptr<sio::message> > >::__add_back_capacity()
PUBLIC a99bc 0 std::__ndk1::__split_buffer<std::__ndk1::shared_ptr<sio::message>*, std::__ndk1::allocator<std::__ndk1::shared_ptr<sio::message>*> >::push_back(std::__ndk1::shared_ptr<sio::message>*&&)
PUBLIC a9b44 0 std::__ndk1::__split_buffer<std::__ndk1::shared_ptr<sio::message>*, std::__ndk1::allocator<std::__ndk1::shared_ptr<sio::message>*> >::push_front(std::__ndk1::shared_ptr<sio::message>*&&)
PUBLIC a9cd0 0 geodeExecFunction946<(anonymous namespace)::ExecFuncUnique946>()::{lambda(GDUtils::Events::RateEvent*)#1}::__invoke(GDUtils::Events::RateEvent*)
PUBLIC aaf00 0 geode::EventListener<geode::EventFilter<GDUtils::Events::RateEvent> >::getPool() const
PUBLIC aaf04 0 geode::EventListener<geode::EventFilter<GDUtils::Events::RateEvent> >::handle(geode::Event*)
PUBLIC ab0a4 0 geode::EventListener<geode::EventFilter<GDUtils::Events::RateEvent> >::~EventListener()
PUBLIC ab100 0 geode::EventListener<geode::EventFilter<GDUtils::Events::RateEvent> >::~EventListener()
PUBLIC ab164 0 std::__ndk1::__function::__base<geode::ListenerResult(GDUtils::Events::RateEvent*)>::~__base()
PUBLIC ab168 0 std::__ndk1::__function::__func<geode::ListenerResult (*)(GDUtils::Events::RateEvent*), std::__ndk1::allocator<geode::ListenerResult (*)(GDUtils::Events::RateEvent*)>, geode::ListenerResult(GDUtils::Events::RateEvent*)>::~__func()
PUBLIC ab16c 0 std::__ndk1::__function::__func<geode::ListenerResult (*)(GDUtils::Events::RateEvent*), std::__ndk1::allocator<geode::ListenerResult (*)(GDUtils::Events::RateEvent*)>, geode::ListenerResult(GDUtils::Events::RateEvent*)>::__clone() const
PUBLIC ab1a0 0 std::__ndk1::__function::__func<geode::ListenerResult (*)(GDUtils::Events::RateEvent*), std::__ndk1::allocator<geode::ListenerResult (*)(GDUtils::Events::RateEvent*)>, geode::ListenerResult(GDUtils::Events::RateEvent*)>::__clone(std::__ndk1::__function::__base<geode::ListenerResult(GDUtils::Events::RateEvent*)>*) const
PUBLIC ab1b4 0 std::__ndk1::__function::__func<geode::ListenerResult (*)(GDUtils::Events::RateEvent*), std::__ndk1::allocator<geode::ListenerResult (*)(GDUtils::Events::RateEvent*)>, geode::ListenerResult(GDUtils::Events::RateEvent*)>::destroy()
PUBLIC ab1b8 0 std::__ndk1::__function::__func<geode::ListenerResult (*)(GDUtils::Events::RateEvent*), std::__ndk1::allocator<geode::ListenerResult (*)(GDUtils::Events::RateEvent*)>, geode::ListenerResult(GDUtils::Events::RateEvent*)>::destroy_deallocate()
PUBLIC ab1bc 0 std::__ndk1::__function::__func<geode::ListenerResult (*)(GDUtils::Events::RateEvent*), std::__ndk1::allocator<geode::ListenerResult (*)(GDUtils::Events::RateEvent*)>, geode::ListenerResult(GDUtils::Events::RateEvent*)>::operator()(GDUtils::Events::RateEvent*&&)
PUBLIC ab1cc 0 std::__ndk1::__function::__func<geode::ListenerResult (*)(GDUtils::Events::RateEvent*), std::__ndk1::allocator<geode::ListenerResult (*)(GDUtils::Events::RateEvent*)>, geode::ListenerResult(GDUtils::Events::RateEvent*)>::target(std::type_info const&) const
PUBLIC ab1e8 0 std::__ndk1::__function::__func<geode::ListenerResult (*)(GDUtils::Events::RateEvent*), std::__ndk1::allocator<geode::ListenerResult (*)(GDUtils::Events::RateEvent*)>, geode::ListenerResult(GDUtils::Events::RateEvent*)>::target_type() const
PUBLIC ab1f4 0 _GLOBAL__sub_I_EventsPush.cpp
PUBLIC ab334 0 OldBorder::init(cocos2d::CCNode*, cocos2d::_ccColor4B const&, cocos2d::CCSize const&)
PUBLIC ab5fc 0 OldBorder::updatePadding()
PUBLIC ab71c 0 OldBorder::~OldBorder()
PUBLIC ab740 0 {virtual override thunk({offset(-320)}, OldBorder::~OldBorder())}
PUBLIC ab748 0 {virtual override thunk({offset(-320)}, OldBorder::~OldBorder())}
PUBLIC ab770 0 BadApple::init()
PUBLIC ab7a8 0 BadApple::keyBackClicked()
PUBLIC ab7d4 0 {virtual override thunk({offset(-336)}, BadApple::keyBackClicked())}
PUBLIC ab804 0 BadApple::~BadApple()
PUBLIC ab828 0 {virtual override thunk({offset(-320)}, BadApple::~BadApple())}
PUBLIC ab830 0 {virtual override thunk({offset(-320)}, BadApple::~BadApple())}
PUBLIC ab858 0 __cxx_global_var_init.1
PUBLIC abcd8 0 geode::modifier::ModifyBase<geode::modifier::ModifyDerive<SecretVault, SecretLayer2> >::~ModifyBase()
PUBLIC abcf4 0 geode::modifier::ModifyDerive<SecretVault, SecretLayer2>::apply()
PUBLIC ac590 0 geode::modifier::ModifyBase<geode::modifier::ModifyDerive<SecretVault, SecretLayer2> >::apply()
PUBLIC ac594 0 geode::modifier::AsStaticFunction_init<SecretVault, bool (SecretVault::*)()>::Impl<bool (SecretVault::*)()>::function(SecretVault*)
PUBLIC ac5b8 0 geode::modifier::AsStaticFunction_onSubmit<SecretVault, void (SecretVault::*)(cocos2d::CCObject*)>::Impl<void (SecretVault::*)(cocos2d::CCObject*)>::function(SecretVault*, cocos2d::CCObject*)
PUBLIC acb88 0 geode::modifier::AsStaticFunction_updateSearchLabel<SecretVault, void (SecretVault::*)(char const*)>::Impl<void (SecretVault::*)(char const*)>::function(SecretVault*, char const*)
PUBLIC acbc8 0 geode::addresser::Addresser::addressOfVirtual<bool, SecretLayer2, >(bool (SecretLayer2::*)())
PUBLIC acc70 0 SecretLayer2::SecretLayer2(geode::ZeroConstructorType)
PUBLIC accf8 0 SecretVault::onLaunchBadApple(cocos2d::CCObject*)
PUBLIC acef8 0 SecretVault::onLaunchCOTE(cocos2d::CCObject*)
PUBLIC ad0f8 0 geode::modifier::FieldIntermediate<SecretVault, SecretLayer2>::self()
PUBLIC ad284 0 geode::modifier::FieldContainer::getField(unsigned long)
PUBLIC ad53c 0 geode::modifier::FieldContainer::setField(unsigned long, unsigned long, std::__ndk1::function<void (void*)>)
PUBLIC ad650 0 geode::modifier::FieldIntermediate<SecretVault, SecretLayer2>::fieldDestructor(void*)
PUBLIC ad654 0 std::__ndk1::vector<void*, std::__ndk1::allocator<void*> >::__throw_length_error[abi:ne180000]() const
PUBLIC ad668 0 std::__ndk1::vector<std::__ndk1::function<void (void*)>, std::__ndk1::allocator<std::__ndk1::function<void (void*)> > >::__push_back_slow_path<std::__ndk1::function<void (void*)> >(std::__ndk1::function<void (void*)>&&)
PUBLIC ad894 0 std::__ndk1::vector<std::__ndk1::function<void (void*)>, std::__ndk1::allocator<std::__ndk1::function<void (void*)> > >::__throw_length_error[abi:ne180000]() const
PUBLIC ad8a8 0 std::__ndk1::vector<void*, std::__ndk1::allocator<void*> >::__throw_out_of_range[abi:ne180000]() const
PUBLIC ad8bc 0 std::__ndk1::vector<std::__ndk1::function<void (void*)>, std::__ndk1::allocator<std::__ndk1::function<void (void*)> > >::__throw_out_of_range[abi:ne180000]() const
PUBLIC ad8d0 0 std::__ndk1::__function::__base<void (void*)>::~__base()
PUBLIC ad8d4 0 std::__ndk1::__function::__func<void (*)(void*), std::__ndk1::allocator<void (*)(void*)>, void (void*)>::~__func()
PUBLIC ad8d8 0 std::__ndk1::__function::__func<void (*)(void*), std::__ndk1::allocator<void (*)(void*)>, void (void*)>::__clone() const
PUBLIC ad910 0 std::__ndk1::__function::__func<void (*)(void*), std::__ndk1::allocator<void (*)(void*)>, void (void*)>::__clone(std::__ndk1::__function::__base<void (void*)>*) const
PUBLIC ad928 0 std::__ndk1::__function::__func<void (*)(void*), std::__ndk1::allocator<void (*)(void*)>, void (void*)>::destroy()
PUBLIC ad92c 0 std::__ndk1::__function::__func<void (*)(void*), std::__ndk1::allocator<void (*)(void*)>, void (void*)>::destroy_deallocate()
PUBLIC ad930 0 std::__ndk1::__function::__func<void (*)(void*), std::__ndk1::allocator<void (*)(void*)>, void (void*)>::operator()(void*&&)
PUBLIC ad940 0 std::__ndk1::__function::__func<void (*)(void*), std::__ndk1::allocator<void (*)(void*)>, void (void*)>::target(std::type_info const&) const
PUBLIC ad95c 0 std::__ndk1::__function::__func<void (*)(void*), std::__ndk1::allocator<void (*)(void*)>, void (void*)>::target_type() const
PUBLIC ad968 0 _ZNSt6__ndk112basic_stringIcNS_11char_traitsIcEENS_9allocatorIcEEE6appendB8ne180000IPKcTnNS_9enable_ifIXsr31__has_forward_iterator_categoryIT_EE5valueEiE4typeELi0EEERS5_SA_SA_
PUBLIC adc6c 0 _GLOBAL__sub_I_BadApple.cpp
PUBLIC adc88 0 COTE::init()
PUBLIC adcc0 0 COTE::keyBackClicked()
PUBLIC adcec 0 {virtual override thunk({offset(-336)}, COTE::keyBackClicked())}
PUBLIC add1c 0 COTE::~COTE()
PUBLIC add40 0 {virtual override thunk({offset(-320)}, COTE::~COTE())}
PUBLIC add48 0 {virtual override thunk({offset(-320)}, COTE::~COTE())}
PUBLIC add70 0 CreditsBetaMenu::create()
PUBLIC adeb8 0 CreditsBetaMenu::setup()
PUBLIC ae1d8 0 CreditsBetaMenu::nextPage(cocos2d::CCObject*)
PUBLIC ae280 0 CreditsBetaMenu::prevPage(cocos2d::CCObject*)
PUBLIC ae320 0 CreditsBetaMenu::goToURL(cocos2d::CCObject*)
PUBLIC ae420 0 CreditsBetaMenu::getPage(int)
PUBLIC b0ee0 0 CreditsBetaMenu::~CreditsBetaMenu()
PUBLIC b0f04 0 {virtual override thunk({offset(-320)}, CreditsBetaMenu::~CreditsBetaMenu())}
PUBLIC b0f0c 0 {virtual override thunk({offset(-320)}, CreditsBetaMenu::~CreditsBetaMenu())}
PUBLIC b0f34 0 CreditsMenu::onFireeBtn(cocos2d::CCObject*)
PUBLIC b0fe4 0 CreditsMenu::onJoucaBtn(cocos2d::CCObject*)
PUBLIC b109c 0 CreditsMenu::onMaverickBtn(cocos2d::CCObject*)
PUBLIC b115c 0 CreditsMenu::setup()
PUBLIC b165c 0 CreditsMenu::create()
PUBLIC b1794 0 CreditsMenu::~CreditsMenu()
PUBLIC b17b8 0 {virtual override thunk({offset(-320)}, CreditsMenu::~CreditsMenu())}
PUBLIC b17c0 0 {virtual override thunk({offset(-320)}, CreditsMenu::~CreditsMenu())}
PUBLIC b17e8 0 SettingPosValue::createNode(float)
PUBLIC b1e44 0 std::__ndk1::shared_ptr<SettingPosValue>::~shared_ptr[abi:ne180000]()
PUBLIC b1e94 0 std::__ndk1::shared_ptr<geode::SettingV3>::~shared_ptr[abi:ne180000]()
PUBLIC b1ee4 0 SettingCreditsValue::createNode(float)
PUBLIC b22dc 0 std::__ndk1::shared_ptr<SettingCreditsValue>::~shared_ptr[abi:ne180000]()
PUBLIC b232c 0 SettingPosValue::~SettingPosValue()
PUBLIC b23a8 0 geode::SettingBaseValueV3<SettingPosEnum, SettingPosEnum>::load(matjson::Value const&)
PUBLIC b24e4 0 geode::SettingBaseValueV3<SettingPosEnum, SettingPosEnum>::save(matjson::Value&) const
PUBLIC b2594 0 geode::SettingBaseValueV3<SettingPosEnum, SettingPosEnum>::isDefaultValue() const
PUBLIC b25a8 0 geode::SettingBaseValueV3<SettingPosEnum, SettingPosEnum>::reset()
PUBLIC b2658 0 geode::SettingBaseValueV3<SettingPosEnum, SettingPosEnum>::isValid(SettingPosEnum) const
PUBLIC b2660 0 SettingCreditsValue::~SettingCreditsValue()
PUBLIC b2684 0 SettingCreditsValue::load(matjson::Value const&)
PUBLIC b268c 0 SettingCreditsValue::save(matjson::Value&) const
PUBLIC b2694 0 SettingCreditsValue::isDefaultValue() const
PUBLIC b269c 0 SettingCreditsValue::reset()
PUBLIC b26a0 0 geode::SettingValueNodeV3<SettingPosValue>::~SettingValueNodeV3()
PUBLIC b274c 0 SettingPosNode::~SettingPosNode()
PUBLIC b2808 0 SettingPosNode::updateState(cocos2d::CCNode*)
PUBLIC b280c 0 geode::SettingValueNodeV3<SettingPosValue>::onCommit()
PUBLIC b2988 0 SettingPosNode::onResetToDefault()
PUBLIC b29e8 0 geode::SettingValueNodeV3<SettingPosValue>::hasUncommittedChanges() const
PUBLIC b2a80 0 geode::SettingValueNodeV3<SettingPosValue>::hasNonDefaultValue() const
PUBLIC b2b18 0 geode::SettingValueNodeV3<SettingPosValue>::~SettingValueNodeV3()
PUBLIC b2bd4 0 geode::SettingValueNodeV3<SettingPosValue>::updateState(cocos2d::CCNode*)
PUBLIC b2de4 0 geode::SettingValueNodeV3<SettingPosValue>::onResetToDefault()
PUBLIC b2eac 0 geode::impl::ResultData<void, std::__ndk1::basic_string<char, std::__ndk1::char_traits<char>, std::__ndk1::allocator<char> > >::~ResultData()
PUBLIC b2f20 0 std::__ndk1::__variant_detail::__visitation::__base::__dispatcher<(unsigned long)0>::__dispatch[abi:ne180000]<std::__ndk1::__variant_detail::__dtor<std::__ndk1::__variant_detail::__traits<std::__ndk1::monostate, std::__ndk1::basic_string<char, std::__ndk1::char_traits<char>, std::__ndk1::allocator<char> > >, (std::__ndk1::__variant_detail::_Trait)1>::__destroy[abi:ne180000]()::{lambda(auto:1&)#1}, std::__ndk1::__variant_detail::__base<(std::__ndk1::__variant_detail::__traits<std::__ndk1::monostate, std::__ndk1::basic_string<char, std::__ndk1::char_traits<char>, std::__ndk1::allocator<char> > >)1, std::__ndk1::__variant_detail::__traits, std::__ndk1::allocator<char> >&>(std::__ndk1::__variant_detail::__dtor<std::__ndk1::__variant_detail::__traits<std::__ndk1::monostate, std::__ndk1::basic_string<char, std::__ndk1::char_traits<char>, std::__ndk1::allocator<char> > >, (std::__ndk1::__variant_detail::_Trait)1>, std::__ndk1::__variant_detail::__base<(std::__ndk1::__variant_detail::__traits<std::__ndk1::monostate, std::__ndk1::basic_string<char, std::__ndk1::char_traits<char>, std::__ndk1::allocator<char> > >)1, std::__ndk1::__variant_detail::__traits, std::__ndk1::allocator<char> >&)
PUBLIC b2f24 0 std::__ndk1::__variant_detail::__visitation::__base::__dispatcher<(unsigned long)1>::__dispatch[abi:ne180000]<std::__ndk1::__variant_detail::__dtor<std::__ndk1::__variant_detail::__traits<std::__ndk1::monostate, std::__ndk1::basic_string<char, std::__ndk1::char_traits<char>, std::__ndk1::allocator<char> > >, (std::__ndk1::__variant_detail::_Trait)1>::__destroy[abi:ne180000]()::{lambda(auto:1&)#1}, std::__ndk1::__variant_detail::__base<(std::__ndk1::__variant_detail::__traits<std::__ndk1::monostate, std::__ndk1::basic_string<char, std::__ndk1::char_traits<char>, std::__ndk1::allocator<char> > >)1, std::__ndk1::__variant_detail::__traits, std::__ndk1::allocator<char> >&>(std::__ndk1::__variant_detail::__dtor<std::__ndk1::__variant_detail::__traits<std::__ndk1::monostate, std::__ndk1::basic_string<char, std::__ndk1::char_traits<char>, std::__ndk1::allocator<char> > >, (std::__ndk1::__variant_detail::_Trait)1>, std::__ndk1::__variant_detail::__base<(std::__ndk1::__variant_detail::__traits<std::__ndk1::monostate, std::__ndk1::basic_string<char, std::__ndk1::char_traits<char>, std::__ndk1::allocator<char> > >)1, std::__ndk1::__variant_detail::__traits, std::__ndk1::allocator<char> >&)
PUBLIC b2f38 0 SettingPosNode::onCornerClick(cocos2d::CCObject*)
PUBLIC b2fb8 0 std::__ndk1::__shared_ptr_emplace<geode::SettingValueNodeV3<SettingPosValue>::Impl, std::__ndk1::allocator<geode::SettingValueNodeV3<SettingPosValue>::Impl> >::~__shared_ptr_emplace()
PUBLIC b2fc8 0 std::__ndk1::__shared_ptr_emplace<geode::SettingValueNodeV3<SettingPosValue>::Impl, std::__ndk1::allocator<geode::SettingValueNodeV3<SettingPosValue>::Impl> >::~__shared_ptr_emplace()
PUBLIC b2ff8 0 std::__ndk1::__shared_ptr_emplace<geode::SettingValueNodeV3<SettingPosValue>::Impl, std::__ndk1::allocator<geode::SettingValueNodeV3<SettingPosValue>::Impl> >::__on_zero_shared()
PUBLIC b2ffc 0 std::__ndk1::__shared_ptr_emplace<geode::SettingValueNodeV3<SettingPosValue>::Impl, std::__ndk1::allocator<geode::SettingValueNodeV3<SettingPosValue>::Impl> >::__on_zero_shared_weak()
PUBLIC b3000 0 geode::SettingNodeV3::~SettingNodeV3()
PUBLIC b3070 0 SettingCreditsNode::~SettingCreditsNode()
PUBLIC b30f0 0 SettingCreditsNode::onCommit()
PUBLIC b30f4 0 SettingCreditsNode::onResetToDefault()
PUBLIC b30f8 0 SettingCreditsNode::hasUncommittedChanges() const
PUBLIC b3100 0 SettingCreditsNode::hasNonDefaultValue() const
PUBLIC b3108 0 SettingCreditsNode::onCreditsBtn(cocos2d::CCObject*)
PUBLIC b3124 0 SettingCreditsNode::onBetaBtn(cocos2d::CCObject*)
PUBLIC b3140 0 geode::SettingBaseValueV3<SettingPosEnum, SettingPosEnum>::~SettingBaseValueV3()
PUBLIC b31ac 0 geode::SettingBaseValueV3<SettingPosEnum, SettingPosEnum>::~SettingBaseValueV3()
PUBLIC b31b0 0 std::__ndk1::__throw_bad_weak_ptr[abi:ne180000]()
PUBLIC b31e4 0 geode::impl::ResultData<SettingPosEnum, std::__ndk1::basic_string<char, std::__ndk1::char_traits<char>, std::__ndk1::allocator<char> > >::~ResultData()
PUBLIC b3258 0 matjson::Serialize<SettingPosEnum>::fromJson(matjson::Value const&)
PUBLIC b34a4 0 geode::impl::ResultData<long, std::__ndk1::basic_string<char, std::__ndk1::char_traits<char>, std::__ndk1::allocator<char> > >::~ResultData()
PUBLIC b3518 0 std::__ndk1::__variant_detail::__visitation::__base::__dispatcher<(unsigned long)0>::__dispatch[abi:ne180000]<std::__ndk1::__variant_detail::__dtor<std::__ndk1::__variant_detail::__traits<long, std::__ndk1::basic_string<char, std::__ndk1::char_traits<char>, std::__ndk1::allocator<char> > >, (std::__ndk1::__variant_detail::_Trait)1>::__destroy[abi:ne180000]()::{lambda(auto:1&)#1}, std::__ndk1::__variant_detail::__base<(std::__ndk1::__variant_detail::__traits<long, std::__ndk1::basic_string<char, std::__ndk1::char_traits<char>, std::__ndk1::allocator<char> > >)1, long, std::__ndk1::allocator<char> >&>(std::__ndk1::__variant_detail::__dtor<std::__ndk1::__variant_detail::__traits<long, std::__ndk1::basic_string<char, std::__ndk1::char_traits<char>, std::__ndk1::allocator<char> > >, (std::__ndk1::__variant_detail::_Trait)1>, std::__ndk1::__variant_detail::__base<(std::__ndk1::__variant_detail::__traits<long, std::__ndk1::basic_string<char, std::__ndk1::char_traits<char>, std::__ndk1::allocator<char> > >)1, long, std::__ndk1::allocator<char> >&)
PUBLIC b351c 0 std::__ndk1::__variant_detail::__visitation::__base::__dispatcher<(unsigned long)1>::__dispatch[abi:ne180000]<std::__ndk1::__variant_detail::__dtor<std::__ndk1::__variant_detail::__traits<long, std::__ndk1::basic_string<char, std::__ndk1::char_traits<char>, std::__ndk1::allocator<char> > >, (std::__ndk1::__variant_detail::_Trait)1>::__destroy[abi:ne180000]()::{lambda(auto:1&)#1}, std::__ndk1::__variant_detail::__base<(std::__ndk1::__variant_detail::__traits<long, std::__ndk1::basic_string<char, std::__ndk1::char_traits<char>, std::__ndk1::allocator<char> > >)1, long, std::__ndk1::allocator<char> >&>(std::__ndk1::__variant_detail::__dtor<std::__ndk1::__variant_detail::__traits<long, std::__ndk1::basic_string<char, std::__ndk1::char_traits<char>, std::__ndk1::allocator<char> > >, (std::__ndk1::__variant_detail::_Trait)1>, std::__ndk1::__variant_detail::__base<(std::__ndk1::__variant_detail::__traits<long, std::__ndk1::basic_string<char, std::__ndk1::char_traits<char>, std::__ndk1::allocator<char> > >)1, long, std::__ndk1::allocator<char> >&)
PUBLIC b3530 0 std::__ndk1::__variant_detail::__visitation::__base::__dispatcher<(unsigned long)0>::__dispatch[abi:ne180000]<std::__ndk1::__variant_detail::__dtor<std::__ndk1::__variant_detail::__traits<SettingPosEnum, std::__ndk1::basic_string<char, std::__ndk1::char_traits<char>, std::__ndk1::allocator<char> > >, (std::__ndk1::__variant_detail::_Trait)1>::__destroy[abi:ne180000]()::{lambda(auto:1&)#1}, std::__ndk1::__variant_detail::__base<(std::__ndk1::__variant_detail::__traits<SettingPosEnum, std::__ndk1::basic_string<char, std::__ndk1::char_traits<char>, std::__ndk1::allocator<char> > >)1, std::__ndk1::__variant_detail::__traits, std::__ndk1::allocator<char> >&>(std::__ndk1::__variant_detail::__dtor<std::__ndk1::__variant_detail::__traits<SettingPosEnum, std::__ndk1::basic_string<char, std::__ndk1::char_traits<char>, std::__ndk1::allocator<char> > >, (std::__ndk1::__variant_detail::_Trait)1>, std::__ndk1::__variant_detail::__base<(std::__ndk1::__variant_detail::__traits<SettingPosEnum, std::__ndk1::basic_string<char, std::__ndk1::char_traits<char>, std::__ndk1::allocator<char> > >)1, std::__ndk1::__variant_detail::__traits, std::__ndk1::allocator<char> >&)
PUBLIC b3534 0 std::__ndk1::__variant_detail::__visitation::__base::__dispatcher<(unsigned long)1>::__dispatch[abi:ne180000]<std::__ndk1::__variant_detail::__dtor<std::__ndk1::__variant_detail::__traits<SettingPosEnum, std::__ndk1::basic_string<char, std::__ndk1::char_traits<char>, std::__ndk1::allocator<char> > >, (std::__ndk1::__variant_detail::_Trait)1>::__destroy[abi:ne180000]()::{lambda(auto:1&)#1}, std::__ndk1::__variant_detail::__base<(std::__ndk1::__variant_detail::__traits<SettingPosEnum, std::__ndk1::basic_string<char, std::__ndk1::char_traits<char>, std::__ndk1::allocator<char> > >)1, std::__ndk1::__variant_detail::__traits, std::__ndk1::allocator<char> >&>(std::__ndk1::__variant_detail::__dtor<std::__ndk1::__variant_detail::__traits<SettingPosEnum, std::__ndk1::basic_string<char, std::__ndk1::char_traits<char>, std::__ndk1::allocator<char> > >, (std::__ndk1::__variant_detail::_Trait)1>, std::__ndk1::__variant_detail::__base<(std::__ndk1::__variant_detail::__traits<SettingPosEnum, std::__ndk1::basic_string<char, std::__ndk1::char_traits<char>, std::__ndk1::allocator<char> > >)1, std::__ndk1::__variant_detail::__traits, std::__ndk1::allocator<char> >&)
PUBLIC b3548 0 SettingTestValue::createNode(float)
PUBLIC b38d8 0 std::__ndk1::shared_ptr<SettingTestValue>::~shared_ptr[abi:ne180000]()
PUBLIC b3928 0 SettingTestValue::~SettingTestValue()
PUBLIC b394c 0 SettingTestValue::load(matjson::Value const&)
PUBLIC b3954 0 SettingTestValue::save(matjson::Value&) const
PUBLIC b395c 0 SettingTestValue::isDefaultValue() const
PUBLIC b3964 0 SettingTestValue::reset()
PUBLIC b3968 0 SettingTestNode::~SettingTestNode()
PUBLIC b39e8 0 SettingTestNode::onCommit()
PUBLIC b39ec 0 SettingTestNode::onResetToDefault()
PUBLIC b39f0 0 SettingTestNode::hasUncommittedChanges() const
PUBLIC b39f8 0 SettingTestNode::hasNonDefaultValue() const
PUBLIC b3a00 0 SettingTestNode::onTestBtn(cocos2d::CCObject*)
PUBLIC b8340 0 SettingTestValue::parse(std::__ndk1::basic_string<char, std::__ndk1::char_traits<char>, std::__ndk1::allocator<char> > const&, std::__ndk1::basic_string<char, std::__ndk1::char_traits<char>, std::__ndk1::allocator<char> > const&, matjson::Value const&)
PUBLIC b85d0 0 geode::JsonExpectedValue::ok<std::__ndk1::shared_ptr<geode::SettingV3> >(std::__ndk1::shared_ptr<geode::SettingV3>)
PUBLIC b8744 0 std::__ndk1::__shared_ptr_emplace<SettingTestValue, std::__ndk1::allocator<SettingTestValue> >::~__shared_ptr_emplace()
PUBLIC b8754 0 std::__ndk1::__shared_ptr_emplace<SettingTestValue, std::__ndk1::allocator<SettingTestValue> >::~__shared_ptr_emplace()
PUBLIC b8784 0 std::__ndk1::__shared_ptr_emplace<SettingTestValue, std::__ndk1::allocator<SettingTestValue> >::__on_zero_shared()
PUBLIC b8790 0 std::__ndk1::__shared_ptr_emplace<SettingTestValue, std::__ndk1::allocator<SettingTestValue> >::__on_zero_shared_weak()
PUBLIC b8794 0 std::__ndk1::__function::__base<geode::Result<std::__ndk1::shared_ptr<geode::SettingV3>, std::__ndk1::basic_string<char, std::__ndk1::char_traits<char>, std::__ndk1::allocator<char> > >(std::__ndk1::basic_string<char, std::__ndk1::char_traits<char>, std::__ndk1::allocator<char> > const&, std::__ndk1::basic_string<char, std::__ndk1::char_traits<char>, std::__ndk1::allocator<char> > const&, matjson::Value const&)>::~__base()
PUBLIC b8798 0 std::__ndk1::__function::__func<geode::Result<std::__ndk1::shared_ptr<geode::SettingV3>, std::__ndk1::basic_string<char, std::__ndk1::char_traits<char>, std::__ndk1::allocator<char> > > (*)(std::__ndk1::basic_string<char, std::__ndk1::char_traits<char>, std::__ndk1::allocator<char> > const&, std::__ndk1::basic_string<char, std::__ndk1::char_traits<char>, std::__ndk1::allocator<char> > const&, matjson::Value const&), std::__ndk1::allocator<geode::Result<std::__ndk1::shared_ptr<geode::SettingV3>, std::__ndk1::basic_string<char, std::__ndk1::char_traits<char>, std::__ndk1::allocator<char> > > (*)(std::__ndk1::basic_string<char, std::__ndk1::char_traits<char>, std::__ndk1::allocator<char> > const&, std::__ndk1::basic_string<char, std::__ndk1::char_traits<char>, std::__ndk1::allocator<char> > const&, matjson::Value const&)>, geode::Result<std::__ndk1::shared_ptr<geode::SettingV3>, std::__ndk1::basic_string<char, std::__ndk1::char_traits<char>, std::__ndk1::allocator<char> > >(std::__ndk1::basic_string<char, std::__ndk1::char_traits<char>, std::__ndk1::allocator<char> > const&, std::__ndk1::basic_string<char, std::__ndk1::char_traits<char>, std::__ndk1::allocator<char> > const&, matjson::Value const&)>::~__func()
PUBLIC b879c 0 std::__ndk1::__function::__func<geode::Result<std::__ndk1::shared_ptr<geode::SettingV3>, std::__ndk1::basic_string<char, std::__ndk1::char_traits<char>, std::__ndk1::allocator<char> > > (*)(std::__ndk1::basic_string<char, std::__ndk1::char_traits<char>, std::__ndk1::allocator<char> > const&, std::__ndk1::basic_string<char, std::__ndk1::char_traits<char>, std::__ndk1::allocator<char> > const&, matjson::Value const&), std::__ndk1::allocator<geode::Result<std::__ndk1::shared_ptr<geode::SettingV3>, std::__ndk1::basic_string<char, std::__ndk1::char_traits<char>, std::__ndk1::allocator<char> > > (*)(std::__ndk1::basic_string<char, std::__ndk1::char_traits<char>, std::__ndk1::allocator<char> > const&, std::__ndk1::basic_string<char, std::__ndk1::char_traits<char>, std::__ndk1::allocator<char> > const&, matjson::Value const&)>, geode::Result<std::__ndk1::shared_ptr<geode::SettingV3>, std::__ndk1::basic_string<char, std::__ndk1::char_traits<char>, std::__ndk1::allocator<char> > >(std::__ndk1::basic_string<char, std::__ndk1::char_traits<char>, std::__ndk1::allocator<char> > const&, std::__ndk1::basic_string<char, std::__ndk1::char_traits<char>, std::__ndk1::allocator<char> > const&, matjson::Value const&)>::__clone() const
PUBLIC b87d0 0 std::__ndk1::__function::__func<geode::Result<std::__ndk1::shared_ptr<geode::SettingV3>, std::__ndk1::basic_string<char, std::__ndk1::char_traits<char>, std::__ndk1::allocator<char> > > (*)(std::__ndk1::basic_string<char, std::__ndk1::char_traits<char>, std::__ndk1::allocator<char> > const&, std::__ndk1::basic_string<char, std::__ndk1::char_traits<char>, std::__ndk1::allocator<char> > const&, matjson::Value const&), std::__ndk1::allocator<geode::Result<std::__ndk1::shared_ptr<geode::SettingV3>, std::__ndk1::basic_string<char, std::__ndk1::char_traits<char>, std::__ndk1::allocator<char> > > (*)(std::__ndk1::basic_string<char, std::__ndk1::char_traits<char>, std::__ndk1::allocator<char> > const&, std::__ndk1::basic_string<char, std::__ndk1::char_traits<char>, std::__ndk1::allocator<char> > const&, matjson::Value const&)>, geode::Result<std::__ndk1::shared_ptr<geode::SettingV3>, std::__ndk1::basic_string<char, std::__ndk1::char_traits<char>, std::__ndk1::allocator<char> > >(std::__ndk1::basic_string<char, std::__ndk1::char_traits<char>, std::__ndk1::allocator<char> > const&, std::__ndk1::basic_string<char, std::__ndk1::char_traits<char>, std::__ndk1::allocator<char> > const&, matjson::Value const&)>::__clone(std::__ndk1::__function::__base<geode::Result<std::__ndk1::shared_ptr<geode::SettingV3>, std::__ndk1::basic_string<char, std::__ndk1::char_traits<char>, std::__ndk1::allocator<char> > >(std::__ndk1::basic_string<char, std::__ndk1::char_traits<char>, std::__ndk1::allocator<char> > const&, std::__ndk1::basic_string<char, std::__ndk1::char_traits<char>, std::__ndk1::allocator<char> > const&, matjson::Value const&)>*) const
PUBLIC b87e4 0 std::__ndk1::__function::__func<geode::Result<std::__ndk1::shared_ptr<geode::SettingV3>, std::__ndk1::basic_string<char, std::__ndk1::char_traits<char>, std::__ndk1::allocator<char> > > (*)(std::__ndk1::basic_string<char, std::__ndk1::char_traits<char>, std::__ndk1::allocator<char> > const&, std::__ndk1::basic_string<char, std::__ndk1::char_traits<char>, std::__ndk1::allocator<char> > const&, matjson::Value const&), std::__ndk1::allocator<geode::Result<std::__ndk1::shared_ptr<geode::SettingV3>, std::__ndk1::basic_string<char, std::__ndk1::char_traits<char>, std::__ndk1::allocator<char> > > (*)(std::__ndk1::basic_string<char, std::__ndk1::char_traits<char>, std::__ndk1::allocator<char> > const&, std::__ndk1::basic_string<char, std::__ndk1::char_traits<char>, std::__ndk1::allocator<char> > const&, matjson::Value const&)>, geode::Result<std::__ndk1::shared_ptr<geode::SettingV3>, std::__ndk1::basic_string<char, std::__ndk1::char_traits<char>, std::__ndk1::allocator<char> > >(std::__ndk1::basic_string<char, std::__ndk1::char_traits<char>, std::__ndk1::allocator<char> > const&, std::__ndk1::basic_string<char, std::__ndk1::char_traits<char>, std::__ndk1::allocator<char> > const&, matjson::Value const&)>::destroy()
PUBLIC b87e8 0 std::__ndk1::__function::__func<geode::Result<std::__ndk1::shared_ptr<geode::SettingV3>, std::__ndk1::basic_string<char, std::__ndk1::char_traits<char>, std::__ndk1::allocator<char> > > (*)(std::__ndk1::basic_string<char, std::__ndk1::char_traits<char>, std::__ndk1::allocator<char> > const&, std::__ndk1::basic_string<char, std::__ndk1::char_traits<char>, std::__ndk1::allocator<char> > const&, matjson::Value const&), std::__ndk1::allocator<geode::Result<std::__ndk1::shared_ptr<geode::SettingV3>, std::__ndk1::basic_string<char, std::__ndk1::char_traits<char>, std::__ndk1::allocator<char> > > (*)(std::__ndk1::basic_string<char, std::__ndk1::char_traits<char>, std::__ndk1::allocator<char> > const&, std::__ndk1::basic_string<char, std::__ndk1::char_traits<char>, std::__ndk1::allocator<char> > const&, matjson::Value const&)>, geode::Result<std::__ndk1::shared_ptr<geode::SettingV3>, std::__ndk1::basic_string<char, std::__ndk1::char_traits<char>, std::__ndk1::allocator<char> > >(std::__ndk1::basic_string<char, std::__ndk1::char_traits<char>, std::__ndk1::allocator<char> > const&, std::__ndk1::basic_string<char, std::__ndk1::char_traits<char>, std::__ndk1::allocator<char> > const&, matjson::Value const&)>::destroy_deallocate()
PUBLIC b87ec 0 std::__ndk1::__function::__func<geode::Result<std::__ndk1::shared_ptr<geode::SettingV3>, std::__ndk1::basic_string<char, std::__ndk1::char_traits<char>, std::__ndk1::allocator<char> > > (*)(std::__ndk1::basic_string<char, std::__ndk1::char_traits<char>, std::__ndk1::allocator<char> > const&, std::__ndk1::basic_string<char, std::__ndk1::char_traits<char>, std::__ndk1::allocator<char> > const&, matjson::Value const&), std::__ndk1::allocator<geode::Result<std::__ndk1::shared_ptr<geode::SettingV3>, std::__ndk1::basic_string<char, std::__ndk1::char_traits<char>, std::__ndk1::allocator<char> > > (*)(std::__ndk1::basic_string<char, std::__ndk1::char_traits<char>, std::__ndk1::allocator<char> > const&, std::__ndk1::basic_string<char, std::__ndk1::char_traits<char>, std::__ndk1::allocator<char> > const&, matjson::Value const&)>, geode::Result<std::__ndk1::shared_ptr<geode::SettingV3>, std::__ndk1::basic_string<char, std::__ndk1::char_traits<char>, std::__ndk1::allocator<char> > >(std::__ndk1::basic_string<char, std::__ndk1::char_traits<char>, std::__ndk1::allocator<char> > const&, std::__ndk1::basic_string<char, std::__ndk1::char_traits<char>, std::__ndk1::allocator<char> > const&, matjson::Value const&)>::operator()(std::__ndk1::basic_string<char, std::__ndk1::char_traits<char>, std::__ndk1::allocator<char> > const&, std::__ndk1::basic_string<char, std::__ndk1::char_traits<char>, std::__ndk1::allocator<char> > const&, matjson::Value const&)
PUBLIC b8800 0 std::__ndk1::__function::__func<geode::Result<std::__ndk1::shared_ptr<geode::SettingV3>, std::__ndk1::basic_string<char, std::__ndk1::char_traits<char>, std::__ndk1::allocator<char> > > (*)(std::__ndk1::basic_string<char, std::__ndk1::char_traits<char>, std::__ndk1::allocator<char> > const&, std::__ndk1::basic_string<char, std::__ndk1::char_traits<char>, std::__ndk1::allocator<char> > const&, matjson::Value const&), std::__ndk1::allocator<geode::Result<std::__ndk1::shared_ptr<geode::SettingV3>, std::__ndk1::basic_string<char, std::__ndk1::char_traits<char>, std::__ndk1::allocator<char> > > (*)(std::__ndk1::basic_string<char, std::__ndk1::char_traits<char>, std::__ndk1::allocator<char> > const&, std::__ndk1::basic_string<char, std::__ndk1::char_traits<char>, std::__ndk1::allocator<char> > const&, matjson::Value const&)>, geode::Result<std::__ndk1::shared_ptr<geode::SettingV3>, std::__ndk1::basic_string<char, std::__ndk1::char_traits<char>, std::__ndk1::allocator<char> > >(std::__ndk1::basic_string<char, std::__ndk1::char_traits<char>, std::__ndk1::allocator<char> > const&, std::__ndk1::basic_string<char, std::__ndk1::char_traits<char>, std::__ndk1::allocator<char> > const&, matjson::Value const&)>::target(std::type_info const&) const
PUBLIC b881c 0 std::__ndk1::__function::__func<geode::Result<std::__ndk1::shared_ptr<geode::SettingV3>, std::__ndk1::basic_string<char, std::__ndk1::char_traits<char>, std::__ndk1::allocator<char> > > (*)(std::__ndk1::basic_string<char, std::__ndk1::char_traits<char>, std::__ndk1::allocator<char> > const&, std::__ndk1::basic_string<char, std::__ndk1::char_traits<char>, std::__ndk1::allocator<char> > const&, matjson::Value const&), std::__ndk1::allocator<geode::Result<std::__ndk1::shared_ptr<geode::SettingV3>, std::__ndk1::basic_string<char, std::__ndk1::char_traits<char>, std::__ndk1::allocator<char> > > (*)(std::__ndk1::basic_string<char, std::__ndk1::char_traits<char>, std::__ndk1::allocator<char> > const&, std::__ndk1::basic_string<char, std::__ndk1::char_traits<char>, std::__ndk1::allocator<char> > const&, matjson::Value const&)>, geode::Result<std::__ndk1::shared_ptr<geode::SettingV3>, std::__ndk1::basic_string<char, std::__ndk1::char_traits<char>, std::__ndk1::allocator<char> > >(std::__ndk1::basic_string<char, std::__ndk1::char_traits<char>, std::__ndk1::allocator<char> > const&, std::__ndk1::basic_string<char, std::__ndk1::char_traits<char>, std::__ndk1::allocator<char> > const&, matjson::Value const&)>::target_type() const
PUBLIC b8828 0 _GLOBAL__sub_I_TestButton.cpp
PUBLIC b8960 0 EventLevelInformation::setup()
PUBLIC b8cc8 0 EventLevelInformation::~EventLevelInformation()
PUBLIC b8e04 0 EventLevelInformation::~EventLevelInformation()
PUBLIC b8e28 0 {virtual override thunk({offset(-320)}, EventLevelInformation::~EventLevelInformation())}
PUBLIC b8e30 0 {virtual override thunk({offset(-320)}, EventLevelInformation::~EventLevelInformation())}
PUBLIC b8e58 0 __cxx_global_var_init
PUBLIC b92d8 0 geode::modifier::ModifyBase<geode::modifier::ModifyDerive<EventPage, DailyLevelPage> >::~ModifyBase()
PUBLIC b92f4 0 geode::modifier::ModifyDerive<EventPage, DailyLevelPage>::apply()
PUBLIC b9660 0 geode::modifier::ModifyBase<geode::modifier::ModifyDerive<EventPage, DailyLevelPage> >::apply()
PUBLIC b9664 0 geode::modifier::AsStaticFunction_init<EventPage, bool (EventPage::*)(GJTimedLevelType)>::Impl<bool (EventPage::*)(GJTimedLevelType)>::function(EventPage*, GJTimedLevelType)
PUBLIC b978c 0 EventPage::onInfo(cocos2d::CCObject*)
PUBLIC b99b0 0 std::__ndk1::__function::__base<void (geode::Task<geode::utils::web::WebResponse, geode::utils::web::WebProgress>::Event*)>::~__base()
PUBLIC b99b4 0 std::__ndk1::__function::__func<EventLevelInformation::loadPage()::$_0, std::__ndk1::allocator<EventLevelInformation::loadPage()::$_0>, void (geode::Task<geode::utils::web::WebResponse, geode::utils::web::WebProgress>::Event*)>::~__func()
PUBLIC b99b8 0 std::__ndk1::__function::__func<EventLevelInformation::loadPage()::$_0, std::__ndk1::allocator<EventLevelInformation::loadPage()::$_0>, void (geode::Task<geode::utils::web::WebResponse, geode::utils::web::WebProgress>::Event*)>::__clone() const
PUBLIC b99ec 0 std::__ndk1::__function::__func<EventLevelInformation::loadPage()::$_0, std::__ndk1::allocator<EventLevelInformation::loadPage()::$_0>, void (geode::Task<geode::utils::web::WebResponse, geode::utils::web::WebProgress>::Event*)>::__clone(std::__ndk1::__function::__base<void (geode::Task<geode::utils::web::WebResponse, geode::utils::web::WebProgress>::Event*)>*) const
PUBLIC b9a00 0 std::__ndk1::__function::__func<EventLevelInformation::loadPage()::$_0, std::__ndk1::allocator<EventLevelInformation::loadPage()::$_0>, void (geode::Task<geode::utils::web::WebResponse, geode::utils::web::WebProgress>::Event*)>::destroy()
PUBLIC b9a04 0 std::__ndk1::__function::__func<EventLevelInformation::loadPage()::$_0, std::__ndk1::allocator<EventLevelInformation::loadPage()::$_0>, void (geode::Task<geode::utils::web::WebResponse, geode::utils::web::WebProgress>::Event*)>::destroy_deallocate()
PUBLIC b9a08 0 std::__ndk1::__function::__func<EventLevelInformation::loadPage()::$_0, std::__ndk1::allocator<EventLevelInformation::loadPage()::$_0>, void (geode::Task<geode::utils::web::WebResponse, geode::utils::web::WebProgress>::Event*)>::operator()(geode::Task<geode::utils::web::WebResponse, geode::utils::web::WebProgress>::Event*&&)
PUBLIC b9ca4 0 std::__ndk1::__function::__func<EventLevelInformation::loadPage()::$_0, std::__ndk1::allocator<EventLevelInformation::loadPage()::$_0>, void (geode::Task<geode::utils::web::WebResponse, geode::utils::web::WebProgress>::Event*)>::target(std::type_info const&) const
PUBLIC b9cc0 0 std::__ndk1::__function::__func<EventLevelInformation::loadPage()::$_0, std::__ndk1::allocator<EventLevelInformation::loadPage()::$_0>, void (geode::Task<geode::utils::web::WebResponse, geode::utils::web::WebProgress>::Event*)>::target_type() const
PUBLIC b9ccc 0 std::__ndk1::vector<unsigned char, std::__ndk1::allocator<unsigned char> >::__throw_length_error[abi:ne180000]() const
PUBLIC b9ce0 0 std::__ndk1::__thread_proxy[abi:ne180000]<std::__ndk1::tuple<std::__ndk1::unique_ptr<std::__ndk1::__thread_struct, std::__ndk1::default_delete<std::__ndk1::unique_ptr> >, EventLevelInformation::loadPage()::$_0::operator()(geode::Task<$_0::utils::web::WebResponse, $_0::utils::WebProgress>::Event*) const::{lambda()#1}> >(std::__ndk1::tuple<std::__ndk1::unique_ptr<std::__ndk1::__thread_struct, std::__ndk1::default_delete<std::__ndk1::unique_ptr> >, EventLevelInformation::loadPage()::$_0::operator()(geode::Task<$_0::utils::web::WebResponse, $_0::utils::WebProgress>::Event*) const::{lambda()#1}>)
PUBLIC b9e88 0 std::__ndk1::unique_ptr<std::__ndk1::tuple<std::__ndk1::unique_ptr<std::__ndk1::__thread_struct, std::__ndk1::default_delete<std::__ndk1::__thread_struct> >, EventLevelInformation::loadPage()::$_0::operator()(geode::Task<geode::utils::web::WebResponse, geode::utils::web::WebProgress>::Event*) const::{lambda()#1}>, std::__ndk1::default_delete<std::__ndk1::tuple<std::__ndk1::unique_ptr<std::__ndk1::__thread_struct, std::__ndk1::default_delete<std::__ndk1::__thread_struct> >, EventLevelInformation::loadPage()::$_0::operator()(geode::Task<geode::utils::web::WebResponse, geode::utils::web::WebProgress>::Event*) const::{lambda()#1}> > >::~unique_ptr[abi:ne180000]()
PUBLIC b9ee8 0 std::__ndk1::unique_ptr<std::__ndk1::__thread_struct, std::__ndk1::default_delete<std::__ndk1::__thread_struct> >::~unique_ptr[abi:ne180000]()
PUBLIC b9f24 0 std::__ndk1::__function::__base<void ()>::~__base()
PUBLIC b9f28 0 std::__ndk1::__function::__func<EventLevelInformation::loadPage()::$_0::operator()(geode::Task<geode::utils::web::WebResponse, geode::utils::web::WebProgress>::Event*) const::{lambda()#1}::operator()() const::{lambda()#1}, std::__ndk1::allocator<EventLevelInformation::loadPage()::$_0::operator()(geode::Task<geode::utils::web::WebResponse, geode::utils::web::WebProgress>::Event*) const::{lambda()#1}::operator()() const::{lambda()#1}>, void ()>::~__func()
PUBLIC b9f2c 0 std::__ndk1::__function::__func<EventLevelInformation::loadPage()::$_0::operator()(geode::Task<geode::utils::web::WebResponse, geode::utils::web::WebProgress>::Event*) const::{lambda()#1}::operator()() const::{lambda()#1}, std::__ndk1::allocator<EventLevelInformation::loadPage()::$_0::operator()(geode::Task<geode::utils::web::WebResponse, geode::utils::web::WebProgress>::Event*) const::{lambda()#1}::operator()() const::{lambda()#1}>, void ()>::__clone() const
PUBLIC b9f60 0 std::__ndk1::__function::__func<EventLevelInformation::loadPage()::$_0::operator()(geode::Task<geode::utils::web::WebResponse, geode::utils::web::WebProgress>::Event*) const::{lambda()#1}::operator()() const::{lambda()#1}, std::__ndk1::allocator<EventLevelInformation::loadPage()::$_0::operator()(geode::Task<geode::utils::web::WebResponse, geode::utils::web::WebProgress>::Event*) const::{lambda()#1}::operator()() const::{lambda()#1}>, void ()>::__clone(std::__ndk1::__function::__base<void ()>*) const
PUBLIC b9f74 0 std::__ndk1::__function::__func<EventLevelInformation::loadPage()::$_0::operator()(geode::Task<geode::utils::web::WebResponse, geode::utils::web::WebProgress>::Event*) const::{lambda()#1}::operator()() const::{lambda()#1}, std::__ndk1::allocator<EventLevelInformation::loadPage()::$_0::operator()(geode::Task<geode::utils::web::WebResponse, geode::utils::web::WebProgress>::Event*) const::{lambda()#1}::operator()() const::{lambda()#1}>, void ()>::destroy()
PUBLIC b9f78 0 std::__ndk1::__function::__func<EventLevelInformation::loadPage()::$_0::operator()(geode::Task<geode::utils::web::WebResponse, geode::utils::web::WebProgress>::Event*) const::{lambda()#1}::operator()() const::{lambda()#1}, std::__ndk1::allocator<EventLevelInformation::loadPage()::$_0::operator()(geode::Task<geode::utils::web::WebResponse, geode::utils::web::WebProgress>::Event*) const::{lambda()#1}::operator()() const::{lambda()#1}>, void ()>::destroy_deallocate()
PUBLIC b9f7c 0 std::__ndk1::__function::__func<EventLevelInformation::loadPage()::$_0::operator()(geode::Task<geode::utils::web::WebResponse, geode::utils::web::WebProgress>::Event*) const::{lambda()#1}::operator()() const::{lambda()#1}, std::__ndk1::allocator<EventLevelInformation::loadPage()::$_0::operator()(geode::Task<geode::utils::web::WebResponse, geode::utils::web::WebProgress>::Event*) const::{lambda()#1}::operator()() const::{lambda()#1}>, void ()>::operator()()
PUBLIC ba09c 0 std::__ndk1::__function::__func<EventLevelInformation::loadPage()::$_0::operator()(geode::Task<geode::utils::web::WebResponse, geode::utils::web::WebProgress>::Event*) const::{lambda()#1}::operator()() const::{lambda()#1}, std::__ndk1::allocator<EventLevelInformation::loadPage()::$_0::operator()(geode::Task<geode::utils::web::WebResponse, geode::utils::web::WebProgress>::Event*) const::{lambda()#1}::operator()() const::{lambda()#1}>, void ()>::target(std::type_info const&) const
PUBLIC ba0b8 0 std::__ndk1::__function::__func<EventLevelInformation::loadPage()::$_0::operator()(geode::Task<geode::utils::web::WebResponse, geode::utils::web::WebProgress>::Event*) const::{lambda()#1}::operator()() const::{lambda()#1}, std::__ndk1::allocator<EventLevelInformation::loadPage()::$_0::operator()(geode::Task<geode::utils::web::WebResponse, geode::utils::web::WebProgress>::Event*) const::{lambda()#1}::operator()() const::{lambda()#1}>, void ()>::target_type() const
PUBLIC ba0c4 0 __cxx_global_var_init
PUBLIC ba544 0 geode::modifier::ModifyBase<geode::modifier::ModifyDerive<CustomGauntletSelectLayer, GauntletSelectLayer> >::~ModifyBase()
PUBLIC ba560 0 geode::modifier::ModifyDerive<CustomGauntletSelectLayer, GauntletSelectLayer>::apply()
PUBLIC bab8c 0 geode::modifier::ModifyBase<geode::modifier::ModifyDerive<CustomGauntletSelectLayer, GauntletSelectLayer> >::apply()
PUBLIC bab90 0 geode::modifier::AsStaticFunction_init<CustomGauntletSelectLayer, bool (CustomGauntletSelectLayer::*)(int)>::Impl<bool (CustomGauntletSelectLayer::*)(int)>::function(CustomGauntletSelectLayer*, int)
PUBLIC bae28 0 std::__ndk1::basic_string<char, std::__ndk1::char_traits<char>, std::__ndk1::allocator<char> >::basic_string[abi:ne180000]<0>()
PUBLIC baec4 0 geode::modifier::AsStaticFunction_setupGauntlets<CustomGauntletSelectLayer, void (CustomGauntletSelectLayer::*)()>::Impl<void (CustomGauntletSelectLayer::*)()>::function(CustomGauntletSelectLayer*)
PUBLIC baec8 0 CustomGauntletSelectLayer::onInfoBtn(cocos2d::CCObject*)
PUBLIC baf7c 0 CustomGauntletSelectLayer::setupGauntlets()
PUBLIC c227c 0 __cxx_global_var_init
PUBLIC c26b8 0 geode::modifier::ModifyBase<geode::modifier::ModifyDerive<hook125<(anonymous namespace)::hook125Parent>, GJGarageLayer> >::~ModifyBase()
PUBLIC c26d4 0 geode::modifier::ModifyDerive<hook125<(anonymous namespace)::hook125Parent>, GJGarageLayer>::apply()
PUBLIC c2a54 0 geode::modifier::ModifyBase<geode::modifier::ModifyDerive<hook125<(anonymous namespace)::hook125Parent>, GJGarageLayer> >::apply()
PUBLIC c2a58 0 geode::modifier::AsStaticFunction_onSelect<hook125<(anonymous namespace)::hook125Parent>, void (hook125<(anonymous namespace)::hook125Parent>::*)(cocos2d::CCObject*)>::Impl<void (hook125<(anonymous namespace)::hook125Parent>::*)(cocos2d::CCObject*)>::function(hook125<(anonymous namespace)::hook125Parent>*, cocos2d::CCObject*)
PUBLIC c3010 0 IconLockColors::getPlayer(cocos2d::CCScene*)
PUBLIC c31b4 0 IconLockColors::onP1(cocos2d::CCObject*)
PUBLIC c328c 0 IconLockColors::onP2(cocos2d::CCObject*)
PUBLIC c3364 0 IconLockColors::onGlow(cocos2d::CCObject*)
PUBLIC c33e4 0 __cxx_global_var_init.1
PUBLIC c3820 0 _GLOBAL__sub_I_NewGJCommentList.cpp
PUBLIC c383c 0 geode::modifier::ModifyBase<geode::modifier::ModifyDerive<hook13<(anonymous namespace)::hook13Parent>, CommentCell> >::~ModifyBase()
PUBLIC c3858 0 geode::modifier::ModifyDerive<hook13<(anonymous namespace)::hook13Parent>, CommentCell>::apply()
PUBLIC c3be0 0 geode::modifier::ModifyBase<geode::modifier::ModifyDerive<hook13<(anonymous namespace)::hook13Parent>, CommentCell> >::apply()
PUBLIC c3be4 0 geode::modifier::AsStaticFunction_loadFromComment<hook13<(anonymous namespace)::hook13Parent>, void (hook13<(anonymous namespace)::hook13Parent>::*)(GJComment*)>::Impl<void (hook13<(anonymous namespace)::hook13Parent>::*)(GJComment*)>::function(hook13<(anonymous namespace)::hook13Parent>*, GJComment*)
PUBLIC c42d4 0 geode::modifier::FieldIntermediate<hook13<(anonymous namespace)::hook13Parent>, CommentCell>::operator->()
PUBLIC c4504 0 cocos2d::CCInteger::~CCInteger()
PUBLIC c4528 0 cocos2d::CCInteger::acceptVisitor(cocos2d::CCDataVisitor&)
PUBLIC c4540 0 cocos2d::CCObject::update(float)
PUBLIC c4544 0 std::__ndk1::__function::__func<hook13<(anonymous namespace)::hook13Parent>::loadFromComment(GJComment*)::{lambda(std::__ndk1::basic_string<char, std::__ndk1::char_traits<char>, std::__ndk1::allocator<char> > const&)#1}, std::__ndk1::allocator<hook13<(anonymous namespace)::hook13Parent>::loadFromComment(GJComment*)::{lambda(std::__ndk1::basic_string<char, std::__ndk1::char_traits<char>, std::__ndk1::allocator<char> > const&)#1}>, void (std::__ndk1::basic_string<char, std::__ndk1::char_traits<char>, std::__ndk1::allocator<char> > const&)>::~__func()
PUBLIC c4548 0 std::__ndk1::__function::__func<hook13<(anonymous namespace)::hook13Parent>::loadFromComment(GJComment*)::{lambda(std::__ndk1::basic_string<char, std::__ndk1::char_traits<char>, std::__ndk1::allocator<char> > const&)#1}, std::__ndk1::allocator<hook13<(anonymous namespace)::hook13Parent>::loadFromComment(GJComment*)::{lambda(std::__ndk1::basic_string<char, std::__ndk1::char_traits<char>, std::__ndk1::allocator<char> > const&)#1}>, void (std::__ndk1::basic_string<char, std::__ndk1::char_traits<char>, std::__ndk1::allocator<char> > const&)>::__clone() const
PUBLIC c4580 0 std::__ndk1::__function::__func<hook13<(anonymous namespace)::hook13Parent>::loadFromComment(GJComment*)::{lambda(std::__ndk1::basic_string<char, std::__ndk1::char_traits<char>, std::__ndk1::allocator<char> > const&)#1}, std::__ndk1::allocator<hook13<(anonymous namespace)::hook13Parent>::loadFromComment(GJComment*)::{lambda(std::__ndk1::basic_string<char, std::__ndk1::char_traits<char>, std::__ndk1::allocator<char> > const&)#1}>, void (std::__ndk1::basic_string<char, std::__ndk1::char_traits<char>, std::__ndk1::allocator<char> > const&)>::__clone(std::__ndk1::__function::__base<void (std::__ndk1::basic_string<char, std::__ndk1::char_traits<char>, std::__ndk1::allocator<char> > const&)>*) const
PUBLIC c4598 0 std::__ndk1::__function::__func<hook13<(anonymous namespace)::hook13Parent>::loadFromComment(GJComment*)::{lambda(std::__ndk1::basic_string<char, std::__ndk1::char_traits<char>, std::__ndk1::allocator<char> > const&)#1}, std::__ndk1::allocator<hook13<(anonymous namespace)::hook13Parent>::loadFromComment(GJComment*)::{lambda(std::__ndk1::basic_string<char, std::__ndk1::char_traits<char>, std::__ndk1::allocator<char> > const&)#1}>, void (std::__ndk1::basic_string<char, std::__ndk1::char_traits<char>, std::__ndk1::allocator<char> > const&)>::destroy()
PUBLIC c459c 0 std::__ndk1::__function::__func<hook13<(anonymous namespace)::hook13Parent>::loadFromComment(GJComment*)::{lambda(std::__ndk1::basic_string<char, std::__ndk1::char_traits<char>, std::__ndk1::allocator<char> > const&)#1}, std::__ndk1::allocator<hook13<(anonymous namespace)::hook13Parent>::loadFromComment(GJComment*)::{lambda(std::__ndk1::basic_string<char, std::__ndk1::char_traits<char>, std::__ndk1::allocator<char> > const&)#1}>, void (std::__ndk1::basic_string<char, std::__ndk1::char_traits<char>, std::__ndk1::allocator<char> > const&)>::destroy_deallocate()
PUBLIC c45a0 0 std::__ndk1::__function::__func<hook13<(anonymous namespace)::hook13Parent>::loadFromComment(GJComment*)::{lambda(std::__ndk1::basic_string<char, std::__ndk1::char_traits<char>, std::__ndk1::allocator<char> > const&)#1}, std::__ndk1::allocator<hook13<(anonymous namespace)::hook13Parent>::loadFromComment(GJComment*)::{lambda(std::__ndk1::basic_string<char, std::__ndk1::char_traits<char>, std::__ndk1::allocator<char> > const&)#1}>, void (std::__ndk1::basic_string<char, std::__ndk1::char_traits<char>, std::__ndk1::allocator<char> > const&)>::operator()(std::__ndk1::basic_string<char, std::__ndk1::char_traits<char>, std::__ndk1::allocator<char> > const&)
PUBLIC c5724 0 std::__ndk1::__function::__func<hook13<(anonymous namespace)::hook13Parent>::loadFromComment(GJComment*)::{lambda(std::__ndk1::basic_string<char, std::__ndk1::char_traits<char>, std::__ndk1::allocator<char> > const&)#1}, std::__ndk1::allocator<hook13<(anonymous namespace)::hook13Parent>::loadFromComment(GJComment*)::{lambda(std::__ndk1::basic_string<char, std::__ndk1::char_traits<char>, std::__ndk1::allocator<char> > const&)#1}>, void (std::__ndk1::basic_string<char, std::__ndk1::char_traits<char>, std::__ndk1::allocator<char> > const&)>::target(std::type_info const&) const
PUBLIC c5740 0 std::__ndk1::__function::__func<hook13<(anonymous namespace)::hook13Parent>::loadFromComment(GJComment*)::{lambda(std::__ndk1::basic_string<char, std::__ndk1::char_traits<char>, std::__ndk1::allocator<char> > const&)#1}, std::__ndk1::allocator<hook13<(anonymous namespace)::hook13Parent>::loadFromComment(GJComment*)::{lambda(std::__ndk1::basic_string<char, std::__ndk1::char_traits<char>, std::__ndk1::allocator<char> > const&)#1}>, void (std::__ndk1::basic_string<char, std::__ndk1::char_traits<char>, std::__ndk1::allocator<char> > const&)>::target_type() const
PUBLIC c574c 0 cocos2d::CCFloat::~CCFloat()
PUBLIC c5770 0 cocos2d::CCFloat::acceptVisitor(cocos2d::CCDataVisitor&)
PUBLIC c5788 0 geode::modifier::FieldIntermediate<hook13<(anonymous namespace)::hook13Parent>, CommentCell>::fieldDestructor(void*)
PUBLIC c5824 0 std::__ndk1::__function::__func<hook13<(anonymous namespace)::hook13Parent>::loadFromComment(GJComment*)::{lambda(geode::Task<geode::utils::web::WebResponse, geode::utils::web::WebProgress>::Event*)#1}, std::__ndk1::allocator<hook13<(anonymous namespace)::hook13Parent>::loadFromComment(GJComment*)::{lambda(geode::Task<geode::utils::web::WebResponse, geode::utils::web::WebProgress>::Event*)#1}>, void (geode::Task<geode::utils::web::WebResponse, geode::utils::web::WebProgress>::Event*)>::~__func()
PUBLIC c5870 0 std::__ndk1::__function::__func<hook13<(anonymous namespace)::hook13Parent>::loadFromComment(GJComment*)::{lambda(geode::Task<geode::utils::web::WebResponse, geode::utils::web::WebProgress>::Event*)#1}, std::__ndk1::allocator<hook13<(anonymous namespace)::hook13Parent>::loadFromComment(GJComment*)::{lambda(geode::Task<geode::utils::web::WebResponse, geode::utils::web::WebProgress>::Event*)#1}>, void (geode::Task<geode::utils::web::WebResponse, geode::utils::web::WebProgress>::Event*)>::~__func()
PUBLIC c58cc 0 std::__ndk1::__function::__func<hook13<(anonymous namespace)::hook13Parent>::loadFromComment(GJComment*)::{lambda(geode::Task<geode::utils::web::WebResponse, geode::utils::web::WebProgress>::Event*)#1}, std::__ndk1::allocator<hook13<(anonymous namespace)::hook13Parent>::loadFromComment(GJComment*)::{lambda(geode::Task<geode::utils::web::WebResponse, geode::utils::web::WebProgress>::Event*)#1}>, void (geode::Task<geode::utils::web::WebResponse, geode::utils::web::WebProgress>::Event*)>::__clone() const
PUBLIC c5960 0 std::__ndk1::__function::__func<hook13<(anonymous namespace)::hook13Parent>::loadFromComment(GJComment*)::{lambda(geode::Task<geode::utils::web::WebResponse, geode::utils::web::WebProgress>::Event*)#1}, std::__ndk1::allocator<hook13<(anonymous namespace)::hook13Parent>::loadFromComment(GJComment*)::{lambda(geode::Task<geode::utils::web::WebResponse, geode::utils::web::WebProgress>::Event*)#1}>, void (geode::Task<geode::utils::web::WebResponse, geode::utils::web::WebProgress>::Event*)>::__clone(std::__ndk1::__function::__base<void (geode::Task<geode::utils::web::WebResponse, geode::utils::web::WebProgress>::Event*)>*) const
PUBLIC c59dc 0 std::__ndk1::__function::__func<hook13<(anonymous namespace)::hook13Parent>::loadFromComment(GJComment*)::{lambda(geode::Task<geode::utils::web::WebResponse, geode::utils::web::WebProgress>::Event*)#1}, std::__ndk1::allocator<hook13<(anonymous namespace)::hook13Parent>::loadFromComment(GJComment*)::{lambda(geode::Task<geode::utils::web::WebResponse, geode::utils::web::WebProgress>::Event*)#1}>, void (geode::Task<geode::utils::web::WebResponse, geode::utils::web::WebProgress>::Event*)>::destroy()
PUBLIC c5a1c 0 std::__ndk1::__function::__func<hook13<(anonymous namespace)::hook13Parent>::loadFromComment(GJComment*)::{lambda(geode::Task<geode::utils::web::WebResponse, geode::utils::web::WebProgress>::Event*)#1}, std::__ndk1::allocator<hook13<(anonymous namespace)::hook13Parent>::loadFromComment(GJComment*)::{lambda(geode::Task<geode::utils::web::WebResponse, geode::utils::web::WebProgress>::Event*)#1}>, void (geode::Task<geode::utils::web::WebResponse, geode::utils::web::WebProgress>::Event*)>::destroy_deallocate()
PUBLIC c5a6c 0 std::__ndk1::__function::__func<hook13<(anonymous namespace)::hook13Parent>::loadFromComment(GJComment*)::{lambda(geode::Task<geode::utils::web::WebResponse, geode::utils::web::WebProgress>::Event*)#1}, std::__ndk1::allocator<hook13<(anonymous namespace)::hook13Parent>::loadFromComment(GJComment*)::{lambda(geode::Task<geode::utils::web::WebResponse, geode::utils::web::WebProgress>::Event*)#1}>, void (geode::Task<geode::utils::web::WebResponse, geode::utils::web::WebProgress>::Event*)>::operator()(geode::Task<geode::utils::web::WebResponse, geode::utils::web::WebProgress>::Event*&&)
PUBLIC c5bb0 0 std::__ndk1::__function::__func<hook13<(anonymous namespace)::hook13Parent>::loadFromComment(GJComment*)::{lambda(geode::Task<geode::utils::web::WebResponse, geode::utils::web::WebProgress>::Event*)#1}, std::__ndk1::allocator<hook13<(anonymous namespace)::hook13Parent>::loadFromComment(GJComment*)::{lambda(geode::Task<geode::utils::web::WebResponse, geode::utils::web::WebProgress>::Event*)#1}>, void (geode::Task<geode::utils::web::WebResponse, geode::utils::web::WebProgress>::Event*)>::target(std::type_info const&) const
PUBLIC c5bcc 0 std::__ndk1::__function::__func<hook13<(anonymous namespace)::hook13Parent>::loadFromComment(GJComment*)::{lambda(geode::Task<geode::utils::web::WebResponse, geode::utils::web::WebProgress>::Event*)#1}, std::__ndk1::allocator<hook13<(anonymous namespace)::hook13Parent>::loadFromComment(GJComment*)::{lambda(geode::Task<geode::utils::web::WebResponse, geode::utils::web::WebProgress>::Event*)#1}>, void (geode::Task<geode::utils::web::WebResponse, geode::utils::web::WebProgress>::Event*)>::target_type() const
PUBLIC c5bd8 0 NewProfilePage::onBadgePressed(cocos2d::CCObject*)
PUBLIC c5e98 0 NewProfilePage::onRobTopBadgePressed(cocos2d::CCObject*)
PUBLIC c5f4c 0 NewProfilePage::badgeFactoryAlert(cocos2d::CCObject*)
PUBLIC c646c 0 __cxx_global_var_init
PUBLIC c68a8 0 geode::modifier::ModifyBase<geode::modifier::ModifyDerive<hook185<(anonymous namespace)::hook185Parent>, ProfilePage> >::~ModifyBase()
PUBLIC c68c4 0 std::__ndk1::__function::__func<NewProfilePage::badgeFactoryAlert(cocos2d::CCObject*)::$_0, std::__ndk1::allocator<NewProfilePage::badgeFactoryAlert(cocos2d::CCObject*)::$_0>, void (FLAlertLayer*, bool)>::~__func()
PUBLIC c68c8 0 std::__ndk1::__function::__func<NewProfilePage::badgeFactoryAlert(cocos2d::CCObject*)::$_0, std::__ndk1::allocator<NewProfilePage::badgeFactoryAlert(cocos2d::CCObject*)::$_0>, void (FLAlertLayer*, bool)>::__clone() const
PUBLIC c68ec 0 std::__ndk1::__function::__func<NewProfilePage::badgeFactoryAlert(cocos2d::CCObject*)::$_0, std::__ndk1::allocator<NewProfilePage::badgeFactoryAlert(cocos2d::CCObject*)::$_0>, void (FLAlertLayer*, bool)>::__clone(std::__ndk1::__function::__base<void (FLAlertLayer*, bool)>*) const
PUBLIC c68fc 0 std::__ndk1::__function::__func<NewProfilePage::badgeFactoryAlert(cocos2d::CCObject*)::$_0, std::__ndk1::allocator<NewProfilePage::badgeFactoryAlert(cocos2d::CCObject*)::$_0>, void (FLAlertLayer*, bool)>::destroy()
PUBLIC c6900 0 std::__ndk1::__function::__func<NewProfilePage::badgeFactoryAlert(cocos2d::CCObject*)::$_0, std::__ndk1::allocator<NewProfilePage::badgeFactoryAlert(cocos2d::CCObject*)::$_0>, void (FLAlertLayer*, bool)>::destroy_deallocate()
PUBLIC c6904 0 std::__ndk1::__function::__func<NewProfilePage::badgeFactoryAlert(cocos2d::CCObject*)::$_0, std::__ndk1::allocator<NewProfilePage::badgeFactoryAlert(cocos2d::CCObject*)::$_0>, void (FLAlertLayer*, bool)>::operator()(FLAlertLayer*&&, bool&&)
PUBLIC c69c4 0 std::__ndk1::__function::__func<NewProfilePage::badgeFactoryAlert(cocos2d::CCObject*)::$_0, std::__ndk1::allocator<NewProfilePage::badgeFactoryAlert(cocos2d::CCObject*)::$_0>, void (FLAlertLayer*, bool)>::target(std::type_info const&) const
PUBLIC c69e0 0 std::__ndk1::__function::__func<NewProfilePage::badgeFactoryAlert(cocos2d::CCObject*)::$_0, std::__ndk1::allocator<NewProfilePage::badgeFactoryAlert(cocos2d::CCObject*)::$_0>, void (FLAlertLayer*, bool)>::target_type() const
PUBLIC c69ec 0 geode::modifier::ModifyDerive<hook185<(anonymous namespace)::hook185Parent>, ProfilePage>::apply()
PUBLIC c6d70 0 geode::modifier::ModifyBase<geode::modifier::ModifyDerive<hook185<(anonymous namespace)::hook185Parent>, ProfilePage> >::apply()
PUBLIC c6d74 0 geode::modifier::AsStaticFunction_loadPageFromUserInfo<hook185<(anonymous namespace)::hook185Parent>, void (hook185<(anonymous namespace)::hook185Parent>::*)(GJUserScore*)>::Impl<void (hook185<(anonymous namespace)::hook185Parent>::*)(GJUserScore*)>::function(hook185<(anonymous namespace)::hook185Parent>*, GJUserScore*)
PUBLIC c7578 0 geode::modifier::FieldIntermediate<hook185<(anonymous namespace)::hook185Parent>, ProfilePage>::operator->()
PUBLIC c77a8 0 hook185<(anonymous namespace)::hook185Parent>::requestGDUtilsBadges(int, cocos2d::CCLayer*)::{lambda(geode::Task<geode::utils::web::WebResponse, geode::utils::web::WebProgress>::Event*)#1}::~{lambda(geode::Task<geode::utils::web::WebResponse, geode::utils::web::WebProgress>::Event*)#1}()
PUBLIC c7840 0 std::__ndk1::__function::__func<hook185<(anonymous namespace)::hook185Parent>::requestGDUtilsBadges(int, cocos2d::CCLayer*)::{lambda(std::__ndk1::basic_string<char, std::__ndk1::char_traits<char>, std::__ndk1::allocator<char> > const&)#1}, std::__ndk1::allocator<hook185<(anonymous namespace)::hook185Parent>::requestGDUtilsBadges(int, cocos2d::CCLayer*)::{lambda(std::__ndk1::basic_string<char, std::__ndk1::char_traits<char>, std::__ndk1::allocator<char> > const&)#1}>, void (std::__ndk1::basic_string<char, std::__ndk1::char_traits<char>, std::__ndk1::allocator<char> > const&)>::~__func()
PUBLIC c7844 0 std::__ndk1::__function::__func<hook185<(anonymous namespace)::hook185Parent>::requestGDUtilsBadges(int, cocos2d::CCLayer*)::{lambda(std::__ndk1::basic_string<char, std::__ndk1::char_traits<char>, std::__ndk1::allocator<char> > const&)#1}, std::__ndk1::allocator<hook185<(anonymous namespace)::hook185Parent>::requestGDUtilsBadges(int, cocos2d::CCLayer*)::{lambda(std::__ndk1::basic_string<char, std::__ndk1::char_traits<char>, std::__ndk1::allocator<char> > const&)#1}>, void (std::__ndk1::basic_string<char, std::__ndk1::char_traits<char>, std::__ndk1::allocator<char> > const&)>::__clone() const
PUBLIC c7884 0 std::__ndk1::__function::__func<hook185<(anonymous namespace)::hook185Parent>::requestGDUtilsBadges(int, cocos2d::CCLayer*)::{lambda(std::__ndk1::basic_string<char, std::__ndk1::char_traits<char>, std::__ndk1::allocator<char> > const&)#1}, std::__ndk1::allocator<hook185<(anonymous namespace)::hook185Parent>::requestGDUtilsBadges(int, cocos2d::CCLayer*)::{lambda(std::__ndk1::basic_string<char, std::__ndk1::char_traits<char>, std::__ndk1::allocator<char> > const&)#1}>, void (std::__ndk1::basic_string<char, std::__ndk1::char_traits<char>, std::__ndk1::allocator<char> > const&)>::__clone(std::__ndk1::__function::__base<void (std::__ndk1::basic_string<char, std::__ndk1::char_traits<char>, std::__ndk1::allocator<char> > const&)>*) const
PUBLIC c78a4 0 std::__ndk1::__function::__func<hook185<(anonymous namespace)::hook185Parent>::requestGDUtilsBadges(int, cocos2d::CCLayer*)::{lambda(std::__ndk1::basic_string<char, std::__ndk1::char_traits<char>, std::__ndk1::allocator<char> > const&)#1}, std::__ndk1::allocator<hook185<(anonymous namespace)::hook185Parent>::requestGDUtilsBadges(int, cocos2d::CCLayer*)::{lambda(std::__ndk1::basic_string<char, std::__ndk1::char_traits<char>, std::__ndk1::allocator<char> > const&)#1}>, void (std::__ndk1::basic_string<char, std::__ndk1::char_traits<char>, std::__ndk1::allocator<char> > const&)>::destroy()
PUBLIC c78a8 0 std::__ndk1::__function::__func<hook185<(anonymous namespace)::hook185Parent>::requestGDUtilsBadges(int, cocos2d::CCLayer*)::{lambda(std::__ndk1::basic_string<char, std::__ndk1::char_traits<char>, std::__ndk1::allocator<char> > const&)#1}, std::__ndk1::allocator<hook185<(anonymous namespace)::hook185Parent>::requestGDUtilsBadges(int, cocos2d::CCLayer*)::{lambda(std::__ndk1::basic_string<char, std::__ndk1::char_traits<char>, std::__ndk1::allocator<char> > const&)#1}>, void (std::__ndk1::basic_string<char, std::__ndk1::char_traits<char>, std::__ndk1::allocator<char> > const&)>::destroy_deallocate()
PUBLIC c78ac 0 std::__ndk1::__function::__func<hook185<(anonymous namespace)::hook185Parent>::requestGDUtilsBadges(int, cocos2d::CCLayer*)::{lambda(std::__ndk1::basic_string<char, std::__ndk1::char_traits<char>, std::__ndk1::allocator<char> > const&)#1}, std::__ndk1::allocator<hook185<(anonymous namespace)::hook185Parent>::requestGDUtilsBadges(int, cocos2d::CCLayer*)::{lambda(std::__ndk1::basic_string<char, std::__ndk1::char_traits<char>, std::__ndk1::allocator<char> > const&)#1}>, void (std::__ndk1::basic_string<char, std::__ndk1::char_traits<char>, std::__ndk1::allocator<char> > const&)>::operator()(std::__ndk1::basic_string<char, std::__ndk1::char_traits<char>, std::__ndk1::allocator<char> > const&)
PUBLIC c84b8 0 std::__ndk1::__function::__func<hook185<(anonymous namespace)::hook185Parent>::requestGDUtilsBadges(int, cocos2d::CCLayer*)::{lambda(std::__ndk1::basic_string<char, std::__ndk1::char_traits<char>, std::__ndk1::allocator<char> > const&)#1}, std::__ndk1::allocator<hook185<(anonymous namespace)::hook185Parent>::requestGDUtilsBadges(int, cocos2d::CCLayer*)::{lambda(std::__ndk1::basic_string<char, std::__ndk1::char_traits<char>, std::__ndk1::allocator<char> > const&)#1}>, void (std::__ndk1::basic_string<char, std::__ndk1::char_traits<char>, std::__ndk1::allocator<char> > const&)>::target(std::type_info const&) const
PUBLIC c84d4 0 std::__ndk1::__function::__func<hook185<(anonymous namespace)::hook185Parent>::requestGDUtilsBadges(int, cocos2d::CCLayer*)::{lambda(std::__ndk1::basic_string<char, std::__ndk1::char_traits<char>, std::__ndk1::allocator<char> > const&)#1}, std::__ndk1::allocator<hook185<(anonymous namespace)::hook185Parent>::requestGDUtilsBadges(int, cocos2d::CCLayer*)::{lambda(std::__ndk1::basic_string<char, std::__ndk1::char_traits<char>, std::__ndk1::allocator<char> > const&)#1}>, void (std::__ndk1::basic_string<char, std::__ndk1::char_traits<char>, std::__ndk1::allocator<char> > const&)>::target_type() const
PUBLIC c84e0 0 std::__ndk1::__function::__func<hook185<(anonymous namespace)::hook185Parent>::requestGDUtilsBadges(int, cocos2d::CCLayer*)::{lambda(std::__ndk1::basic_string<char, std::__ndk1::char_traits<char>, std::__ndk1::allocator<char> > const&)#2}, std::__ndk1::allocator<hook185<(anonymous namespace)::hook185Parent>::requestGDUtilsBadges(int, cocos2d::CCLayer*)::{lambda(std::__ndk1::basic_string<char, std::__ndk1::char_traits<char>, std::__ndk1::allocator<char> > const&)#2}>, void (std::__ndk1::basic_string<char, std::__ndk1::char_traits<char>, std::__ndk1::allocator<char> > const&)>::~__func()
PUBLIC c84e4 0 std::__ndk1::__function::__func<hook185<(anonymous namespace)::hook185Parent>::requestGDUtilsBadges(int, cocos2d::CCLayer*)::{lambda(std::__ndk1::basic_string<char, std::__ndk1::char_traits<char>, std::__ndk1::allocator<char> > const&)#2}, std::__ndk1::allocator<hook185<(anonymous namespace)::hook185Parent>::requestGDUtilsBadges(int, cocos2d::CCLayer*)::{lambda(std::__ndk1::basic_string<char, std::__ndk1::char_traits<char>, std::__ndk1::allocator<char> > const&)#2}>, void (std::__ndk1::basic_string<char, std::__ndk1::char_traits<char>, std::__ndk1::allocator<char> > const&)>::__clone() const
PUBLIC c8518 0 std::__ndk1::__function::__func<hook185<(anonymous namespace)::hook185Parent>::requestGDUtilsBadges(int, cocos2d::CCLayer*)::{lambda(std::__ndk1::basic_string<char, std::__ndk1::char_traits<char>, std::__ndk1::allocator<char> > const&)#2}, std::__ndk1::allocator<hook185<(anonymous namespace)::hook185Parent>::requestGDUtilsBadges(int, cocos2d::CCLayer*)::{lambda(std::__ndk1::basic_string<char, std::__ndk1::char_traits<char>, std::__ndk1::allocator<char> > const&)#2}>, void (std::__ndk1::basic_string<char, std::__ndk1::char_traits<char>, std::__ndk1::allocator<char> > const&)>::__clone(std::__ndk1::__function::__base<void (std::__ndk1::basic_string<char, std::__ndk1::char_traits<char>, std::__ndk1::allocator<char> > const&)>*) const
PUBLIC c852c 0 std::__ndk1::__function::__func<hook185<(anonymous namespace)::hook185Parent>::requestGDUtilsBadges(int, cocos2d::CCLayer*)::{lambda(std::__ndk1::basic_string<char, std::__ndk1::char_traits<char>, std::__ndk1::allocator<char> > const&)#2}, std::__ndk1::allocator<hook185<(anonymous namespace)::hook185Parent>::requestGDUtilsBadges(int, cocos2d::CCLayer*)::{lambda(std::__ndk1::basic_string<char, std::__ndk1::char_traits<char>, std::__ndk1::allocator<char> > const&)#2}>, void (std::__ndk1::basic_string<char, std::__ndk1::char_traits<char>, std::__ndk1::allocator<char> > const&)>::destroy()
PUBLIC c8530 0 std::__ndk1::__function::__func<hook185<(anonymous namespace)::hook185Parent>::requestGDUtilsBadges(int, cocos2d::CCLayer*)::{lambda(std::__ndk1::basic_string<char, std::__ndk1::char_traits<char>, std::__ndk1::allocator<char> > const&)#2}, std::__ndk1::allocator<hook185<(anonymous namespace)::hook185Parent>::requestGDUtilsBadges(int, cocos2d::CCLayer*)::{lambda(std::__ndk1::basic_string<char, std::__ndk1::char_traits<char>, std::__ndk1::allocator<char> > const&)#2}>, void (std::__ndk1::basic_string<char, std::__ndk1::char_traits<char>, std::__ndk1::allocator<char> > const&)>::destroy_deallocate()
PUBLIC c8534 0 std::__ndk1::__function::__func<hook185<(anonymous namespace)::hook185Parent>::requestGDUtilsBadges(int, cocos2d::CCLayer*)::{lambda(std::__ndk1::basic_string<char, std::__ndk1::char_traits<char>, std::__ndk1::allocator<char> > const&)#2}, std::__ndk1::allocator<hook185<(anonymous namespace)::hook185Parent>::requestGDUtilsBadges(int, cocos2d::CCLayer*)::{lambda(std::__ndk1::basic_string<char, std::__ndk1::char_traits<char>, std::__ndk1::allocator<char> > const&)#2}>, void (std::__ndk1::basic_string<char, std::__ndk1::char_traits<char>, std::__ndk1::allocator<char> > const&)>::operator()(std::__ndk1::basic_string<char, std::__ndk1::char_traits<char>, std::__ndk1::allocator<char> > const&)
PUBLIC c85d8 0 std::__ndk1::__function::__func<hook185<(anonymous namespace)::hook185Parent>::requestGDUtilsBadges(int, cocos2d::CCLayer*)::{lambda(std::__ndk1::basic_string<char, std::__ndk1::char_traits<char>, std::__ndk1::allocator<char> > const&)#2}, std::__ndk1::allocator<hook185<(anonymous namespace)::hook185Parent>::requestGDUtilsBadges(int, cocos2d::CCLayer*)::{lambda(std::__ndk1::basic_string<char, std::__ndk1::char_traits<char>, std::__ndk1::allocator<char> > const&)#2}>, void (std::__ndk1::basic_string<char, std::__ndk1::char_traits<char>, std::__ndk1::allocator<char> > const&)>::target(std::type_info const&) const
PUBLIC c85f4 0 std::__ndk1::__function::__func<hook185<(anonymous namespace)::hook185Parent>::requestGDUtilsBadges(int, cocos2d::CCLayer*)::{lambda(std::__ndk1::basic_string<char, std::__ndk1::char_traits<char>, std::__ndk1::allocator<char> > const&)#2}, std::__ndk1::allocator<hook185<(anonymous namespace)::hook185Parent>::requestGDUtilsBadges(int, cocos2d::CCLayer*)::{lambda(std::__ndk1::basic_string<char, std::__ndk1::char_traits<char>, std::__ndk1::allocator<char> > const&)#2}>, void (std::__ndk1::basic_string<char, std::__ndk1::char_traits<char>, std::__ndk1::allocator<char> > const&)>::target_type() const
PUBLIC c8600 0 geode::modifier::FieldIntermediate<hook185<(anonymous namespace)::hook185Parent>, ProfilePage>::fieldDestructor(void*)
PUBLIC c869c 0 std::__ndk1::__function::__func<hook185<(anonymous namespace)::hook185Parent>::requestGDUtilsBadges(int, cocos2d::CCLayer*)::{lambda(geode::Task<geode::utils::web::WebResponse, geode::utils::web::WebProgress>::Event*)#1}, std::__ndk1::allocator<hook185<(anonymous namespace)::hook185Parent>::requestGDUtilsBadges(int, cocos2d::CCLayer*)::{lambda(geode::Task<geode::utils::web::WebResponse, geode::utils::web::WebProgress>::Event*)#1}>, void (geode::Task<geode::utils::web::WebResponse, geode::utils::web::WebProgress>::Event*)>::~__func()
PUBLIC c873c 0 std::__ndk1::__function::__func<hook185<(anonymous namespace)::hook185Parent>::requestGDUtilsBadges(int, cocos2d::CCLayer*)::{lambda(geode::Task<geode::utils::web::WebResponse, geode::utils::web::WebProgress>::Event*)#1}, std::__ndk1::allocator<hook185<(anonymous namespace)::hook185Parent>::requestGDUtilsBadges(int, cocos2d::CCLayer*)::{lambda(geode::Task<geode::utils::web::WebResponse, geode::utils::web::WebProgress>::Event*)#1}>, void (geode::Task<geode::utils::web::WebResponse, geode::utils::web::WebProgress>::Event*)>::~__func()
PUBLIC c87c8 0 std::__ndk1::__function::__func<hook185<(anonymous namespace)::hook185Parent>::requestGDUtilsBadges(int, cocos2d::CCLayer*)::{lambda(geode::Task<geode::utils::web::WebResponse, geode::utils::web::WebProgress>::Event*)#1}, std::__ndk1::allocator<hook185<(anonymous namespace)::hook185Parent>::requestGDUtilsBadges(int, cocos2d::CCLayer*)::{lambda(geode::Task<geode::utils::web::WebResponse, geode::utils::web::WebProgress>::Event*)#1}>, void (geode::Task<geode::utils::web::WebResponse, geode::utils::web::WebProgress>::Event*)>::__clone() const
PUBLIC c88ec 0 std::__ndk1::__function::__func<hook185<(anonymous namespace)::hook185Parent>::requestGDUtilsBadges(int, cocos2d::CCLayer*)::{lambda(geode::Task<geode::utils::web::WebResponse, geode::utils::web::WebProgress>::Event*)#1}, std::__ndk1::allocator<hook185<(anonymous namespace)::hook185Parent>::requestGDUtilsBadges(int, cocos2d::CCLayer*)::{lambda(geode::Task<geode::utils::web::WebResponse, geode::utils::web::WebProgress>::Event*)#1}>, void (geode::Task<geode::utils::web::WebResponse, geode::utils::web::WebProgress>::Event*)>::__clone(std::__ndk1::__function::__base<void (geode::Task<geode::utils::web::WebResponse, geode::utils::web::WebProgress>::Event*)>*) const
PUBLIC c8a04 0 std::__ndk1::__function::__func<hook185<(anonymous namespace)::hook185Parent>::requestGDUtilsBadges(int, cocos2d::CCLayer*)::{lambda(geode::Task<geode::utils::web::WebResponse, geode::utils::web::WebProgress>::Event*)#1}, std::__ndk1::allocator<hook185<(anonymous namespace)::hook185Parent>::requestGDUtilsBadges(int, cocos2d::CCLayer*)::{lambda(geode::Task<geode::utils::web::WebResponse, geode::utils::web::WebProgress>::Event*)#1}>, void (geode::Task<geode::utils::web::WebResponse, geode::utils::web::WebProgress>::Event*)>::destroy()
PUBLIC c8a98 0 std::__ndk1::__function::__func<hook185<(anonymous namespace)::hook185Parent>::requestGDUtilsBadges(int, cocos2d::CCLayer*)::{lambda(geode::Task<geode::utils::web::WebResponse, geode::utils::web::WebProgress>::Event*)#1}, std::__ndk1::allocator<hook185<(anonymous namespace)::hook185Parent>::requestGDUtilsBadges(int, cocos2d::CCLayer*)::{lambda(geode::Task<geode::utils::web::WebResponse, geode::utils::web::WebProgress>::Event*)#1}>, void (geode::Task<geode::utils::web::WebResponse, geode::utils::web::WebProgress>::Event*)>::destroy_deallocate()
PUBLIC c8b18 0 std::__ndk1::__function::__func<hook185<(anonymous namespace)::hook185Parent>::requestGDUtilsBadges(int, cocos2d::CCLayer*)::{lambda(geode::Task<geode::utils::web::WebResponse, geode::utils::web::WebProgress>::Event*)#1}, std::__ndk1::allocator<hook185<(anonymous namespace)::hook185Parent>::requestGDUtilsBadges(int, cocos2d::CCLayer*)::{lambda(geode::Task<geode::utils::web::WebResponse, geode::utils::web::WebProgress>::Event*)#1}>, void (geode::Task<geode::utils::web::WebResponse, geode::utils::web::WebProgress>::Event*)>::operator()(geode::Task<geode::utils::web::WebResponse, geode::utils::web::WebProgress>::Event*&&)
PUBLIC c8cdc 0 std::__ndk1::__function::__func<hook185<(anonymous namespace)::hook185Parent>::requestGDUtilsBadges(int, cocos2d::CCLayer*)::{lambda(geode::Task<geode::utils::web::WebResponse, geode::utils::web::WebProgress>::Event*)#1}, std::__ndk1::allocator<hook185<(anonymous namespace)::hook185Parent>::requestGDUtilsBadges(int, cocos2d::CCLayer*)::{lambda(geode::Task<geode::utils::web::WebResponse, geode::utils::web::WebProgress>::Event*)#1}>, void (geode::Task<geode::utils::web::WebResponse, geode::utils::web::WebProgress>::Event*)>::target(std::type_info const&) const
PUBLIC c8cf8 0 std::__ndk1::__function::__func<hook185<(anonymous namespace)::hook185Parent>::requestGDUtilsBadges(int, cocos2d::CCLayer*)::{lambda(geode::Task<geode::utils::web::WebResponse, geode::utils::web::WebProgress>::Event*)#1}, std::__ndk1::allocator<hook185<(anonymous namespace)::hook185Parent>::requestGDUtilsBadges(int, cocos2d::CCLayer*)::{lambda(geode::Task<geode::utils::web::WebResponse, geode::utils::web::WebProgress>::Event*)#1}>, void (geode::Task<geode::utils::web::WebResponse, geode::utils::web::WebProgress>::Event*)>::target_type() const
PUBLIC c8d04 0 __cxx_global_var_init
PUBLIC c9140 0 geode::modifier::ModifyBase<geode::modifier::ModifyDerive<hook4<(anonymous namespace)::hook4Parent>, SecretLayer> >::~ModifyBase()
PUBLIC c915c 0 geode::modifier::ModifyDerive<hook4<(anonymous namespace)::hook4Parent>, SecretLayer>::apply()
PUBLIC c9468 0 geode::modifier::ModifyBase<geode::modifier::ModifyDerive<hook4<(anonymous namespace)::hook4Parent>, SecretLayer> >::apply()
PUBLIC c946c 0 geode::modifier::AsStaticFunction_init<hook4<(anonymous namespace)::hook4Parent>, bool (hook4<(anonymous namespace)::hook4Parent>::*)()>::Impl<bool (hook4<(anonymous namespace)::hook4Parent>::*)()>::function(hook4<(anonymous namespace)::hook4Parent>*)
PUBLIC c95f8 0 geode::addresser::Addresser::addressOfVirtual<bool, SecretLayer, >(bool (SecretLayer::*)())
PUBLIC c96a0 0 SecretLayer::SecretLayer(geode::ZeroConstructorType)
PUBLIC c9740 0 std::__ndk1::unordered_map<int, int, std::__ndk1::hash<int>, std::__ndk1::equal_to<int>, std::__ndk1::allocator<std::__ndk1::pair<int const, int> > >::~unordered_map[abi:ne180000]()
PUBLIC c978c 0 __cxx_global_var_init.3
PUBLIC c9bc8 0 _GLOBAL__sub_I_DemonList.cpp
PUBLIC c9c50 0 geode::modifier::ModifyBase<geode::modifier::ModifyDerive<hook29<(anonymous namespace)::hook29Parent>, LevelInfoLayer> >::~ModifyBase()
PUBLIC c9c6c 0 geode::modifier::ModifyDerive<hook29<(anonymous namespace)::hook29Parent>, LevelInfoLayer>::apply()
PUBLIC ca01c 0 geode::modifier::ModifyBase<geode::modifier::ModifyDerive<hook29<(anonymous namespace)::hook29Parent>, LevelInfoLayer> >::apply()
PUBLIC ca020 0 geode::modifier::AsStaticFunction_init<hook29<(anonymous namespace)::hook29Parent>, bool (hook29<(anonymous namespace)::hook29Parent>::*)(GJGameLevel*, bool)>::Impl<bool (hook29<(anonymous namespace)::hook29Parent>::*)(GJGameLevel*, bool)>::function(hook29<(anonymous namespace)::hook29Parent>*, GJGameLevel*, bool)
PUBLIC cb280 0 hook29<(anonymous namespace)::hook29Parent>::get(int)
PUBLIC cb368 0 geode::Mod::getSettingValue<std::__ndk1::basic_string<char, std::__ndk1::char_traits<char>, std::__ndk1::allocator<char> > >(std::__ndk1::basic_string_view<char, std::__ndk1::char_traits<char> >) const
PUBLIC cb504 0 hook29<(anonymous namespace)::hook29Parent>::init(GJGameLevel*, bool)::{lambda(geode::utils::web::WebResponse*)#1}::~{lambda(geode::utils::web::WebResponse*)#1}()
PUBLIC cb59c 0 std::__ndk1::__function::__base<void (geode::Result<matjson::Value, std::__ndk1::basic_string<char, std::__ndk1::char_traits<char>, std::__ndk1::allocator<char> > >)>::~__base()
PUBLIC cb5a0 0 std::__ndk1::__function::__func<hook29<(anonymous namespace)::hook29Parent>::init(GJGameLevel*, bool)::{lambda(geode::Result<matjson::Value, std::__ndk1::basic_string<char, std::__ndk1::char_traits<char>, std::__ndk1::allocator<char> > > const&)#1}, std::__ndk1::allocator<hook29<(anonymous namespace)::hook29Parent>::init(GJGameLevel*, bool)::{lambda(geode::Result<matjson::Value, std::__ndk1::basic_string<char, std::__ndk1::char_traits<char>, std::__ndk1::allocator<char> > > const&)#1}>, void (geode::Result<matjson::Value, std::__ndk1::basic_string<char, std::__ndk1::char_traits<char>, std::__ndk1::allocator<char> > >)>::~__func()
PUBLIC cb5a4 0 std::__ndk1::__function::__func<hook29<(anonymous namespace)::hook29Parent>::init(GJGameLevel*, bool)::{lambda(geode::Result<matjson::Value, std::__ndk1::basic_string<char, std::__ndk1::char_traits<char>, std::__ndk1::allocator<char> > > const&)#1}, std::__ndk1::allocator<hook29<(anonymous namespace)::hook29Parent>::init(GJGameLevel*, bool)::{lambda(geode::Result<matjson::Value, std::__ndk1::basic_string<char, std::__ndk1::char_traits<char>, std::__ndk1::allocator<char> > > const&)#1}>, void (geode::Result<matjson::Value, std::__ndk1::basic_string<char, std::__ndk1::char_traits<char>, std::__ndk1::allocator<char> > >)>::__clone() const
PUBLIC cb5f4 0 std::__ndk1::__function::__func<hook29<(anonymous namespace)::hook29Parent>::init(GJGameLevel*, bool)::{lambda(geode::Result<matjson::Value, std::__ndk1::basic_string<char, std::__ndk1::char_traits<char>, std::__ndk1::allocator<char> > > const&)#1}, std::__ndk1::allocator<hook29<(anonymous namespace)::hook29Parent>::init(GJGameLevel*, bool)::{lambda(geode::Result<matjson::Value, std::__ndk1::basic_string<char, std::__ndk1::char_traits<char>, std::__ndk1::allocator<char> > > const&)#1}>, void (geode::Result<matjson::Value, std::__ndk1::basic_string<char, std::__ndk1::char_traits<char>, std::__ndk1::allocator<char> > >)>::__clone(std::__ndk1::__function::__base<void (geode::Result<matjson::Value, std::__ndk1::basic_string<char, std::__ndk1::char_traits<char>, std::__ndk1::allocator<char> > >)>*) const
PUBLIC cb624 0 std::__ndk1::__function::__func<hook29<(anonymous namespace)::hook29Parent>::init(GJGameLevel*, bool)::{lambda(geode::Result<matjson::Value, std::__ndk1::basic_string<char, std::__ndk1::char_traits<char>, std::__ndk1::allocator<char> > > const&)#1}, std::__ndk1::allocator<hook29<(anonymous namespace)::hook29Parent>::init(GJGameLevel*, bool)::{lambda(geode::Result<matjson::Value, std::__ndk1::basic_string<char, std::__ndk1::char_traits<char>, std::__ndk1::allocator<char> > > const&)#1}>, void (geode::Result<matjson::Value, std::__ndk1::basic_string<char, std::__ndk1::char_traits<char>, std::__ndk1::allocator<char> > >)>::destroy()
PUBLIC cb628 0 std::__ndk1::__function::__func<hook29<(anonymous namespace)::hook29Parent>::init(GJGameLevel*, bool)::{lambda(geode::Result<matjson::Value, std::__ndk1::basic_string<char, std::__ndk1::char_traits<char>, std::__ndk1::allocator<char> > > const&)#1}, std::__ndk1::allocator<hook29<(anonymous namespace)::hook29Parent>::init(GJGameLevel*, bool)::{lambda(geode::Result<matjson::Value, std::__ndk1::basic_string<char, std::__ndk1::char_traits<char>, std::__ndk1::allocator<char> > > const&)#1}>, void (geode::Result<matjson::Value, std::__ndk1::basic_string<char, std::__ndk1::char_traits<char>, std::__ndk1::allocator<char> > >)>::destroy_deallocate()
PUBLIC cb62c 0 std::__ndk1::__function::__func<hook29<(anonymous namespace)::hook29Parent>::init(GJGameLevel*, bool)::{lambda(geode::Result<matjson::Value, std::__ndk1::basic_string<char, std::__ndk1::char_traits<char>, std::__ndk1::allocator<char> > > const&)#1}, std::__ndk1::allocator<hook29<(anonymous namespace)::hook29Parent>::init(GJGameLevel*, bool)::{lambda(geode::Result<matjson::Value, std::__ndk1::basic_string<char, std::__ndk1::char_traits<char>, std::__ndk1::allocator<char> > > const&)#1}>, void (geode::Result<matjson::Value, std::__ndk1::basic_string<char, std::__ndk1::char_traits<char>, std::__ndk1::allocator<char> > >)>::operator()(geode::Result<matjson::Value, std::__ndk1::basic_string<char, std::__ndk1::char_traits<char>, std::__ndk1::allocator<char> > >&&)
PUBLIC cbdd0 0 std::__ndk1::__function::__func<hook29<(anonymous namespace)::hook29Parent>::init(GJGameLevel*, bool)::{lambda(geode::Result<matjson::Value, std::__ndk1::basic_string<char, std::__ndk1::char_traits<char>, std::__ndk1::allocator<char> > > const&)#1}, std::__ndk1::allocator<hook29<(anonymous namespace)::hook29Parent>::init(GJGameLevel*, bool)::{lambda(geode::Result<matjson::Value, std::__ndk1::basic_string<char, std::__ndk1::char_traits<char>, std::__ndk1::allocator<char> > > const&)#1}>, void (geode::Result<matjson::Value, std::__ndk1::basic_string<char, std::__ndk1::char_traits<char>, std::__ndk1::allocator<char> > >)>::target(std::type_info const&) const
PUBLIC cbdec 0 std::__ndk1::__function::__func<hook29<(anonymous namespace)::hook29Parent>::init(GJGameLevel*, bool)::{lambda(geode::Result<matjson::Value, std::__ndk1::basic_string<char, std::__ndk1::char_traits<char>, std::__ndk1::allocator<char> > > const&)#1}, std::__ndk1::allocator<hook29<(anonymous namespace)::hook29Parent>::init(GJGameLevel*, bool)::{lambda(geode::Result<matjson::Value, std::__ndk1::basic_string<char, std::__ndk1::char_traits<char>, std::__ndk1::allocator<char> > > const&)#1}>, void (geode::Result<matjson::Value, std::__ndk1::basic_string<char, std::__ndk1::char_traits<char>, std::__ndk1::allocator<char> > >)>::target_type() const
PUBLIC cbdf8 0 geode::impl::ResultData<matjson::Value&, std::__ndk1::basic_string<char, std::__ndk1::char_traits<char>, std::__ndk1::allocator<char> > >::~ResultData()
PUBLIC cbe6c 0 std::__ndk1::__hash_table<std::__ndk1::__hash_value_type<int, int>, std::__ndk1::__unordered_map_hasher<int, std::__ndk1::__hash_value_type<int, int>, std::__ndk1::hash<int>, std::__ndk1::equal_to<int>, true>, std::__ndk1::__unordered_map_equal<int, std::__ndk1::__hash_value_type<int, int>, std::__ndk1::equal_to<int>, std::__ndk1::hash<int>, true>, std::__ndk1::allocator<std::__ndk1::__hash_value_type<int, int> > >::__emplace_unique_key_args<int, std::__ndk1::piecewise_construct_t const&, std::__ndk1::tuple<int const&>, std::__ndk1::tuple<> >(int const&, std::__ndk1::piecewise_construct_t const&, std::__ndk1::tuple<int const&>, std::__ndk1::tuple<>)
PUBLIC cc33c 0 std::__ndk1::__variant_detail::__visitation::__base::__dispatcher<(unsigned long)0>::__dispatch[abi:ne180000]<std::__ndk1::__variant_detail::__dtor<std::__ndk1::__variant_detail::__traits<std::__ndk1::reference_wrapper<matjson::Value>, std::__ndk1::basic_string<char, std::__ndk1::char_traits<char>, std::__ndk1::allocator<char> > >, (std::__ndk1::__variant_detail::_Trait)1>::__destroy[abi:ne180000]()::{lambda(auto:1&)#1}, std::__ndk1::__variant_detail::__base<(std::__ndk1::__variant_detail::__traits<std::__ndk1::reference_wrapper<matjson::Value>, std::__ndk1::basic_string<char, std::__ndk1::char_traits<char>, std::__ndk1::allocator<char> > >)1, matjson::Value, std::__ndk1::allocator<char> >&>(std::__ndk1::__variant_detail::__dtor<std::__ndk1::__variant_detail::__traits<std::__ndk1::reference_wrapper<matjson::Value>, std::__ndk1::basic_string<char, std::__ndk1::char_traits<char>, std::__ndk1::allocator<char> > >, (std::__ndk1::__variant_detail::_Trait)1>, std::__ndk1::__variant_detail::__base<(std::__ndk1::__variant_detail::__traits<std::__ndk1::reference_wrapper<matjson::Value>, std::__ndk1::basic_string<char, std::__ndk1::char_traits<char>, std::__ndk1::allocator<char> > >)1, matjson::Value, std::__ndk1::allocator<char> >&)
PUBLIC cc340 0 std::__ndk1::__variant_detail::__visitation::__base::__dispatcher<(unsigned long)1>::__dispatch[abi:ne180000]<std::__ndk1::__variant_detail::__dtor<std::__ndk1::__variant_detail::__traits<std::__ndk1::reference_wrapper<matjson::Value>, std::__ndk1::basic_string<char, std::__ndk1::char_traits<char>, std::__ndk1::allocator<char> > >, (std::__ndk1::__variant_detail::_Trait)1>::__destroy[abi:ne180000]()::{lambda(auto:1&)#1}, std::__ndk1::__variant_detail::__base<(std::__ndk1::__variant_detail::__traits<std::__ndk1::reference_wrapper<matjson::Value>, std::__ndk1::basic_string<char, std::__ndk1::char_traits<char>, std::__ndk1::allocator<char> > >)1, matjson::Value, std::__ndk1::allocator<char> >&>(std::__ndk1::__variant_detail::__dtor<std::__ndk1::__variant_detail::__traits<std::__ndk1::reference_wrapper<matjson::Value>, std::__ndk1::basic_string<char, std::__ndk1::char_traits<char>, std::__ndk1::allocator<char> > >, (std::__ndk1::__variant_detail::_Trait)1>, std::__ndk1::__variant_detail::__base<(std::__ndk1::__variant_detail::__traits<std::__ndk1::reference_wrapper<matjson::Value>, std::__ndk1::basic_string<char, std::__ndk1::char_traits<char>, std::__ndk1::allocator<char> > >)1, matjson::Value, std::__ndk1::allocator<char> >&)
PUBLIC cc354 0 std::__ndk1::__function::__func<hook29<(anonymous namespace)::hook29Parent>::init(GJGameLevel*, bool)::{lambda(std::__ndk1::basic_string<char, std::__ndk1::char_traits<char>, std::__ndk1::allocator<char> > const&)#1}, std::__ndk1::allocator<hook29<(anonymous namespace)::hook29Parent>::init(GJGameLevel*, bool)::{lambda(std::__ndk1::basic_string<char, std::__ndk1::char_traits<char>, std::__ndk1::allocator<char> > const&)#1}>, void (std::__ndk1::basic_string<char, std::__ndk1::char_traits<char>, std::__ndk1::allocator<char> > const&)>::~__func()
PUBLIC cc358 0 std::__ndk1::__function::__func<hook29<(anonymous namespace)::hook29Parent>::init(GJGameLevel*, bool)::{lambda(std::__ndk1::basic_string<char, std::__ndk1::char_traits<char>, std::__ndk1::allocator<char> > const&)#1}, std::__ndk1::allocator<hook29<(anonymous namespace)::hook29Parent>::init(GJGameLevel*, bool)::{lambda(std::__ndk1::basic_string<char, std::__ndk1::char_traits<char>, std::__ndk1::allocator<char> > const&)#1}>, void (std::__ndk1::basic_string<char, std::__ndk1::char_traits<char>, std::__ndk1::allocator<char> > const&)>::__clone() const
PUBLIC cc390 0 std::__ndk1::__function::__func<hook29<(anonymous namespace)::hook29Parent>::init(GJGameLevel*, bool)::{lambda(std::__ndk1::basic_string<char, std::__ndk1::char_traits<char>, std::__ndk1::allocator<char> > const&)#1}, std::__ndk1::allocator<hook29<(anonymous namespace)::hook29Parent>::init(GJGameLevel*, bool)::{lambda(std::__ndk1::basic_string<char, std::__ndk1::char_traits<char>, std::__ndk1::allocator<char> > const&)#1}>, void (std::__ndk1::basic_string<char, std::__ndk1::char_traits<char>, std::__ndk1::allocator<char> > const&)>::__clone(std::__ndk1::__function::__base<void (std::__ndk1::basic_string<char, std::__ndk1::char_traits<char>, std::__ndk1::allocator<char> > const&)>*) const
PUBLIC cc3a8 0 std::__ndk1::__function::__func<hook29<(anonymous namespace)::hook29Parent>::init(GJGameLevel*, bool)::{lambda(std::__ndk1::basic_string<char, std::__ndk1::char_traits<char>, std::__ndk1::allocator<char> > const&)#1}, std::__ndk1::allocator<hook29<(anonymous namespace)::hook29Parent>::init(GJGameLevel*, bool)::{lambda(std::__ndk1::basic_string<char, std::__ndk1::char_traits<char>, std::__ndk1::allocator<char> > const&)#1}>, void (std::__ndk1::basic_string<char, std::__ndk1::char_traits<char>, std::__ndk1::allocator<char> > const&)>::destroy()
PUBLIC cc3ac 0 std::__ndk1::__function::__func<hook29<(anonymous namespace)::hook29Parent>::init(GJGameLevel*, bool)::{lambda(std::__ndk1::basic_string<char, std::__ndk1::char_traits<char>, std::__ndk1::allocator<char> > const&)#1}, std::__ndk1::allocator<hook29<(anonymous namespace)::hook29Parent>::init(GJGameLevel*, bool)::{lambda(std::__ndk1::basic_string<char, std::__ndk1::char_traits<char>, std::__ndk1::allocator<char> > const&)#1}>, void (std::__ndk1::basic_string<char, std::__ndk1::char_traits<char>, std::__ndk1::allocator<char> > const&)>::destroy_deallocate()
PUBLIC cc3b0 0 std::__ndk1::__function::__func<hook29<(anonymous namespace)::hook29Parent>::init(GJGameLevel*, bool)::{lambda(std::__ndk1::basic_string<char, std::__ndk1::char_traits<char>, std::__ndk1::allocator<char> > const&)#1}, std::__ndk1::allocator<hook29<(anonymous namespace)::hook29Parent>::init(GJGameLevel*, bool)::{lambda(std::__ndk1::basic_string<char, std::__ndk1::char_traits<char>, std::__ndk1::allocator<char> > const&)#1}>, void (std::__ndk1::basic_string<char, std::__ndk1::char_traits<char>, std::__ndk1::allocator<char> > const&)>::operator()(std::__ndk1::basic_string<char, std::__ndk1::char_traits<char>, std::__ndk1::allocator<char> > const&)
PUBLIC cc4dc 0 std::__ndk1::__function::__func<hook29<(anonymous namespace)::hook29Parent>::init(GJGameLevel*, bool)::{lambda(std::__ndk1::basic_string<char, std::__ndk1::char_traits<char>, std::__ndk1::allocator<char> > const&)#1}, std::__ndk1::allocator<hook29<(anonymous namespace)::hook29Parent>::init(GJGameLevel*, bool)::{lambda(std::__ndk1::basic_string<char, std::__ndk1::char_traits<char>, std::__ndk1::allocator<char> > const&)#1}>, void (std::__ndk1::basic_string<char, std::__ndk1::char_traits<char>, std::__ndk1::allocator<char> > const&)>::target(std::type_info const&) const
PUBLIC cc4f8 0 std::__ndk1::__function::__func<hook29<(anonymous namespace)::hook29Parent>::init(GJGameLevel*, bool)::{lambda(std::__ndk1::basic_string<char, std::__ndk1::char_traits<char>, std::__ndk1::allocator<char> > const&)#1}, std::__ndk1::allocator<hook29<(anonymous namespace)::hook29Parent>::init(GJGameLevel*, bool)::{lambda(std::__ndk1::basic_string<char, std::__ndk1::char_traits<char>, std::__ndk1::allocator<char> > const&)#1}>, void (std::__ndk1::basic_string<char, std::__ndk1::char_traits<char>, std::__ndk1::allocator<char> > const&)>::target_type() const
PUBLIC cc504 0 std::__ndk1::shared_ptr<geode::StringSettingV3>::~shared_ptr[abi:ne180000]()
PUBLIC cc554 0 hook29<(anonymous namespace)::hook29Parent>::init(GJGameLevel*, bool)::{lambda(geode::utils::web::WebResponse*)#1}::operator()(geode::utils::web::WebResponse*) const
PUBLIC cc75c 0 geode::Task<geode::utils::web::WebResponse, geode::utils::web::WebProgress>::map<hook29<(anonymous namespace)::hook29Parent>::init(GJGameLevel*, bool)::{lambda(geode::utils::web::WebResponse*)#1}, geode::utils::web::WebProgress (*)(geode::utils::web::WebProgress*), void (*)()>(hook29<(anonymous namespace)::hook29Parent>::init(GJGameLevel*, bool)::{lambda(geode::utils::web::WebResponse*)#1}&&, geode::utils::web::WebProgress (*&&)(geode::utils::web::WebProgress*), void (*&&)(), std::__ndk1::basic_string_view<char, std::__ndk1::char_traits<char> >) const::{lambda(geode::Task<geode::utils::web::WebResponse, geode::utils::web::WebProgress>::Event*)#1}::~{lambda(geode::Task<geode::utils::web::WebResponse, geode::utils::web::WebProgress>::Event*)#1}()
PUBLIC cc7ec 0 geode::impl::ResultData<matjson::Value, std::__ndk1::basic_string<char, std::__ndk1::char_traits<char>, std::__ndk1::allocator<char> > >::~ResultData()
PUBLIC cc860 0 std::__ndk1::__variant_detail::__visitation::__base::__dispatcher<(unsigned long)0>::__dispatch[abi:ne180000]<std::__ndk1::__variant_detail::__dtor<std::__ndk1::__variant_detail::__traits<matjson::Value, std::__ndk1::basic_string<char, std::__ndk1::char_traits<char>, std::__ndk1::allocator<char> > >, (std::__ndk1::__variant_detail::_Trait)1>::__destroy[abi:ne180000]()::{lambda(auto:1&)#1}, std::__ndk1::__variant_detail::__base<(std::__ndk1::__variant_detail::__traits<matjson::Value, std::__ndk1::basic_string<char, std::__ndk1::char_traits<char>, std::__ndk1::allocator<char> > >)1, matjson, std::__ndk1::allocator<char> >&>(std::__ndk1::__variant_detail::__dtor<std::__ndk1::__variant_detail::__traits<matjson::Value, std::__ndk1::basic_string<char, std::__ndk1::char_traits<char>, std::__ndk1::allocator<char> > >, (std::__ndk1::__variant_detail::_Trait)1>, std::__ndk1::__variant_detail::__base<(std::__ndk1::__variant_detail::__traits<matjson::Value, std::__ndk1::basic_string<char, std::__ndk1::char_traits<char>, std::__ndk1::allocator<char> > >)1, matjson, std::__ndk1::allocator<char> >&)
PUBLIC cc868 0 std::__ndk1::__variant_detail::__visitation::__base::__dispatcher<(unsigned long)1>::__dispatch[abi:ne180000]<std::__ndk1::__variant_detail::__dtor<std::__ndk1::__variant_detail::__traits<matjson::Value, std::__ndk1::basic_string<char, std::__ndk1::char_traits<char>, std::__ndk1::allocator<char> > >, (std::__ndk1::__variant_detail::_Trait)1>::__destroy[abi:ne180000]()::{lambda(auto:1&)#1}, std::__ndk1::__variant_detail::__base<(std::__ndk1::__variant_detail::__traits<matjson::Value, std::__ndk1::basic_string<char, std::__ndk1::char_traits<char>, std::__ndk1::allocator<char> > >)1, matjson, std::__ndk1::allocator<char> >&>(std::__ndk1::__variant_detail::__dtor<std::__ndk1::__variant_detail::__traits<matjson::Value, std::__ndk1::basic_string<char, std::__ndk1::char_traits<char>, std::__ndk1::allocator<char> > >, (std::__ndk1::__variant_detail::_Trait)1>, std::__ndk1::__variant_detail::__base<(std::__ndk1::__variant_detail::__traits<matjson::Value, std::__ndk1::basic_string<char, std::__ndk1::char_traits<char>, std::__ndk1::allocator<char> > >)1, matjson, std::__ndk1::allocator<char> >&)
PUBLIC cc87c 0 std::__ndk1::__function::__func<geode::Task<geode::utils::web::WebResponse, geode::utils::web::WebProgress>::map<hook29<(anonymous namespace)::hook29Parent>::init(GJGameLevel*, bool)::{lambda(geode::utils::web::WebResponse*)#1}, geode::utils::web::WebProgress (*)(geode::utils::web::WebProgress*), void (*)()>(hook29<(anonymous namespace)::hook29Parent>::init(GJGameLevel*, bool)::{lambda(geode::utils::web::WebResponse*)#1}&&, geode::utils::web::WebProgress (*&&)(geode::utils::web::WebProgress*), void (*&&)(), std::__ndk1::basic_string_view<char, std::__ndk1::char_traits<char> >) const::{lambda(geode::Task<geode::utils::web::WebResponse, geode::utils::web::WebProgress>::Event*)#1}, std::__ndk1::allocator<geode::Task<geode::utils::web::WebResponse, geode::utils::web::WebProgress>::map<hook29<(anonymous namespace)::hook29Parent>::init(GJGameLevel*, bool)::{lambda(geode::utils::web::WebResponse*)#1}, geode::utils::web::WebProgress (*)(geode::utils::web::WebProgress*), void (*)()>(hook29<(anonymous namespace)::hook29Parent>::init(GJGameLevel*, bool)::{lambda(geode::utils::web::WebResponse*)#1}&&, geode::utils::web::WebProgress (*&&)(geode::utils::web::WebProgress*), void (*&&)(), std::__ndk1::basic_string_view<char, std::__ndk1::char_traits<char> >) const::{lambda(geode::Task<geode::utils::web::WebResponse, geode::utils::web::WebProgress>::Event*)#1}>, void (geode::Task<geode::utils::web::WebResponse, geode::utils::web::WebProgress>::Event*)>::~__func()
PUBLIC cc918 0 std::__ndk1::__function::__func<geode::Task<geode::utils::web::WebResponse, geode::utils::web::WebProgress>::map<hook29<(anonymous namespace)::hook29Parent>::init(GJGameLevel*, bool)::{lambda(geode::utils::web::WebResponse*)#1}, geode::utils::web::WebProgress (*)(geode::utils::web::WebProgress*), void (*)()>(hook29<(anonymous namespace)::hook29Parent>::init(GJGameLevel*, bool)::{lambda(geode::utils::web::WebResponse*)#1}&&, geode::utils::web::WebProgress (*&&)(geode::utils::web::WebProgress*), void (*&&)(), std::__ndk1::basic_string_view<char, std::__ndk1::char_traits<char> >) const::{lambda(geode::Task<geode::utils::web::WebResponse, geode::utils::web::WebProgress>::Event*)#1}, std::__ndk1::allocator<geode::Task<geode::utils::web::WebResponse, geode::utils::web::WebProgress>::map<hook29<(anonymous namespace)::hook29Parent>::init(GJGameLevel*, bool)::{lambda(geode::utils::web::WebResponse*)#1}, geode::utils::web::WebProgress (*)(geode::utils::web::WebProgress*), void (*)()>(hook29<(anonymous namespace)::hook29Parent>::init(GJGameLevel*, bool)::{lambda(geode::utils::web::WebResponse*)#1}&&, geode::utils::web::WebProgress (*&&)(geode::utils::web::WebProgress*), void (*&&)(), std::__ndk1::basic_string_view<char, std::__ndk1::char_traits<char> >) const::{lambda(geode::Task<geode::utils::web::WebResponse, geode::utils::web::WebProgress>::Event*)#1}>, void (geode::Task<geode::utils::web::WebResponse, geode::utils::web::WebProgress>::Event*)>::~__func()
PUBLIC cc9b0 0 std::__ndk1::__function::__func<geode::Task<geode::utils::web::WebResponse, geode::utils::web::WebProgress>::map<hook29<(anonymous namespace)::hook29Parent>::init(GJGameLevel*, bool)::{lambda(geode::utils::web::WebResponse*)#1}, geode::utils::web::WebProgress (*)(geode::utils::web::WebProgress*), void (*)()>(hook29<(anonymous namespace)::hook29Parent>::init(GJGameLevel*, bool)::{lambda(geode::utils::web::WebResponse*)#1}&&, geode::utils::web::WebProgress (*&&)(geode::utils::web::WebProgress*), void (*&&)(), std::__ndk1::basic_string_view<char, std::__ndk1::char_traits<char> >) const::{lambda(geode::Task<geode::utils::web::WebResponse, geode::utils::web::WebProgress>::Event*)#1}, std::__ndk1::allocator<geode::Task<geode::utils::web::WebResponse, geode::utils::web::WebProgress>::map<hook29<(anonymous namespace)::hook29Parent>::init(GJGameLevel*, bool)::{lambda(geode::utils::web::WebResponse*)#1}, geode::utils::web::WebProgress (*)(geode::utils::web::WebProgress*), void (*)()>(hook29<(anonymous namespace)::hook29Parent>::init(GJGameLevel*, bool)::{lambda(geode::utils::web::WebResponse*)#1}&&, geode::utils::web::WebProgress (*&&)(geode::utils::web::WebProgress*), void (*&&)(), std::__ndk1::basic_string_view<char, std::__ndk1::char_traits<char> >) const::{lambda(geode::Task<geode::utils::web::WebResponse, geode::utils::web::WebProgress>::Event*)#1}>, void (geode::Task<geode::utils::web::WebResponse, geode::utils::web::WebProgress>::Event*)>::__clone() const
PUBLIC cca04 0 std::__ndk1::__function::__func<geode::Task<geode::utils::web::WebResponse, geode::utils::web::WebProgress>::map<hook29<(anonymous namespace)::hook29Parent>::init(GJGameLevel*, bool)::{lambda(geode::utils::web::WebResponse*)#1}, geode::utils::web::WebProgress (*)(geode::utils::web::WebProgress*), void (*)()>(hook29<(anonymous namespace)::hook29Parent>::init(GJGameLevel*, bool)::{lambda(geode::utils::web::WebResponse*)#1}&&, geode::utils::web::WebProgress (*&&)(geode::utils::web::WebProgress*), void (*&&)(), std::__ndk1::basic_string_view<char, std::__ndk1::char_traits<char> >) const::{lambda(geode::Task<geode::utils::web::WebResponse, geode::utils::web::WebProgress>::Event*)#1}, std::__ndk1::allocator<geode::Task<geode::utils::web::WebResponse, geode::utils::web::WebProgress>::map<hook29<(anonymous namespace)::hook29Parent>::init(GJGameLevel*, bool)::{lambda(geode::utils::web::WebResponse*)#1}, geode::utils::web::WebProgress (*)(geode::utils::web::WebProgress*), void (*)()>(hook29<(anonymous namespace)::hook29Parent>::init(GJGameLevel*, bool)::{lambda(geode::utils::web::WebResponse*)#1}&&, geode::utils::web::WebProgress (*&&)(geode::utils::web::WebProgress*), void (*&&)(), std::__ndk1::basic_string_view<char, std::__ndk1::char_traits<char> >) const::{lambda(geode::Task<geode::utils::web::WebResponse, geode::utils::web::WebProgress>::Event*)#1}>, void (geode::Task<geode::utils::web::WebResponse, geode::utils::web::WebProgress>::Event*)>::__clone(std::__ndk1::__function::__base<void (geode::Task<geode::utils::web::WebResponse, geode::utils::web::WebProgress>::Event*)>*) const
PUBLIC cca20 0 std::__ndk1::__function::__func<geode::Task<geode::utils::web::WebResponse, geode::utils::web::WebProgress>::map<hook29<(anonymous namespace)::hook29Parent>::init(GJGameLevel*, bool)::{lambda(geode::utils::web::WebResponse*)#1}, geode::utils::web::WebProgress (*)(geode::utils::web::WebProgress*), void (*)()>(hook29<(anonymous namespace)::hook29Parent>::init(GJGameLevel*, bool)::{lambda(geode::utils::web::WebResponse*)#1}&&, geode::utils::web::WebProgress (*&&)(geode::utils::web::WebProgress*), void (*&&)(), std::__ndk1::basic_string_view<char, std::__ndk1::char_traits<char> >) const::{lambda(geode::Task<geode::utils::web::WebResponse, geode::utils::web::WebProgress>::Event*)#1}, std::__ndk1::allocator<geode::Task<geode::utils::web::WebResponse, geode::utils::web::WebProgress>::map<hook29<(anonymous namespace)::hook29Parent>::init(GJGameLevel*, bool)::{lambda(geode::utils::web::WebResponse*)#1}, geode::utils::web::WebProgress (*)(geode::utils::web::WebProgress*), void (*)()>(hook29<(anonymous namespace)::hook29Parent>::init(GJGameLevel*, bool)::{lambda(geode::utils::web::WebResponse*)#1}&&, geode::utils::web::WebProgress (*&&)(geode::utils::web::WebProgress*), void (*&&)(), std::__ndk1::basic_string_view<char, std::__ndk1::char_traits<char> >) const::{lambda(geode::Task<geode::utils::web::WebResponse, geode::utils::web::WebProgress>::Event*)#1}>, void (geode::Task<geode::utils::web::WebResponse, geode::utils::web::WebProgress>::Event*)>::destroy()
PUBLIC ccab0 0 std::__ndk1::__function::__func<geode::Task<geode::utils::web::WebResponse, geode::utils::web::WebProgress>::map<hook29<(anonymous namespace)::hook29Parent>::init(GJGameLevel*, bool)::{lambda(geode::utils::web::WebResponse*)#1}, geode::utils::web::WebProgress (*)(geode::utils::web::WebProgress*), void (*)()>(hook29<(anonymous namespace)::hook29Parent>::init(GJGameLevel*, bool)::{lambda(geode::utils::web::WebResponse*)#1}&&, geode::utils::web::WebProgress (*&&)(geode::utils::web::WebProgress*), void (*&&)(), std::__ndk1::basic_string_view<char, std::__ndk1::char_traits<char> >) const::{lambda(geode::Task<geode::utils::web::WebResponse, geode::utils::web::WebProgress>::Event*)#1}, std::__ndk1::allocator<geode::Task<geode::utils::web::WebResponse, geode::utils::web::WebProgress>::map<hook29<(anonymous namespace)::hook29Parent>::init(GJGameLevel*, bool)::{lambda(geode::utils::web::WebResponse*)#1}, geode::utils::web::WebProgress (*)(geode::utils::web::WebProgress*), void (*)()>(hook29<(anonymous namespace)::hook29Parent>::init(GJGameLevel*, bool)::{lambda(geode::utils::web::WebResponse*)#1}&&, geode::utils::web::WebProgress (*&&)(geode::utils::web::WebProgress*), void (*&&)(), std::__ndk1::basic_string_view<char, std::__ndk1::char_traits<char> >) const::{lambda(geode::Task<geode::utils::web::WebResponse, geode::utils::web::WebProgress>::Event*)#1}>, void (geode::Task<geode::utils::web::WebResponse, geode::utils::web::WebProgress>::Event*)>::destroy_deallocate()
PUBLIC ccb3c 0 std::__ndk1::__function::__func<geode::Task<geode::utils::web::WebResponse, geode::utils::web::WebProgress>::map<hook29<(anonymous namespace)::hook29Parent>::init(GJGameLevel*, bool)::{lambda(geode::utils::web::WebResponse*)#1}, geode::utils::web::WebProgress (*)(geode::utils::web::WebProgress*), void (*)()>(hook29<(anonymous namespace)::hook29Parent>::init(GJGameLevel*, bool)::{lambda(geode::utils::web::WebResponse*)#1}&&, geode::utils::web::WebProgress (*&&)(geode::utils::web::WebProgress*), void (*&&)(), std::__ndk1::basic_string_view<char, std::__ndk1::char_traits<char> >) const::{lambda(geode::Task<geode::utils::web::WebResponse, geode::utils::web::WebProgress>::Event*)#1}, std::__ndk1::allocator<geode::Task<geode::utils::web::WebResponse, geode::utils::web::WebProgress>::map<hook29<(anonymous namespace)::hook29Parent>::init(GJGameLevel*, bool)::{lambda(geode::utils::web::WebResponse*)#1}, geode::utils::web::WebProgress (*)(geode::utils::web::WebProgress*), void (*)()>(hook29<(anonymous namespace)::hook29Parent>::init(GJGameLevel*, bool)::{lambda(geode::utils::web::WebResponse*)#1}&&, geode::utils::web::WebProgress (*&&)(geode::utils::web::WebProgress*), void (*&&)(), std::__ndk1::basic_string_view<char, std::__ndk1::char_traits<char> >) const::{lambda(geode::Task<geode::utils::web::WebResponse, geode::utils::web::WebProgress>::Event*)#1}>, void (geode::Task<geode::utils::web::WebResponse, geode::utils::web::WebProgress>::Event*)>::operator()(geode::Task<geode::utils::web::WebResponse, geode::utils::web::WebProgress>::Event*&&)
PUBLIC ccd10 0 std::__ndk1::__function::__func<geode::Task<geode::utils::web::WebResponse, geode::utils::web::WebProgress>::map<hook29<(anonymous namespace)::hook29Parent>::init(GJGameLevel*, bool)::{lambda(geode::utils::web::WebResponse*)#1}, geode::utils::web::WebProgress (*)(geode::utils::web::WebProgress*), void (*)()>(hook29<(anonymous namespace)::hook29Parent>::init(GJGameLevel*, bool)::{lambda(geode::utils::web::WebResponse*)#1}&&, geode::utils::web::WebProgress (*&&)(geode::utils::web::WebProgress*), void (*&&)(), std::__ndk1::basic_string_view<char, std::__ndk1::char_traits<char> >) const::{lambda(geode::Task<geode::utils::web::WebResponse, geode::utils::web::WebProgress>::Event*)#1}, std::__ndk1::allocator<geode::Task<geode::utils::web::WebResponse, geode::utils::web::WebProgress>::map<hook29<(anonymous namespace)::hook29Parent>::init(GJGameLevel*, bool)::{lambda(geode::utils::web::WebResponse*)#1}, geode::utils::web::WebProgress (*)(geode::utils::web::WebProgress*), void (*)()>(hook29<(anonymous namespace)::hook29Parent>::init(GJGameLevel*, bool)::{lambda(geode::utils::web::WebResponse*)#1}&&, geode::utils::web::WebProgress (*&&)(geode::utils::web::WebProgress*), void (*&&)(), std::__ndk1::basic_string_view<char, std::__ndk1::char_traits<char> >) const::{lambda(geode::Task<geode::utils::web::WebResponse, geode::utils::web::WebProgress>::Event*)#1}>, void (geode::Task<geode::utils::web::WebResponse, geode::utils::web::WebProgress>::Event*)>::target(std::type_info const&) const
PUBLIC ccd2c 0 std::__ndk1::__function::__func<geode::Task<geode::utils::web::WebResponse, geode::utils::web::WebProgress>::map<hook29<(anonymous namespace)::hook29Parent>::init(GJGameLevel*, bool)::{lambda(geode::utils::web::WebResponse*)#1}, geode::utils::web::WebProgress (*)(geode::utils::web::WebProgress*), void (*)()>(hook29<(anonymous namespace)::hook29Parent>::init(GJGameLevel*, bool)::{lambda(geode::utils::web::WebResponse*)#1}&&, geode::utils::web::WebProgress (*&&)(geode::utils::web::WebProgress*), void (*&&)(), std::__ndk1::basic_string_view<char, std::__ndk1::char_traits<char> >) const::{lambda(geode::Task<geode::utils::web::WebResponse, geode::utils::web::WebProgress>::Event*)#1}, std::__ndk1::allocator<geode::Task<geode::utils::web::WebResponse, geode::utils::web::WebProgress>::map<hook29<(anonymous namespace)::hook29Parent>::init(GJGameLevel*, bool)::{lambda(geode::utils::web::WebResponse*)#1}, geode::utils::web::WebProgress (*)(geode::utils::web::WebProgress*), void (*)()>(hook29<(anonymous namespace)::hook29Parent>::init(GJGameLevel*, bool)::{lambda(geode::utils::web::WebResponse*)#1}&&, geode::utils::web::WebProgress (*&&)(geode::utils::web::WebProgress*), void (*&&)(), std::__ndk1::basic_string_view<char, std::__ndk1::char_traits<char> >) const::{lambda(geode::Task<geode::utils::web::WebResponse, geode::utils::web::WebProgress>::Event*)#1}>, void (geode::Task<geode::utils::web::WebResponse, geode::utils::web::WebProgress>::Event*)>::target_type() const
PUBLIC ccd38 0 std::__ndk1::__compressed_pair_elem<geode::Task<geode::utils::web::WebResponse, geode::utils::web::WebProgress>::map<hook29<(anonymous namespace)::hook29Parent>::init(GJGameLevel*, bool)::{lambda(geode::utils::web::WebResponse*)#1}, geode::utils::web::WebProgress (*)(geode::utils::web::WebProgress*), void (*)()>(hook29<(anonymous namespace)::hook29Parent>::init(GJGameLevel*, bool)::{lambda(geode::utils::web::WebResponse*)#1}&&, geode::utils::web::WebProgress (*&&)(geode::utils::web::WebProgress*), void (*&&)(), std::__ndk1::basic_string_view<char, std::__ndk1::char_traits<char> >) const::{lambda(geode::Task<geode::utils::web::WebResponse, geode::utils::web::WebProgress>::Event*)#1}, 0, false>::__compressed_pair_elem[abi:ne180000]<geode::Task<geode::utils::web::WebResponse, geode::utils::web::WebProgress>::map<hook29<(anonymous namespace)::hook29Parent>::init(GJGameLevel*, bool)::{lambda(geode::utils::web::WebResponse*)#1}, geode::utils::web::WebProgress (*)(geode::utils::web::WebProgress*), void (*)()>(hook29<(anonymous namespace)::hook29Parent>::init(GJGameLevel*, bool)::{lambda(geode::utils::web::WebResponse*)#1}&&, geode::utils::web::WebProgress (*&&)(geode::utils::web::WebProgress*), void (*&&)(), std::__ndk1::basic_string_view<char, std::__ndk1::char_traits<char> >) const::{lambda(geode::Task<geode::utils::web::WebResponse, geode::utils::web::WebProgress>::Event*)#1} const&, (unsigned long)0>(std::__ndk1::tuple<geode::Task<geode::utils::web::WebResponse, geode::utils::web::WebProgress>::map<hook29<(anonymous namespace)::hook29Parent>::init(GJGameLevel*, bool)::{lambda(geode::utils::web::WebResponse*)#1}, geode::utils::web::WebProgress (*)(geode::utils::web::WebProgress*), void (*)()>(hook29<(anonymous namespace)::hook29Parent>::init(GJGameLevel*, bool)::{lambda(geode::utils::web::WebResponse*)#1}&&, geode::utils::web::WebProgress (*&&)(geode::utils::web::WebProgress*), void (*&&)(), std::__ndk1::basic_string_view<char, std::__ndk1::char_traits<char> >) const::{lambda(geode::Task<geode::utils::web::WebResponse, geode::utils::web::WebProgress>::Event*)#1} const&>, std::__ndk1::__tuple_indices<((unsigned long)0)...>)
PUBLIC cce80 0 geode::Task<geode::utils::web::WebResponse, geode::utils::web::WebProgress>::map<hook29<(anonymous namespace)::hook29Parent>::init(GJGameLevel*, bool)::{lambda(geode::utils::web::WebResponse*)#1}, geode::utils::web::WebProgress (*)(geode::utils::web::WebProgress*), void (*)()>(hook29<(anonymous namespace)::hook29Parent>::init(GJGameLevel*, bool)::{lambda(geode::utils::web::WebResponse*)#1}&&, geode::utils::web::WebProgress (*&&)(geode::utils::web::WebProgress*), void (*&&)(), std::__ndk1::basic_string_view<char, std::__ndk1::char_traits<char> >) const::{lambda(void*)#1}::__invoke(void*)
PUBLIC cce94 0 geode::Task<geode::utils::web::WebResponse, geode::utils::web::WebProgress>::map<hook29<(anonymous namespace)::hook29Parent>::init(GJGameLevel*, bool)::{lambda(geode::utils::web::WebResponse*)#1}, geode::utils::web::WebProgress (*)(geode::utils::web::WebProgress*), void (*)()>(hook29<(anonymous namespace)::hook29Parent>::init(GJGameLevel*, bool)::{lambda(geode::utils::web::WebResponse*)#1}&&, geode::utils::web::WebProgress (*&&)(geode::utils::web::WebProgress*), void (*&&)(), std::__ndk1::basic_string_view<char, std::__ndk1::char_traits<char> >) const::{lambda(void*)#2}::__invoke(void*)
PUBLIC ccf4c 0 geode::Task<geode::utils::web::WebResponse, geode::utils::web::WebProgress>::map<hook29<(anonymous namespace)::hook29Parent>::init(GJGameLevel*, bool)::{lambda(geode::utils::web::WebResponse*)#1}, geode::utils::web::WebProgress (*)(geode::utils::web::WebProgress*)>(hook29<(anonymous namespace)::hook29Parent>::init(GJGameLevel*, bool)::{lambda(geode::utils::web::WebResponse*)#1}&&, geode::utils::web::WebProgress (*&&)(geode::utils::web::WebProgress*), std::__ndk1::basic_string_view<char, std::__ndk1::char_traits<char> >) const::{lambda()#1}::__invoke()
PUBLIC ccf50 0 _ZZNK5geode4TaskINS_5utils3web11WebResponseENS2_11WebProgressEE3mapIZN6hook29IN12_GLOBAL__N_112hook29ParentEE4initEP11GJGameLevelbEUlPS3_E_Qsr3stdE18copy_constructibleIT0_EEEDaOT_NSt6__ndk117basic_string_viewIcNSI_11char_traitsIcEEEEENUlPS4_E_8__invokeESN_
PUBLIC ccf78 0 _GLOBAL__sub_I_DownloadManager.cpp
PUBLIC cd07c 0 SearchUserLayer::onValidate(cocos2d::CCObject*)
PUBLIC cdaf8 0 __cxx_global_var_init
PUBLIC cdf78 0 geode::modifier::ModifyBase<geode::modifier::ModifyDerive<FriendPage, FriendsProfilePage> >::~ModifyBase()
PUBLIC cdf94 0 geode::modifier::ModifyDerive<FriendPage, FriendsProfilePage>::apply()
PUBLIC ce740 0 geode::modifier::ModifyBase<geode::modifier::ModifyDerive<FriendPage, FriendsProfilePage> >::apply()
PUBLIC ce744 0 geode::Hook::create<void (*)(FriendPage*, cocos2d::CCArray*, UserListType)>(void*, void (*)(FriendPage*, cocos2d::CCArray*, UserListType), std::__ndk1::basic_string<char, std::__ndk1::char_traits<char>, std::__ndk1::allocator<char> > const&, tulip::hook::TulipConvention, tulip::hook::HookMetadata const&)
PUBLIC ce90c 0 geode::modifier::AsStaticFunction_getUserListFinished<FriendPage, void (FriendPage::*)(cocos2d::CCArray*, UserListType)>::Impl<void (FriendPage::*)(cocos2d::CCArray*, UserListType)>::function(FriendPage*, cocos2d::CCArray*, UserListType)
PUBLIC cea08 0 geode::modifier::AsStaticFunction_init<FriendPage, bool (FriendPage::*)(UserListType)>::Impl<bool (FriendPage::*)(UserListType)>::function(FriendPage*, UserListType)
PUBLIC ceaf8 0 geode::modifier::AsStaticFunction_setupUsersBrowser<FriendPage, void (FriendPage::*)(cocos2d::CCArray*, UserListType)>::Impl<void (FriendPage::*)(cocos2d::CCArray*, UserListType)>::function(FriendPage*, cocos2d::CCArray*, UserListType)
PUBLIC ceb4c 0 geode::addresser::Addresser::addressOfVirtual<void, FriendsProfilePage, cocos2d::CCArray*, UserListType>(void (FriendsProfilePage::*)(cocos2d::CCArray*, UserListType))
PUBLIC cebf4 0 FriendsProfilePage::FriendsProfilePage(geode::ZeroConstructorType)
PUBLIC cec98 0 std::__ndk1::vector<tulip::hook::AbstractType, std::__ndk1::allocator<tulip::hook::AbstractType> >::__throw_length_error[abi:ne180000]() const
PUBLIC cecac 0 FriendPage::onSearch(cocos2d::CCObject*)
PUBLIC ceed4 0 SearchUserLayer::~SearchUserLayer()
PUBLIC ceef8 0 SearchUserLayer::setup()
PUBLIC cf078 0 SearchUserLayer::onClose(cocos2d::CCObject*)
PUBLIC cf0b4 0 {virtual override thunk({offset(-320)}, SearchUserLayer::~SearchUserLayer())}
PUBLIC cf0bc 0 {virtual override thunk({offset(-320)}, SearchUserLayer::~SearchUserLayer())}
PUBLIC cf0e4 0 InfoNewLayer::onCopyLevelURL(cocos2d::CCObject*)
PUBLIC cf3c0 0 __cxx_global_var_init
PUBLIC cf7fc 0 geode::modifier::ModifyBase<geode::modifier::ModifyDerive<hook15<(anonymous namespace)::hook15Parent>, InfoLayer> >::~ModifyBase()
PUBLIC cf818 0 geode::modifier::ModifyDerive<hook15<(anonymous namespace)::hook15Parent>, InfoLayer>::apply()
PUBLIC cfbc0 0 geode::modifier::ModifyBase<geode::modifier::ModifyDerive<hook15<(anonymous namespace)::hook15Parent>, InfoLayer> >::apply()
PUBLIC cfbc4 0 geode::modifier::AsStaticFunction_init<hook15<(anonymous namespace)::hook15Parent>, bool (hook15<(anonymous namespace)::hook15Parent>::*)(GJGameLevel*, GJUserScore*, GJLevelList*)>::Impl<bool (hook15<(anonymous namespace)::hook15Parent>::*)(GJGameLevel*, GJUserScore*, GJLevelList*)>::function(hook15<(anonymous namespace)::hook15Parent>*, GJGameLevel*, GJUserScore*, GJLevelList*)
PUBLIC cfdfc 0 std::__ndk1::queue<int, std::__ndk1::deque<int, std::__ndk1::allocator<int> > >::~queue()
PUBLIC cfecc 0 std::__ndk1::shared_ptr<sio::socket>::~shared_ptr[abi:ne180000]()
PUBLIC cff1c 0 ConnectionHandler::onSuccess()
PUBLIC cffac 0 ConnectionHandler::onClose(sio::client::close_reason const&)
PUBLIC d00a4 0 ConnectionHandler::onFail()
PUBLIC d0128 0 ConnectionHandler::onError(std::__ndk1::shared_ptr<sio::message> const&)
PUBLIC d01d8 0 geode::Mod::get<void>()
PUBLIC d0214 0 sio::message::list::~list()
PUBLIC d02bc 0 start_socket_func()
PUBLIC d0d84 0 processEvent(cocos2d::CCScene*)
PUBLIC d0f9c 0 processChestEvent(cocos2d::CCScene*)
PUBLIC d108c 0 geodeExecFunction500<(anonymous namespace)::ExecFuncUnique500>(geode::ModStateEvent*)
PUBLIC d1864 0 __cxx_global_var_init.21
PUBLIC d1ca0 0 __cxx_global_var_init.22
PUBLIC d20dc 0 __cxx_global_var_init.23
PUBLIC d2518 0 __cxx_global_var_init.24
PUBLIC d2954 0 _GLOBAL__sub_I_main.cpp
PUBLIC d2dc4 0 geode::modifier::ModifyBase<geode::modifier::ModifyDerive<hook159<(anonymous namespace)::hook159Parent>, cocos2d::CCScheduler> >::~ModifyBase()
PUBLIC d2de0 0 geode::modifier::ModifyBase<geode::modifier::ModifyDerive<hook315<(anonymous namespace)::hook315Parent>, cocos2d::CCSprite> >::~ModifyBase()
PUBLIC d2dfc 0 geode::modifier::ModifyBase<geode::modifier::ModifyDerive<hook341<(anonymous namespace)::hook341Parent>, cocos2d::extension::CCScale9Sprite> >::~ModifyBase()
PUBLIC d2e18 0 geode::modifier::ModifyBase<geode::modifier::ModifyDerive<hook427<(anonymous namespace)::hook427Parent>, MenuLayer> >::~ModifyBase()
PUBLIC d2e34 0 fmt::v11::detail::value<fmt::v11::context>::format_custom_arg<geode::VersionInfo, fmt::v11::formatter<geode::VersionInfo, char, void> >(void*, fmt::v11::basic_format_parse_context<char>&, fmt::v11::context&)
PUBLIC d3008 0 fmt::v11::detail::parse_format_specs<char>(char const*, char const*, fmt::v11::detail::dynamic_format_specs<char>&, fmt::v11::basic_format_parse_context<char>&, fmt::v11::detail::type)
PUBLIC d34bc 0 fmt::v11::detail::parse_dynamic_spec<char>(char const*, char const*, int&, fmt::v11::detail::arg_ref<char>&, fmt::v11::basic_format_parse_context<char>&)
PUBLIC d3660 0 fmt::v11::detail::do_parse_arg_id<char, fmt::v11::detail::dynamic_spec_id_handler<char>&>(char const*, char const*, fmt::v11::detail::dynamic_spec_id_handler<char>&)
PUBLIC d37f4 0 fmt::v11::detail::handle_dynamic_spec<fmt::v11::detail::width_checker, fmt::v11::context>(int&, fmt::v11::detail::arg_ref<fmt::v11::context::char_type>, fmt::v11::context&)
PUBLIC d3908 0 fmt::v11::detail::handle_dynamic_spec<fmt::v11::detail::precision_checker, fmt::v11::context>(int&, fmt::v11::detail::arg_ref<fmt::v11::context::char_type>, fmt::v11::context&)
PUBLIC d3a1c 0 fmt::v11::detail::write<char, fmt::v11::basic_appender<char> >(fmt::v11::basic_appender<char>, fmt::v11::basic_string_view<char>, fmt::v11::format_specs const&)
PUBLIC d3c98 0 fmt::v11::detail::write_escaped_string<char, fmt::v11::detail::counting_iterator>(fmt::v11::detail::counting_iterator, fmt::v11::basic_string_view<char>)
PUBLIC d41b8 0 fmt::v11::detail::write_padded<char, (fmt::v11::align::type)1, fmt::v11::basic_appender<char>, fmt::v11::detail::write<char, fmt::v11::basic_appender<char> >(fmt::v11::basic_appender<char>, fmt::v11::basic_string_view<char>, fmt::v11::format_specs const&)::{lambda(fmt::v11::basic_appender<char>)#1}>(fmt::v11::basic_appender<char>, fmt::v11::format_specs const&, unsigned long, unsigned long, fmt::v11::detail::write<char, fmt::v11::basic_appender<char> >(fmt::v11::basic_appender<char>, fmt::v11::basic_string_view<char>, fmt::v11::format_specs const&)::{lambda(fmt::v11::basic_appender<char>&&)#1})
PUBLIC d43c4 0 fmt::v11::detail::for_each_codepoint<fmt::v11::detail::code_point_index(fmt::v11::basic_string_view<char>, unsigned long)::{lambda(unsigned int, fmt::v11::basic_string_view<char>)#1}>(fmt::v11::basic_string_view<char>, fmt::v11::detail::code_point_index(fmt::v11::basic_string_view<char>, unsigned long)::{lambda(unsigned int, fmt::v11::basic_string_view<char>)#1})
PUBLIC d47ec 0 fmt::v11::detail::write_escaped_cp<fmt::v11::detail::counting_iterator, char>(fmt::v11::detail::counting_iterator, fmt::v11::detail::find_escape_result<char> const&)
PUBLIC d4980 0 fmt::v11::detail::for_each_codepoint<fmt::v11::detail::compute_width(fmt::v11::basic_string_view<char>)::count_code_points>(fmt::v11::basic_string_view<char>, fmt::v11::detail::compute_width(fmt::v11::basic_string_view<char>)::count_code_points)::{lambda(char const*, char const*)#1}::operator()(char const*, char const*) const
PUBLIC d4b38 0 fmt::v11::detail::fill<char, fmt::v11::basic_appender<char> >(fmt::v11::basic_appender<char>, unsigned long, fmt::v11::detail::fill_t const&)
PUBLIC d4d08 0 fmt::v11::detail::write_escaped_string<char, fmt::v11::basic_appender<char> >(fmt::v11::basic_appender<char>, fmt::v11::basic_string_view<char>)
PUBLIC d5384 0 fmt::v11::detail::write_escaped_cp<fmt::v11::basic_appender<char>, char>(fmt::v11::basic_appender<char>, fmt::v11::detail::find_escape_result<char> const&)
PUBLIC d5568 0 fmt::v11::detail::write_codepoint<(unsigned long)2, char, fmt::v11::basic_appender<char> >(fmt::v11::basic_appender<char>, char, unsigned int)
PUBLIC d56e0 0 fmt::v11::detail::write_codepoint<(unsigned long)4, char, fmt::v11::basic_appender<char> >(fmt::v11::basic_appender<char>, char, unsigned int)
PUBLIC d5858 0 fmt::v11::detail::write_codepoint<(unsigned long)8, char, fmt::v11::basic_appender<char> >(fmt::v11::basic_appender<char>, char, unsigned int)
PUBLIC d59d0 0 fmt::v11::detail::get_dynamic_spec<fmt::v11::detail::width_checker, fmt::v11::basic_format_arg<fmt::v11::context> >(fmt::v11::basic_format_arg<fmt::v11::context>)
PUBLIC d5a64 0 fmt::v11::basic_format_args<fmt::v11::context>::get<char>(fmt::v11::basic_string_view<char>) const
PUBLIC d5bbc 0 fmt::v11::detail::get_dynamic_spec<fmt::v11::detail::precision_checker, fmt::v11::basic_format_arg<fmt::v11::context> >(fmt::v11::basic_format_arg<fmt::v11::context>)
PUBLIC d5c50 0 std::__ndk1::__function::__func<setSocket(std::__ndk1::shared_ptr<sio::socket>)::$_0, std::__ndk1::allocator<setSocket(std::__ndk1::shared_ptr<sio::socket>)::$_0>, void (std::__ndk1::basic_string<char, std::__ndk1::char_traits<char>, std::__ndk1::allocator<char> > const&, std::__ndk1::shared_ptr<sio::message> const&, bool, sio::message&::list)>::~__func()
PUBLIC d5c54 0 std::__ndk1::__function::__func<setSocket(std::__ndk1::shared_ptr<sio::socket>)::$_0, std::__ndk1::allocator<setSocket(std::__ndk1::shared_ptr<sio::socket>)::$_0>, void (std::__ndk1::basic_string<char, std::__ndk1::char_traits<char>, std::__ndk1::allocator<char> > const&, std::__ndk1::shared_ptr<sio::message> const&, bool, sio::message&::list)>::__clone() const
PUBLIC d5c78 0 std::__ndk1::__function::__func<setSocket(std::__ndk1::shared_ptr<sio::socket>)::$_0, std::__ndk1::allocator<setSocket(std::__ndk1::shared_ptr<sio::socket>)::$_0>, void (std::__ndk1::basic_string<char, std::__ndk1::char_traits<char>, std::__ndk1::allocator<char> > const&, std::__ndk1::shared_ptr<sio::message> const&, bool, sio::message&::list)>::__clone(std::__ndk1::__function::__base<void (std::__ndk1::basic_string<char, std::__ndk1::char_traits<char>, std::__ndk1::allocator<char> > const&, std::__ndk1::shared_ptr<sio::message> const&, bool, sio::message&::list)>*) const
PUBLIC d5c88 0 std::__ndk1::__function::__func<setSocket(std::__ndk1::shared_ptr<sio::socket>)::$_0, std::__ndk1::allocator<setSocket(std::__ndk1::shared_ptr<sio::socket>)::$_0>, void (std::__ndk1::basic_string<char, std::__ndk1::char_traits<char>, std::__ndk1::allocator<char> > const&, std::__ndk1::shared_ptr<sio::message> const&, bool, sio::message&::list)>::destroy()
PUBLIC d5c8c 0 std::__ndk1::__function::__func<setSocket(std::__ndk1::shared_ptr<sio::socket>)::$_0, std::__ndk1::allocator<setSocket(std::__ndk1::shared_ptr<sio::socket>)::$_0>, void (std::__ndk1::basic_string<char, std::__ndk1::char_traits<char>, std::__ndk1::allocator<char> > const&, std::__ndk1::shared_ptr<sio::message> const&, bool, sio::message&::list)>::destroy_deallocate()
PUBLIC d5c90 0 std::__ndk1::__function::__func<setSocket(std::__ndk1::shared_ptr<sio::socket>)::$_0, std::__ndk1::allocator<setSocket(std::__ndk1::shared_ptr<sio::socket>)::$_0>, void (std::__ndk1::basic_string<char, std::__ndk1::char_traits<char>, std::__ndk1::allocator<char> > const&, std::__ndk1::shared_ptr<sio::message> const&, bool, sio::message&::list)>::operator()(std::__ndk1::basic_string<char, std::__ndk1::char_traits<char>, std::__ndk1::allocator<char> > const&, std::__ndk1::shared_ptr<sio::message> const&, bool&&, sio::message&::list)
PUBLIC d5d70 0 std::__ndk1::__function::__func<setSocket(std::__ndk1::shared_ptr<sio::socket>)::$_0, std::__ndk1::allocator<setSocket(std::__ndk1::shared_ptr<sio::socket>)::$_0>, void (std::__ndk1::basic_string<char, std::__ndk1::char_traits<char>, std::__ndk1::allocator<char> > const&, std::__ndk1::shared_ptr<sio::message> const&, bool, sio::message&::list)>::target(std::type_info const&) const
PUBLIC d5d8c 0 std::__ndk1::__function::__func<setSocket(std::__ndk1::shared_ptr<sio::socket>)::$_0, std::__ndk1::allocator<setSocket(std::__ndk1::shared_ptr<sio::socket>)::$_0>, void (std::__ndk1::basic_string<char, std::__ndk1::char_traits<char>, std::__ndk1::allocator<char> > const&, std::__ndk1::shared_ptr<sio::message> const&, bool, sio::message&::list)>::target_type() const
PUBLIC d5d98 0 std::__ndk1::__function::__base<void (std::__ndk1::basic_string<char, std::__ndk1::char_traits<char>, std::__ndk1::allocator<char> > const&, std::__ndk1::shared_ptr<sio::message> const&, bool, sio::message&::list)>::~__base()
PUBLIC d5d9c 0 std::__ndk1::__function::__func<setSocket(std::__ndk1::shared_ptr<sio::socket>)::$_1, std::__ndk1::allocator<setSocket(std::__ndk1::shared_ptr<sio::socket>)::$_1>, void (std::__ndk1::basic_string<char, std::__ndk1::char_traits<char>, std::__ndk1::allocator<char> > const&, std::__ndk1::shared_ptr<sio::message> const&, bool, sio::message&::list)>::~__func()
PUBLIC d5da0 0 std::__ndk1::__function::__func<setSocket(std::__ndk1::shared_ptr<sio::socket>)::$_1, std::__ndk1::allocator<setSocket(std::__ndk1::shared_ptr<sio::socket>)::$_1>, void (std::__ndk1::basic_string<char, std::__ndk1::char_traits<char>, std::__ndk1::allocator<char> > const&, std::__ndk1::shared_ptr<sio::message> const&, bool, sio::message&::list)>::__clone() const
PUBLIC d5dc4 0 std::__ndk1::__function::__func<setSocket(std::__ndk1::shared_ptr<sio::socket>)::$_1, std::__ndk1::allocator<setSocket(std::__ndk1::shared_ptr<sio::socket>)::$_1>, void (std::__ndk1::basic_string<char, std::__ndk1::char_traits<char>, std::__ndk1::allocator<char> > const&, std::__ndk1::shared_ptr<sio::message> const&, bool, sio::message&::list)>::__clone(std::__ndk1::__function::__base<void (std::__ndk1::basic_string<char, std::__ndk1::char_traits<char>, std::__ndk1::allocator<char> > const&, std::__ndk1::shared_ptr<sio::message> const&, bool, sio::message&::list)>*) const
PUBLIC d5dd4 0 std::__ndk1::__function::__func<setSocket(std::__ndk1::shared_ptr<sio::socket>)::$_1, std::__ndk1::allocator<setSocket(std::__ndk1::shared_ptr<sio::socket>)::$_1>, void (std::__ndk1::basic_string<char, std::__ndk1::char_traits<char>, std::__ndk1::allocator<char> > const&, std::__ndk1::shared_ptr<sio::message> const&, bool, sio::message&::list)>::destroy()
PUBLIC d5dd8 0 std::__ndk1::__function::__func<setSocket(std::__ndk1::shared_ptr<sio::socket>)::$_1, std::__ndk1::allocator<setSocket(std::__ndk1::shared_ptr<sio::socket>)::$_1>, void (std::__ndk1::basic_string<char, std::__ndk1::char_traits<char>, std::__ndk1::allocator<char> > const&, std::__ndk1::shared_ptr<sio::message> const&, bool, sio::message&::list)>::destroy_deallocate()
PUBLIC d5ddc 0 std::__ndk1::__function::__func<setSocket(std::__ndk1::shared_ptr<sio::socket>)::$_1, std::__ndk1::allocator<setSocket(std::__ndk1::shared_ptr<sio::socket>)::$_1>, void (std::__ndk1::basic_string<char, std::__ndk1::char_traits<char>, std::__ndk1::allocator<char> > const&, std::__ndk1::shared_ptr<sio::message> const&, bool, sio::message&::list)>::operator()(std::__ndk1::basic_string<char, std::__ndk1::char_traits<char>, std::__ndk1::allocator<char> > const&, std::__ndk1::shared_ptr<sio::message> const&, bool&&, sio::message&::list)
PUBLIC d5e54 0 std::__ndk1::__function::__func<setSocket(std::__ndk1::shared_ptr<sio::socket>)::$_1, std::__ndk1::allocator<setSocket(std::__ndk1::shared_ptr<sio::socket>)::$_1>, void (std::__ndk1::basic_string<char, std::__ndk1::char_traits<char>, std::__ndk1::allocator<char> > const&, std::__ndk1::shared_ptr<sio::message> const&, bool, sio::message&::list)>::target(std::type_info const&) const
PUBLIC d5e70 0 std::__ndk1::__function::__func<setSocket(std::__ndk1::shared_ptr<sio::socket>)::$_1, std::__ndk1::allocator<setSocket(std::__ndk1::shared_ptr<sio::socket>)::$_1>, void (std::__ndk1::basic_string<char, std::__ndk1::char_traits<char>, std::__ndk1::allocator<char> > const&, std::__ndk1::shared_ptr<sio::message> const&, bool, sio::message&::list)>::target_type() const
PUBLIC d5e7c 0 std::__ndk1::__function::__func<void (*)(), std::__ndk1::allocator<void (*)()>, void ()>::~__func()
PUBLIC d5e80 0 std::__ndk1::__function::__func<void (*)(), std::__ndk1::allocator<void (*)()>, void ()>::__clone() const
PUBLIC d5eb4 0 std::__ndk1::__function::__func<void (*)(), std::__ndk1::allocator<void (*)()>, void ()>::__clone(std::__ndk1::__function::__base<void ()>*) const
PUBLIC d5ec8 0 std::__ndk1::__function::__func<void (*)(), std::__ndk1::allocator<void (*)()>, void ()>::destroy()
PUBLIC d5ecc 0 std::__ndk1::__function::__func<void (*)(), std::__ndk1::allocator<void (*)()>, void ()>::destroy_deallocate()
PUBLIC d5ed0 0 std::__ndk1::__function::__func<void (*)(), std::__ndk1::allocator<void (*)()>, void ()>::operator()()
PUBLIC d5ed8 0 std::__ndk1::__function::__func<void (*)(), std::__ndk1::allocator<void (*)()>, void ()>::target(std::type_info const&) const
PUBLIC d5ef4 0 std::__ndk1::__function::__func<void (*)(), std::__ndk1::allocator<void (*)()>, void ()>::target_type() const
PUBLIC d5f00 0 std::__ndk1::__function::__base<void (sio::client::close_reason const&)>::~__base()
PUBLIC d5f04 0 std::__ndk1::__function::__func<void (*)(sio::client::close_reason const&), std::__ndk1::allocator<void (*)(sio::client::close_reason const&)>, void (sio::client::close_reason const&)>::~__func()
PUBLIC d5f08 0 std::__ndk1::__function::__func<void (*)(sio::client::close_reason const&), std::__ndk1::allocator<void (*)(sio::client::close_reason const&)>, void (sio::client::close_reason const&)>::__clone() const
PUBLIC d5f3c 0 std::__ndk1::__function::__func<void (*)(sio::client::close_reason const&), std::__ndk1::allocator<void (*)(sio::client::close_reason const&)>, void (sio::client::close_reason const&)>::__clone(std::__ndk1::__function::__base<void (sio::client::close_reason const&)>*) const
PUBLIC d5f50 0 std::__ndk1::__function::__func<void (*)(sio::client::close_reason const&), std::__ndk1::allocator<void (*)(sio::client::close_reason const&)>, void (sio::client::close_reason const&)>::destroy()
PUBLIC d5f54 0 std::__ndk1::__function::__func<void (*)(sio::client::close_reason const&), std::__ndk1::allocator<void (*)(sio::client::close_reason const&)>, void (sio::client::close_reason const&)>::destroy_deallocate()
PUBLIC d5f58 0 std::__ndk1::__function::__func<void (*)(sio::client::close_reason const&), std::__ndk1::allocator<void (*)(sio::client::close_reason const&)>, void (sio::client::close_reason const&)>::operator()(sio::client::close_reason const&)
PUBLIC d5f64 0 std::__ndk1::__function::__func<void (*)(sio::client::close_reason const&), std::__ndk1::allocator<void (*)(sio::client::close_reason const&)>, void (sio::client::close_reason const&)>::target(std::type_info const&) const
PUBLIC d5f80 0 std::__ndk1::__function::__func<void (*)(sio::client::close_reason const&), std::__ndk1::allocator<void (*)(sio::client::close_reason const&)>, void (sio::client::close_reason const&)>::target_type() const
PUBLIC d5f8c 0 std::__ndk1::__function::__base<void (std::__ndk1::shared_ptr<sio::message> const&)>::~__base()
PUBLIC d5f90 0 std::__ndk1::__function::__func<void (*)(std::__ndk1::shared_ptr<sio::message> const&), std::__ndk1::allocator<void (*)(std::__ndk1::shared_ptr<sio::message> const&)>, void (std::__ndk1::shared_ptr<sio::message> const&)>::~__func()
PUBLIC d5f94 0 std::__ndk1::__function::__func<void (*)(std::__ndk1::shared_ptr<sio::message> const&), std::__ndk1::allocator<void (*)(std::__ndk1::shared_ptr<sio::message> const&)>, void (std::__ndk1::shared_ptr<sio::message> const&)>::__clone() const
PUBLIC d5fc8 0 std::__ndk1::__function::__func<void (*)(std::__ndk1::shared_ptr<sio::message> const&), std::__ndk1::allocator<void (*)(std::__ndk1::shared_ptr<sio::message> const&)>, void (std::__ndk1::shared_ptr<sio::message> const&)>::__clone(std::__ndk1::__function::__base<void (std::__ndk1::shared_ptr<sio::message> const&)>*) const
PUBLIC d5fdc 0 std::__ndk1::__function::__func<void (*)(std::__ndk1::shared_ptr<sio::message> const&), std::__ndk1::allocator<void (*)(std::__ndk1::shared_ptr<sio::message> const&)>, void (std::__ndk1::shared_ptr<sio::message> const&)>::destroy()
PUBLIC d5fe0 0 std::__ndk1::__function::__func<void (*)(std::__ndk1::shared_ptr<sio::message> const&), std::__ndk1::allocator<void (*)(std::__ndk1::shared_ptr<sio::message> const&)>, void (std::__ndk1::shared_ptr<sio::message> const&)>::destroy_deallocate()
PUBLIC d5fe4 0 std::__ndk1::__function::__func<void (*)(std::__ndk1::shared_ptr<sio::message> const&), std::__ndk1::allocator<void (*)(std::__ndk1::shared_ptr<sio::message> const&)>, void (std::__ndk1::shared_ptr<sio::message> const&)>::operator()(std::__ndk1::shared_ptr<sio::message> const&)
PUBLIC d5ff0 0 std::__ndk1::__function::__func<void (*)(std::__ndk1::shared_ptr<sio::message> const&), std::__ndk1::allocator<void (*)(std::__ndk1::shared_ptr<sio::message> const&)>, void (std::__ndk1::shared_ptr<sio::message> const&)>::target(std::type_info const&) const
PUBLIC d600c 0 std::__ndk1::__function::__func<void (*)(std::__ndk1::shared_ptr<sio::message> const&), std::__ndk1::allocator<void (*)(std::__ndk1::shared_ptr<sio::message> const&)>, void (std::__ndk1::shared_ptr<sio::message> const&)>::target_type() const
PUBLIC d6018 0 geode::modifier::ModifyDerive<hook159<(anonymous namespace)::hook159Parent>, cocos2d::CCScheduler>::apply()
PUBLIC d6398 0 geode::modifier::ModifyBase<geode::modifier::ModifyDerive<hook159<(anonymous namespace)::hook159Parent>, cocos2d::CCScheduler> >::apply()
PUBLIC d639c 0 geode::modifier::AsStaticFunction_update<hook159<(anonymous namespace)::hook159Parent>, void (hook159<(anonymous namespace)::hook159Parent>::*)(float)>::Impl<void (hook159<(anonymous namespace)::hook159Parent>::*)(float)>::function(hook159<(anonymous namespace)::hook159Parent>*, float)
PUBLIC d6a84 0 geode::addresser::Addresser::addressOfVirtual<void, cocos2d::CCScheduler, float>(void (cocos2d::CCScheduler::*)(float))
PUBLIC d6b5c 0 geode::modifier::ModifyDerive<hook315<(anonymous namespace)::hook315Parent>, cocos2d::CCSprite>::apply()
PUBLIC d6e9c 0 geode::modifier::ModifyBase<geode::modifier::ModifyDerive<hook315<(anonymous namespace)::hook315Parent>, cocos2d::CCSprite> >::apply()
PUBLIC d6ea0 0 geode::modifier::AsStaticFunction_create<hook315<(anonymous namespace)::hook315Parent>, cocos2d::CCSprite* (*)(char const*)>::Impl<cocos2d::CCSprite* (*)(char const*)>::function(char const*)
PUBLIC d6ff4 0 std::__ndk1::__function::__func<hook315<(anonymous namespace)::hook315Parent>::create(char const*)::{lambda()#1}, std::__ndk1::allocator<hook315<(anonymous namespace)::hook315Parent>::create(char const*)::{lambda()#1}>, void ()>::~__func()
PUBLIC d6ff8 0 std::__ndk1::__function::__func<hook315<(anonymous namespace)::hook315Parent>::create(char const*)::{lambda()#1}, std::__ndk1::allocator<hook315<(anonymous namespace)::hook315Parent>::create(char const*)::{lambda()#1}>, void ()>::__clone() const
PUBLIC d702c 0 std::__ndk1::__function::__func<hook315<(anonymous namespace)::hook315Parent>::create(char const*)::{lambda()#1}, std::__ndk1::allocator<hook315<(anonymous namespace)::hook315Parent>::create(char const*)::{lambda()#1}>, void ()>::__clone(std::__ndk1::__function::__base<void ()>*) const
PUBLIC d7040 0 std::__ndk1::__function::__func<hook315<(anonymous namespace)::hook315Parent>::create(char const*)::{lambda()#1}, std::__ndk1::allocator<hook315<(anonymous namespace)::hook315Parent>::create(char const*)::{lambda()#1}>, void ()>::destroy()
PUBLIC d7044 0 std::__ndk1::__function::__func<hook315<(anonymous namespace)::hook315Parent>::create(char const*)::{lambda()#1}, std::__ndk1::allocator<hook315<(anonymous namespace)::hook315Parent>::create(char const*)::{lambda()#1}>, void ()>::destroy_deallocate()
PUBLIC d7048 0 std::__ndk1::__function::__func<hook315<(anonymous namespace)::hook315Parent>::create(char const*)::{lambda()#1}, std::__ndk1::allocator<hook315<(anonymous namespace)::hook315Parent>::create(char const*)::{lambda()#1}>, void ()>::operator()()
PUBLIC d71f0 0 std::__ndk1::__function::__func<hook315<(anonymous namespace)::hook315Parent>::create(char const*)::{lambda()#1}, std::__ndk1::allocator<hook315<(anonymous namespace)::hook315Parent>::create(char const*)::{lambda()#1}>, void ()>::target(std::type_info const&) const
PUBLIC d720c 0 std::__ndk1::__function::__func<hook315<(anonymous namespace)::hook315Parent>::create(char const*)::{lambda()#1}, std::__ndk1::allocator<hook315<(anonymous namespace)::hook315Parent>::create(char const*)::{lambda()#1}>, void ()>::target_type() const
PUBLIC d7218 0 geode::Mod::getSettingValue<cocos2d::_ccColor3B>(std::__ndk1::basic_string_view<char, std::__ndk1::char_traits<char> >) const
PUBLIC d7338 0 geode::modifier::ModifyDerive<hook341<(anonymous namespace)::hook341Parent>, cocos2d::extension::CCScale9Sprite>::apply()
PUBLIC d76c4 0 geode::modifier::ModifyBase<geode::modifier::ModifyDerive<hook341<(anonymous namespace)::hook341Parent>, cocos2d::extension::CCScale9Sprite> >::apply()
PUBLIC d76c8 0 geode::modifier::AsStaticFunction_create<hook341<(anonymous namespace)::hook341Parent>, cocos2d::extension::CCScale9Sprite* (*)(char const*, cocos2d::CCRect)>::Impl<cocos2d::extension::CCScale9Sprite* (*)(char const*, cocos2d::CCRect)>::function(char const*, cocos2d::CCRect)
PUBLIC d783c 0 std::__ndk1::__function::__func<hook341<(anonymous namespace)::hook341Parent>::create(char const*, cocos2d::CCRect)::{lambda()#1}, std::__ndk1::allocator<hook341<(anonymous namespace)::hook341Parent>::create(char const*, cocos2d::CCRect)::{lambda()#1}>, void ()>::~__func()
PUBLIC d7840 0 std::__ndk1::__function::__func<hook341<(anonymous namespace)::hook341Parent>::create(char const*, cocos2d::CCRect)::{lambda()#1}, std::__ndk1::allocator<hook341<(anonymous namespace)::hook341Parent>::create(char const*, cocos2d::CCRect)::{lambda()#1}>, void ()>::__clone() const
PUBLIC d7874 0 std::__ndk1::__function::__func<hook341<(anonymous namespace)::hook341Parent>::create(char const*, cocos2d::CCRect)::{lambda()#1}, std::__ndk1::allocator<hook341<(anonymous namespace)::hook341Parent>::create(char const*, cocos2d::CCRect)::{lambda()#1}>, void ()>::__clone(std::__ndk1::__function::__base<void ()>*) const
PUBLIC d7888 0 std::__ndk1::__function::__func<hook341<(anonymous namespace)::hook341Parent>::create(char const*, cocos2d::CCRect)::{lambda()#1}, std::__ndk1::allocator<hook341<(anonymous namespace)::hook341Parent>::create(char const*, cocos2d::CCRect)::{lambda()#1}>, void ()>::destroy()
PUBLIC d788c 0 std::__ndk1::__function::__func<hook341<(anonymous namespace)::hook341Parent>::create(char const*, cocos2d::CCRect)::{lambda()#1}, std::__ndk1::allocator<hook341<(anonymous namespace)::hook341Parent>::create(char const*, cocos2d::CCRect)::{lambda()#1}>, void ()>::destroy_deallocate()
PUBLIC d7890 0 std::__ndk1::__function::__func<hook341<(anonymous namespace)::hook341Parent>::create(char const*, cocos2d::CCRect)::{lambda()#1}, std::__ndk1::allocator<hook341<(anonymous namespace)::hook341Parent>::create(char const*, cocos2d::CCRect)::{lambda()#1}>, void ()>::operator()()
PUBLIC d7fe4 0 std::__ndk1::__function::__func<hook341<(anonymous namespace)::hook341Parent>::create(char const*, cocos2d::CCRect)::{lambda()#1}, std::__ndk1::allocator<hook341<(anonymous namespace)::hook341Parent>::create(char const*, cocos2d::CCRect)::{lambda()#1}>, void ()>::target(std::type_info const&) const
PUBLIC d8000 0 std::__ndk1::__function::__func<hook341<(anonymous namespace)::hook341Parent>::create(char const*, cocos2d::CCRect)::{lambda()#1}, std::__ndk1::allocator<hook341<(anonymous namespace)::hook341Parent>::create(char const*, cocos2d::CCRect)::{lambda()#1}>, void ()>::target_type() const
PUBLIC d800c 0 geode::Mod::getSettingValue<long>(std::__ndk1::basic_string_view<char, std::__ndk1::char_traits<char> >) const
PUBLIC d8130 0 geode::modifier::ModifyDerive<hook427<(anonymous namespace)::hook427Parent>, MenuLayer>::apply()
PUBLIC d8438 0 geode::modifier::ModifyBase<geode::modifier::ModifyDerive<hook427<(anonymous namespace)::hook427Parent>, MenuLayer> >::apply()
PUBLIC d843c 0 geode::modifier::AsStaticFunction_init<hook427<(anonymous namespace)::hook427Parent>, bool (hook427<(anonymous namespace)::hook427Parent>::*)()>::Impl<bool (hook427<(anonymous namespace)::hook427Parent>::*)()>::function(hook427<(anonymous namespace)::hook427Parent>*)
PUBLIC d85f0 0 geode::addresser::Addresser::addressOfVirtual<bool, MenuLayer, >(bool (MenuLayer::*)())
PUBLIC d8698 0 MenuLayer::MenuLayer(geode::ZeroConstructorType)
PUBLIC d8734 0 std::__ndk1::__thread_proxy[abi:ne180000]<std::__ndk1::tuple<std::__ndk1::unique_ptr<std::__ndk1::__thread_struct, std::__ndk1::default_delete<std::__ndk1::unique_ptr> >, void (*)()> >(std::__ndk1::tuple<std::__ndk1::unique_ptr<std::__ndk1::__thread_struct, std::__ndk1::default_delete<std::__ndk1::unique_ptr> >, void (*)()>)
PUBLIC d87ec 0 std::__ndk1::unique_ptr<std::__ndk1::tuple<std::__ndk1::unique_ptr<std::__ndk1::__thread_struct, std::__ndk1::default_delete<std::__ndk1::__thread_struct> >, void (*)()>, std::__ndk1::default_delete<std::__ndk1::tuple<std::__ndk1::unique_ptr<std::__ndk1::__thread_struct, std::__ndk1::default_delete<std::__ndk1::__thread_struct> >, void (*)()> > >::~unique_ptr[abi:ne180000]()
PUBLIC d883c 0 SettingCreditsValue::parse(std::__ndk1::basic_string<char, std::__ndk1::char_traits<char>, std::__ndk1::allocator<char> > const&, std::__ndk1::basic_string<char, std::__ndk1::char_traits<char>, std::__ndk1::allocator<char> > const&, matjson::Value const&)
PUBLIC d8ac8 0 SettingPosValue::parse(std::__ndk1::basic_string<char, std::__ndk1::char_traits<char>, std::__ndk1::allocator<char> > const&, std::__ndk1::basic_string<char, std::__ndk1::char_traits<char>, std::__ndk1::allocator<char> > const&, matjson::Value const&)
PUBLIC d8e68 0 std::__ndk1::__shared_ptr_emplace<SettingCreditsValue, std::__ndk1::allocator<SettingCreditsValue> >::~__shared_ptr_emplace()
PUBLIC d8e78 0 std::__ndk1::__shared_ptr_emplace<SettingCreditsValue, std::__ndk1::allocator<SettingCreditsValue> >::~__shared_ptr_emplace()
PUBLIC d8ea8 0 std::__ndk1::__shared_ptr_emplace<SettingCreditsValue, std::__ndk1::allocator<SettingCreditsValue> >::__on_zero_shared()
PUBLIC d8eb4 0 std::__ndk1::__shared_ptr_emplace<SettingCreditsValue, std::__ndk1::allocator<SettingCreditsValue> >::__on_zero_shared_weak()
PUBLIC d8eb8 0 std::__ndk1::__shared_ptr_emplace<SettingPosValue, std::__ndk1::allocator<SettingPosValue> >::~__shared_ptr_emplace()
PUBLIC d8ec8 0 std::__ndk1::__shared_ptr_emplace<SettingPosValue, std::__ndk1::allocator<SettingPosValue> >::~__shared_ptr_emplace()
PUBLIC d8ef8 0 std::__ndk1::__shared_ptr_emplace<SettingPosValue, std::__ndk1::allocator<SettingPosValue> >::__on_zero_shared()
PUBLIC d8f04 0 std::__ndk1::__shared_ptr_emplace<SettingPosValue, std::__ndk1::allocator<SettingPosValue> >::__on_zero_shared_weak()
PUBLIC d8f08 0 std::__ndk1::__shared_ptr_emplace<geode::SettingBaseValueV3<SettingPosEnum, SettingPosEnum>::Impl, std::__ndk1::allocator<geode::SettingBaseValueV3<SettingPosEnum, SettingPosEnum>::Impl> >::~__shared_ptr_emplace()
PUBLIC d8f18 0 std::__ndk1::__shared_ptr_emplace<geode::SettingBaseValueV3<SettingPosEnum, SettingPosEnum>::Impl, std::__ndk1::allocator<geode::SettingBaseValueV3<SettingPosEnum, SettingPosEnum>::Impl> >::~__shared_ptr_emplace()
PUBLIC d8f48 0 std::__ndk1::__shared_ptr_emplace<geode::SettingBaseValueV3<SettingPosEnum, SettingPosEnum>::Impl, std::__ndk1::allocator<geode::SettingBaseValueV3<SettingPosEnum, SettingPosEnum>::Impl> >::__on_zero_shared()
PUBLIC d8f4c 0 std::__ndk1::__shared_ptr_emplace<geode::SettingBaseValueV3<SettingPosEnum, SettingPosEnum>::Impl, std::__ndk1::allocator<geode::SettingBaseValueV3<SettingPosEnum, SettingPosEnum>::Impl> >::__on_zero_shared_weak()
PUBLIC d8f50 0 geode::JsonExpectedValue::tryGet<SettingPosEnum>()
PUBLIC d9198 0 geode::EventListener<geode::ModStateFilter>::getPool() const
PUBLIC d919c 0 geode::EventListener<geode::ModStateFilter>::handle(geode::Event*)
PUBLIC d9310 0 geode::EventListener<geode::ModStateFilter>::~EventListener()
PUBLIC d936c 0 geode::EventListener<geode::ModStateFilter>::~EventListener()
PUBLIC d93d0 0 std::__ndk1::__function::__base<void (geode::ModStateEvent*)>::~__base()
PUBLIC d93d4 0 std::__ndk1::__function::__func<void (*)(geode::ModStateEvent*), std::__ndk1::allocator<void (*)(geode::ModStateEvent*)>, void (geode::ModStateEvent*)>::~__func()
PUBLIC d93d8 0 std::__ndk1::__function::__func<void (*)(geode::ModStateEvent*), std::__ndk1::allocator<void (*)(geode::ModStateEvent*)>, void (geode::ModStateEvent*)>::__clone() const
PUBLIC d940c 0 std::__ndk1::__function::__func<void (*)(geode::ModStateEvent*), std::__ndk1::allocator<void (*)(geode::ModStateEvent*)>, void (geode::ModStateEvent*)>::__clone(std::__ndk1::__function::__base<void (geode::ModStateEvent*)>*) const
PUBLIC d9420 0 std::__ndk1::__function::__func<void (*)(geode::ModStateEvent*), std::__ndk1::allocator<void (*)(geode::ModStateEvent*)>, void (geode::ModStateEvent*)>::destroy()
PUBLIC d9424 0 std::__ndk1::__function::__func<void (*)(geode::ModStateEvent*), std::__ndk1::allocator<void (*)(geode::ModStateEvent*)>, void (geode::ModStateEvent*)>::destroy_deallocate()
PUBLIC d9428 0 std::__ndk1::__function::__func<void (*)(geode::ModStateEvent*), std::__ndk1::allocator<void (*)(geode::ModStateEvent*)>, void (geode::ModStateEvent*)>::operator()(geode::ModStateEvent*&&)
PUBLIC d9438 0 std::__ndk1::__function::__func<void (*)(geode::ModStateEvent*), std::__ndk1::allocator<void (*)(geode::ModStateEvent*)>, void (geode::ModStateEvent*)>::target(std::type_info const&) const
PUBLIC d9454 0 std::__ndk1::__function::__func<void (*)(geode::ModStateEvent*), std::__ndk1::allocator<void (*)(geode::ModStateEvent*)>, void (geode::ModStateEvent*)>::target_type() const
PUBLIC d9460 0 geode::getMod()
PUBLIC m d949c 0 geodeImplicitEntry
PUBLIC d94d8 0 std::__ndk1::vector<int, std::__ndk1::allocator<int> >::~vector[abi:ne180000]()
PUBLIC d94f0 0 sio::client::~client()
PUBLIC d9528 0 sio::client::connect(std::__ndk1::basic_string<char, std::__ndk1::char_traits<char>, std::__ndk1::allocator<char> > const&)
PUBLIC d9624 0 __cxx_global_var_init.7
PUBLIC d967c 0 asio::detail::posix_tss_ptr<asio::detail::call_stack<asio::detail::thread_context, asio::detail::thread_info_base>::context>::~posix_tss_ptr()
PUBLIC d9698 0 __cxx_global_var_init.8
PUBLIC d96b4 0 __cxx_global_var_init.9
PUBLIC d96d0 0 __cxx_global_var_init.10
PUBLIC d9708 0 asio::detail::posix_global_impl<asio::system_context>::~posix_global_impl()
PUBLIC d9748 0 __cxx_global_var_init.11
PUBLIC d97a0 0 asio::detail::posix_tss_ptr<asio::detail::call_stack<asio::detail::strand_service::strand_impl, unsigned char>::context>::~posix_tss_ptr()
PUBLIC d97bc 0 __cxx_global_var_init.12
PUBLIC d97d8 0 __cxx_global_var_init.13
PUBLIC d97f4 0 __cxx_global_var_init.14
PUBLIC d9810 0 __cxx_global_var_init.15
PUBLIC d982c 0 __cxx_global_var_init.16
PUBLIC d9884 0 asio::detail::posix_tss_ptr<asio::detail::call_stack<asio::detail::strand_executor_service::strand_impl, unsigned char>::context>::~posix_tss_ptr()
PUBLIC d98a0 0 __cxx_global_var_init.17
PUBLIC d98bc 0 asio::detail::system_category::~system_category()
PUBLIC d98e0 0 asio::detail::system_category::name() const
PUBLIC d98ec 0 asio::detail::system_category::message(int) const
PUBLIC d9a18 0 asio::error::detail::netdb_category::~netdb_category()
PUBLIC d9a3c 0 asio::error::detail::netdb_category::name() const
PUBLIC d9a48 0 asio::error::detail::netdb_category::message(int) const
PUBLIC d9bd8 0 asio::error::detail::addrinfo_category::~addrinfo_category()
PUBLIC d9bfc 0 asio::error::detail::addrinfo_category::name() const
PUBLIC d9c08 0 asio::error::detail::addrinfo_category::message(int) const
PUBLIC d9cd0 0 asio::error::detail::misc_category::~misc_category()
PUBLIC d9cf4 0 asio::error::detail::misc_category::name() const
PUBLIC d9d00 0 asio::error::detail::misc_category::message(int) const
PUBLIC d9e4c 0 std::__ndk1::__function::__value_func<void ()>::swap[abi:ne180000](std::__ndk1::__function::__value_func<void ()>&)
PUBLIC d9fe4 0 std::__ndk1::__function::__value_func<void (sio::client::close_reason const&)>::swap[abi:ne180000](std::__ndk1::__function::__value_func<void (sio::client::close_reason const&)>&)
PUBLIC da17c 0 asio::detail::posix_tss_ptr_create(int&)
PUBLIC da2c8 0 asio::system_context::~system_context()
PUBLIC da404 0 asio::detail::scheduler::stop()
PUBLIC da514 0 asio::detail::thread_group::~thread_group()
PUBLIC da5a0 0 asio::detail::conditionally_enabled_mutex::scoped_lock::~scoped_lock()
PUBLIC da5c8 0 std::__ndk1::__tree<std::__ndk1::__value_type<std::__ndk1::basic_string<char, std::__ndk1::char_traits<char>, std::__ndk1::allocator<char> >, std::__ndk1::basic_string<char, std::__ndk1::char_traits<char>, std::__ndk1::allocator<char> > >, std::__ndk1::__map_value_compare<std::__ndk1::basic_string<char, std::__ndk1::char_traits<char>, std::__ndk1::allocator<char> >, std::__ndk1::__value_type<std::__ndk1::basic_string<char, std::__ndk1::char_traits<char>, std::__ndk1::allocator<char> >, std::__ndk1::basic_string<char, std::__ndk1::char_traits<char>, std::__ndk1::allocator<char> > >, std::__ndk1::less<std::__ndk1::basic_string<char, std::__ndk1::char_traits<char>, std::__ndk1::allocator<char> > >, true>, std::__ndk1::allocator<std::__ndk1::__value_type<std::__ndk1::basic_string<char, std::__ndk1::char_traits<char>, std::__ndk1::allocator<char> >, std::__ndk1::basic_string<char, std::__ndk1::char_traits<char>, std::__ndk1::allocator<char> > > > >::destroy(std::__ndk1::__tree_node<std::__ndk1::__value_type<std::__ndk1::basic_string<char, std::__ndk1::char_traits<char>, std::__ndk1::allocator<char> >, std::__ndk1::basic_string<char, std::__ndk1::char_traits<char>, std::__ndk1::allocator<char> > >, void*>*)
PUBLIC da640 0 _GLOBAL__sub_I_sio_client.cpp
PUBLIC da848 0 sio::socket::impl::on(std::__ndk1::basic_string<char, std::__ndk1::char_traits<char>, std::__ndk1::allocator<char> > const&, std::__ndk1::function<void (std::__ndk1::basic_string<char, std::__ndk1::char_traits<char>, std::__ndk1::allocator<char> > const&, std::__ndk1::shared_ptr<sio::message> const&, bool, sio::message&::list)> const&)
PUBLIC dad78 0 sio::socket::impl::impl(sio::client_impl*, std::__ndk1::basic_string<char, std::__ndk1::char_traits<char>, std::__ndk1::allocator<char> > const&, std::__ndk1::shared_ptr<sio::message> const&)
PUBLIC daf24 0 sio::socket::impl::send_connect()
PUBLIC db30c 0 std::__ndk1::unique_ptr<asio::basic_waitable_timer<std::__ndk1::chrono::steady_clock, asio::wait_traits<std::__ndk1::chrono::steady_clock> >, std::__ndk1::default_delete<asio::basic_waitable_timer<std::__ndk1::chrono::steady_clock, asio::wait_traits<std::__ndk1::chrono::steady_clock> > > >::~unique_ptr[abi:ne180000]()
PUBLIC db348 0 sio::socket::impl::~impl()
PUBLIC db430 0 sio::socket::impl::emit(std::__ndk1::basic_string<char, std::__ndk1::char_traits<char>, std::__ndk1::allocator<char> > const&, sio::message::list const&, std::__ndk1::function<void (sio::message::list const&)> const&)
PUBLIC db928 0 sio::socket::impl::send_packet(sio::packet&)
PUBLIC dc55c 0 sio::packet::~packet()
PUBLIC dc63c 0 sio::socket::impl::timeout_connection(std::__ndk1::error_code const&)
PUBLIC dc68c 0 sio::socket::impl::close()
PUBLIC dc9f0 0 sio::socket::impl::on_close()
PUBLIC dcbb4 0 sio::socket::impl::on_disconnect()
PUBLIC dcccc 0 sio::socket::impl::on_message_packet(sio::packet const&)
PUBLIC dd58c 0 sio::socket::impl::on_socketio_event(std::__ndk1::basic_string<char, std::__ndk1::char_traits<char>, std::__ndk1::allocator<char> > const&, int, std::__ndk1::basic_string<char, std::__ndk1::char_traits<char>, std::__ndk1::allocator<char> > const&, sio::message::list&&)
PUBLIC ddb78 0 sio::socket::impl::on_socketio_ack(int, sio::message::list const&)
PUBLIC ddde8 0 sio::event::~event()
PUBLIC ddf08 0 __cxx_global_var_init.18
PUBLIC ddf24 0 std::__ndk1::vector<std::__ndk1::shared_ptr<sio::message>, std::__ndk1::allocator<std::__ndk1::shared_ptr<sio::message> > >::__throw_length_error[abi:ne180000]() const
PUBLIC ddf38 0 sio::event_adapter::adapt_func(std::__ndk1::function<void (std::__ndk1::basic_string<char, std::__ndk1::char_traits<char>, std::__ndk1::allocator<char> > const&, std::__ndk1::shared_ptr<sio::message> const&, bool, sio::message&::list)> const&, sio::event&)
PUBLIC de03c 0 std::__ndk1::__function::__func<std::__ndk1::__bind<void (*)(std::__ndk1::function<void (std::__ndk1::basic_string<char, std::__ndk1::char_traits<char>, std::__ndk1::allocator<char> > const&, std::__ndk1::shared_ptr<sio::message> const&, bool, sio::message&::list)> const&, sio::event&), std::__ndk1::function<void (std::__ndk1::basic_string<char, std::__ndk1::char_traits<char>, std::__ndk1::allocator<char> > const&, std::__ndk1::shared_ptr<sio::message> const&, bool, sio::message&::list)> const&, std::__ndk1::placeholders::__ph<1> const&>, std::__ndk1::allocator<std::__ndk1::__bind<void (*)(std::__ndk1::function<void (std::__ndk1::basic_string<char, std::__ndk1::char_traits<char>, std::__ndk1::allocator<char> > const&, std::__ndk1::shared_ptr<sio::message> const&, bool, sio::message&::list)> const&, sio::event&), std::__ndk1::function<void (std::__ndk1::basic_string<char, std::__ndk1::char_traits<char>, std::__ndk1::allocator<char> > const&, std::__ndk1::shared_ptr<sio::message> const&, bool, sio::message&::list)> const&, std::__ndk1::placeholders::__ph<1> const&> >, void (sio::event&)>::~__func()
PUBLIC de088 0 std::__ndk1::__function::__func<std::__ndk1::__bind<void (*)(std::__ndk1::function<void (std::__ndk1::basic_string<char, std::__ndk1::char_traits<char>, std::__ndk1::allocator<char> > const&, std::__ndk1::shared_ptr<sio::message> const&, bool, sio::message&::list)> const&, sio::event&), std::__ndk1::function<void (std::__ndk1::basic_string<char, std::__ndk1::char_traits<char>, std::__ndk1::allocator<char> > const&, std::__ndk1::shared_ptr<sio::message> const&, bool, sio::message&::list)> const&, std::__ndk1::placeholders::__ph<1> const&>, std::__ndk1::allocator<std::__ndk1::__bind<void (*)(std::__ndk1::function<void (std::__ndk1::basic_string<char, std::__ndk1::char_traits<char>, std::__ndk1::allocator<char> > const&, std::__ndk1::shared_ptr<sio::message> const&, bool, sio::message&::list)> const&, sio::event&), std::__ndk1::function<void (std::__ndk1::basic_string<char, std::__ndk1::char_traits<char>, std::__ndk1::allocator<char> > const&, std::__ndk1::shared_ptr<sio::message> const&, bool, sio::message&::list)> const&, std::__ndk1::placeholders::__ph<1> const&> >, void (sio::event&)>::~__func()
PUBLIC de0e4 0 std::__ndk1::__function::__func<std::__ndk1::__bind<void (*)(std::__ndk1::function<void (std::__ndk1::basic_string<char, std::__ndk1::char_traits<char>, std::__ndk1::allocator<char> > const&, std::__ndk1::shared_ptr<sio::message> const&, bool, sio::message&::list)> const&, sio::event&), std::__ndk1::function<void (std::__ndk1::basic_string<char, std::__ndk1::char_traits<char>, std::__ndk1::allocator<char> > const&, std::__ndk1::shared_ptr<sio::message> const&, bool, sio::message&::list)> const&, std::__ndk1::placeholders::__ph<1> const&>, std::__ndk1::allocator<std::__ndk1::__bind<void (*)(std::__ndk1::function<void (std::__ndk1::basic_string<char, std::__ndk1::char_traits<char>, std::__ndk1::allocator<char> > const&, std::__ndk1::shared_ptr<sio::message> const&, bool, sio::message&::list)> const&, sio::event&), std::__ndk1::function<void (std::__ndk1::basic_string<char, std::__ndk1::char_traits<char>, std::__ndk1::allocator<char> > const&, std::__ndk1::shared_ptr<sio::message> const&, bool, sio::message&::list)> const&, std::__ndk1::placeholders::__ph<1> const&> >, void (sio::event&)>::__clone() const
PUBLIC de180 0 std::__ndk1::__function::__func<std::__ndk1::__bind<void (*)(std::__ndk1::function<void (std::__ndk1::basic_string<char, std::__ndk1::char_traits<char>, std::__ndk1::allocator<char> > const&, std::__ndk1::shared_ptr<sio::message> const&, bool, sio::message&::list)> const&, sio::event&), std::__ndk1::function<void (std::__ndk1::basic_string<char, std::__ndk1::char_traits<char>, std::__ndk1::allocator<char> > const&, std::__ndk1::shared_ptr<sio::message> const&, bool, sio::message&::list)> const&, std::__ndk1::placeholders::__ph<1> const&>, std::__ndk1::allocator<std::__ndk1::__bind<void (*)(std::__ndk1::function<void (std::__ndk1::basic_string<char, std::__ndk1::char_traits<char>, std::__ndk1::allocator<char> > const&, std::__ndk1::shared_ptr<sio::message> const&, bool, sio::message&::list)> const&, sio::event&), std::__ndk1::function<void (std::__ndk1::basic_string<char, std::__ndk1::char_traits<char>, std::__ndk1::allocator<char> > const&, std::__ndk1::shared_ptr<sio::message> const&, bool, sio::message&::list)> const&, std::__ndk1::placeholders::__ph<1> const&> >, void (sio::event&)>::__clone(std::__ndk1::__function::__base<void (sio::event&)>*) const
PUBLIC de208 0 std::__ndk1::__function::__func<std::__ndk1::__bind<void (*)(std::__ndk1::function<void (std::__ndk1::basic_string<char, std::__ndk1::char_traits<char>, std::__ndk1::allocator<char> > const&, std::__ndk1::shared_ptr<sio::message> const&, bool, sio::message&::list)> const&, sio::event&), std::__ndk1::function<void (std::__ndk1::basic_string<char, std::__ndk1::char_traits<char>, std::__ndk1::allocator<char> > const&, std::__ndk1::shared_ptr<sio::message> const&, bool, sio::message&::list)> const&, std::__ndk1::placeholders::__ph<1> const&>, std::__ndk1::allocator<std::__ndk1::__bind<void (*)(std::__ndk1::function<void (std::__ndk1::basic_string<char, std::__ndk1::char_traits<char>, std::__ndk1::allocator<char> > const&, std::__ndk1::shared_ptr<sio::message> const&, bool, sio::message&::list)> const&, sio::event&), std::__ndk1::function<void (std::__ndk1::basic_string<char, std::__ndk1::char_traits<char>, std::__ndk1::allocator<char> > const&, std::__ndk1::shared_ptr<sio::message> const&, bool, sio::message&::list)> const&, std::__ndk1::placeholders::__ph<1> const&> >, void (sio::event&)>::destroy()
PUBLIC de248 0 std::__ndk1::__function::__func<std::__ndk1::__bind<void (*)(std::__ndk1::function<void (std::__ndk1::basic_string<char, std::__ndk1::char_traits<char>, std::__ndk1::allocator<char> > const&, std::__ndk1::shared_ptr<sio::message> const&, bool, sio::message&::list)> const&, sio::event&), std::__ndk1::function<void (std::__ndk1::basic_string<char, std::__ndk1::char_traits<char>, std::__ndk1::allocator<char> > const&, std::__ndk1::shared_ptr<sio::message> const&, bool, sio::message&::list)> const&, std::__ndk1::placeholders::__ph<1> const&>, std::__ndk1::allocator<std::__ndk1::__bind<void (*)(std::__ndk1::function<void (std::__ndk1::basic_string<char, std::__ndk1::char_traits<char>, std::__ndk1::allocator<char> > const&, std::__ndk1::shared_ptr<sio::message> const&, bool, sio::message&::list)> const&, sio::event&), std::__ndk1::function<void (std::__ndk1::basic_string<char, std::__ndk1::char_traits<char>, std::__ndk1::allocator<char> > const&, std::__ndk1::shared_ptr<sio::message> const&, bool, sio::message&::list)> const&, std::__ndk1::placeholders::__ph<1> const&> >, void (sio::event&)>::destroy_deallocate()
PUBLIC de298 0 std::__ndk1::__function::__func<std::__ndk1::__bind<void (*)(std::__ndk1::function<void (std::__ndk1::basic_string<char, std::__ndk1::char_traits<char>, std::__ndk1::allocator<char> > const&, std::__ndk1::shared_ptr<sio::message> const&, bool, sio::message&::list)> const&, sio::event&), std::__ndk1::function<void (std::__ndk1::basic_string<char, std::__ndk1::char_traits<char>, std::__ndk1::allocator<char> > const&, std::__ndk1::shared_ptr<sio::message> const&, bool, sio::message&::list)> const&, std::__ndk1::placeholders::__ph<1> const&>, std::__ndk1::allocator<std::__ndk1::__bind<void (*)(std::__ndk1::function<void (std::__ndk1::basic_string<char, std::__ndk1::char_traits<char>, std::__ndk1::allocator<char> > const&, std::__ndk1::shared_ptr<sio::message> const&, bool, sio::message&::list)> const&, sio::event&), std::__ndk1::function<void (std::__ndk1::basic_string<char, std::__ndk1::char_traits<char>, std::__ndk1::allocator<char> > const&, std::__ndk1::shared_ptr<sio::message> const&, bool, sio::message&::list)> const&, std::__ndk1::placeholders::__ph<1> const&> >, void (sio::event&)>::operator()(sio::event&)
PUBLIC de2a4 0 std::__ndk1::__function::__func<std::__ndk1::__bind<void (*)(std::__ndk1::function<void (std::__ndk1::basic_string<char, std::__ndk1::char_traits<char>, std::__ndk1::allocator<char> > const&, std::__ndk1::shared_ptr<sio::message> const&, bool, sio::message&::list)> const&, sio::event&), std::__ndk1::function<void (std::__ndk1::basic_string<char, std::__ndk1::char_traits<char>, std::__ndk1::allocator<char> > const&, std::__ndk1::shared_ptr<sio::message> const&, bool, sio::message&::list)> const&, std::__ndk1::placeholders::__ph<1> const&>, std::__ndk1::allocator<std::__ndk1::__bind<void (*)(std::__ndk1::function<void (std::__ndk1::basic_string<char, std::__ndk1::char_traits<char>, std::__ndk1::allocator<char> > const&, std::__ndk1::shared_ptr<sio::message> const&, bool, sio::message&::list)> const&, sio::event&), std::__ndk1::function<void (std::__ndk1::basic_string<char, std::__ndk1::char_traits<char>, std::__ndk1::allocator<char> > const&, std::__ndk1::shared_ptr<sio::message> const&, bool, sio::message&::list)> const&, std::__ndk1::placeholders::__ph<1> const&> >, void (sio::event&)>::target(std::type_info const&) const
PUBLIC de2c0 0 std::__ndk1::__function::__func<std::__ndk1::__bind<void (*)(std::__ndk1::function<void (std::__ndk1::basic_string<char, std::__ndk1::char_traits<char>, std::__ndk1::allocator<char> > const&, std::__ndk1::shared_ptr<sio::message> const&, bool, sio::message&::list)> const&, sio::event&), std::__ndk1::function<void (std::__ndk1::basic_string<char, std::__ndk1::char_traits<char>, std::__ndk1::allocator<char> > const&, std::__ndk1::shared_ptr<sio::message> const&, bool, sio::message&::list)> const&, std::__ndk1::placeholders::__ph<1> const&>, std::__ndk1::allocator<std::__ndk1::__bind<void (*)(std::__ndk1::function<void (std::__ndk1::basic_string<char, std::__ndk1::char_traits<char>, std::__ndk1::allocator<char> > const&, std::__ndk1::shared_ptr<sio::message> const&, bool, sio::message&::list)> const&, sio::event&), std::__ndk1::function<void (std::__ndk1::basic_string<char, std::__ndk1::char_traits<char>, std::__ndk1::allocator<char> > const&, std::__ndk1::shared_ptr<sio::message> const&, bool, sio::message&::list)> const&, std::__ndk1::placeholders::__ph<1> const&> >, void (sio::event&)>::target_type() const
PUBLIC de2cc 0 std::__ndk1::deque<sio::packet, std::__ndk1::allocator<sio::packet> >::~deque[abi:ne180000]()
PUBLIC de468 0 std::__ndk1::allocator<sio::packet>::destroy[abi:ne180000](sio::packet*)
PUBLIC de548 0 sio::array_message::~array_message()
PUBLIC de5fc 0 sio::array_message::~array_message()
PUBLIC de698 0 sio::array_message::get_vector() const
PUBLIC de6a0 0 sio::array_message::get_vector()
PUBLIC de6a8 0 std::__ndk1::__shared_ptr_pointer<sio::array_message*, std::__ndk1::shared_ptr<sio::message>::__shared_ptr_default_delete<sio::message, sio::array_message>, std::__ndk1::allocator<sio::array_message> >::~__shared_ptr_pointer()
PUBLIC de6cc 0 std::__ndk1::__shared_ptr_pointer<sio::array_message*, std::__ndk1::shared_ptr<sio::message>::__shared_ptr_default_delete<sio::message, sio::array_message>, std::__ndk1::allocator<sio::array_message> >::__on_zero_shared()
PUBLIC de6e4 0 std::__ndk1::__shared_ptr_pointer<sio::array_message*, std::__ndk1::shared_ptr<sio::message>::__shared_ptr_default_delete<sio::message, sio::array_message>, std::__ndk1::allocator<sio::array_message> >::__get_deleter(std::type_info const&) const
PUBLIC de700 0 std::__ndk1::__shared_ptr_pointer<sio::array_message*, std::__ndk1::shared_ptr<sio::message>::__shared_ptr_default_delete<sio::message, sio::array_message>, std::__ndk1::allocator<sio::array_message> >::__on_zero_shared_weak()
PUBLIC de704 0 std::__ndk1::vector<std::__ndk1::shared_ptr<sio::message>, std::__ndk1::allocator<std::__ndk1::shared_ptr<sio::message> > >::__push_back_slow_path<std::__ndk1::shared_ptr<sio::message> >(std::__ndk1::shared_ptr<sio::message>&&)
PUBLIC de840 0 std::__ndk1::vector<std::__ndk1::shared_ptr<sio::message>, std::__ndk1::allocator<std::__ndk1::shared_ptr<sio::message> > >::__insert_with_size[abi:ne180000]<std::__ndk1::__wrap_iter<std::__ndk1::shared_ptr<sio::message> const*>, std::__ndk1::shared_ptr<sio::message> const*>(std::__ndk1::shared_ptr<sio::message> const*, std::__ndk1::__wrap_iter<std::__ndk1::shared_ptr<sio::message> const*>, std::__ndk1::shared_ptr<sio::message> const*, long)
PUBLIC deba4 0 std::__ndk1::vector<std::__ndk1::shared_ptr<sio::message>, std::__ndk1::allocator<std::__ndk1::shared_ptr<sio::message> > >::__push_back_slow_path<std::__ndk1::shared_ptr<sio::message> const&>(std::__ndk1::shared_ptr<sio::message> const&)
PUBLIC ded00 0 std::__ndk1::__exception_guard_exceptions<std::__ndk1::vector<std::__ndk1::shared_ptr<sio::message>, std::__ndk1::allocator<std::__ndk1::shared_ptr<sio::message> > >::__destroy_vector>::~__exception_guard_exceptions[abi:ne180000]()
PUBLIC dedc8 0 std::__ndk1::__function::__value_func<void (std::__ndk1::shared_ptr<sio::message> const&)>::swap[abi:ne180000](std::__ndk1::__function::__value_func<void (std::__ndk1::shared_ptr<sio::message> const&)>&)
PUBLIC def60 0 std::__ndk1::unique_ptr<std::__ndk1::__tree_node<std::__ndk1::__value_type<std::__ndk1::basic_string<char, std::__ndk1::char_traits<char>, std::__ndk1::allocator<char> >, std::__ndk1::function<void (sio::event&)> >, void*>, std::__ndk1::__tree_node_destructor<std::__ndk1::allocator<std::__ndk1::__tree_node<std::__ndk1::__value_type<std::__ndk1::basic_string<char, std::__ndk1::char_traits<char>, std::__ndk1::allocator<char> >, std::__ndk1::function<void (sio::event&)> >, void*> > > >::~unique_ptr[abi:ne180000]()
PUBLIC defdc 0 std::__ndk1::__tree<std::__ndk1::__value_type<std::__ndk1::basic_string<char, std::__ndk1::char_traits<char>, std::__ndk1::allocator<char> >, std::__ndk1::function<void (sio::event&)> >, std::__ndk1::__map_value_compare<std::__ndk1::basic_string<char, std::__ndk1::char_traits<char>, std::__ndk1::allocator<char> >, std::__ndk1::__value_type<std::__ndk1::basic_string<char, std::__ndk1::char_traits<char>, std::__ndk1::allocator<char> >, std::__ndk1::function<void (sio::event&)> >, std::__ndk1::less<std::__ndk1::basic_string<char, std::__ndk1::char_traits<char>, std::__ndk1::allocator<char> > >, true>, std::__ndk1::allocator<std::__ndk1::__value_type<std::__ndk1::basic_string<char, std::__ndk1::char_traits<char>, std::__ndk1::allocator<char> >, std::__ndk1::function<void (sio::event&)> > > >::destroy(std::__ndk1::__tree_node<std::__ndk1::__value_type<std::__ndk1::basic_string<char, std::__ndk1::char_traits<char>, std::__ndk1::allocator<char> >, std::__ndk1::function<void (sio::event&)> >, void*>*)
PUBLIC df05c 0 std::__ndk1::__tree<std::__ndk1::__value_type<unsigned int, std::__ndk1::function<void (sio::message::list const&)> >, std::__ndk1::__map_value_compare<unsigned int, std::__ndk1::__value_type<unsigned int, std::__ndk1::function<void (sio::message::list const&)> >, std::__ndk1::less<unsigned int>, true>, std::__ndk1::allocator<std::__ndk1::__value_type<unsigned int, std::__ndk1::function<void (sio::message::list const&)> > > >::destroy(std::__ndk1::__tree_node<std::__ndk1::__value_type<unsigned int, std::__ndk1::function<void (sio::message::list const&)> >, void*>*)
PUBLIC df0cc 0 std::__ndk1::__function::__value_func<void (sio::message::list const&)>::swap[abi:ne180000](std::__ndk1::__function::__value_func<void (sio::message::list const&)>&)
PUBLIC df264 0 asio::basic_io_object<asio::detail::deadline_timer_service<asio::detail::chrono_time_traits<std::__ndk1::chrono::steady_clock, asio::wait_traits<std::__ndk1::chrono::steady_clock> > >, true>::~basic_io_object()
PUBLIC df32c 0 asio::detail::epoll_reactor::cancel_timer<asio::detail::chrono_time_traits<std::__ndk1::chrono::steady_clock, asio::wait_traits<std::__ndk1::chrono::steady_clock> > >(asio::detail::timer_queue<asio::detail::chrono_time_traits<std::__ndk1::chrono::steady_clock, asio::wait_traits<std::__ndk1::chrono::steady_clock> > >&, asio::detail::timer_queue<asio::detail::chrono_time_traits<std::__ndk1::chrono::steady_clock, asio::wait_traits<std::__ndk1::chrono::steady_clock> > >&::per_timer_data, unsigned long)
PUBLIC df470 0 asio::detail::timer_queue<asio::detail::chrono_time_traits<std::__ndk1::chrono::steady_clock, asio::wait_traits<std::__ndk1::chrono::steady_clock> > >::cancel_timer(asio::detail::timer_queue<asio::detail::chrono_time_traits<std::__ndk1::chrono::steady_clock, asio::wait_traits<std::__ndk1::chrono::steady_clock> > >::per_timer_data&, asio::detail::op_queue<asio::detail::scheduler_operation>&, unsigned long)
PUBLIC df5fc 0 asio::detail::scheduler::post_deferred_completions(asio::detail::op_queue<asio::detail::scheduler_operation>&)
PUBLIC df800 0 asio::detail::op_queue<asio::detail::scheduler_operation>::~op_queue()
PUBLIC df898 0 asio::detail::timer_queue<asio::detail::chrono_time_traits<std::__ndk1::chrono::steady_clock, asio::wait_traits<std::__ndk1::chrono::steady_clock> > >::remove_timer(asio::detail::timer_queue<asio::detail::chrono_time_traits<std::__ndk1::chrono::steady_clock, asio::wait_traits<std::__ndk1::chrono::steady_clock> > >::per_timer_data&)
PUBLIC m dfab4 0 asio::detail::service_registry::create<asio::detail::deadline_timer_service<asio::detail::chrono_time_traits<std::__ndk1::chrono::steady_clock, asio::wait_traits<std::__ndk1::chrono::steady_clock> > >, asio::io_context>(void*)
PUBLIC dfafc 0 asio::detail::service_registry::do_use_service(asio::execution_context::service::key const&, asio::execution_context::service* (*)(void*), void*)
PUBLIC dfce0 0 asio::detail::deadline_timer_service<asio::detail::chrono_time_traits<std::__ndk1::chrono::steady_clock, asio::wait_traits<std::__ndk1::chrono::steady_clock> > >::deadline_timer_service(asio::io_context&)
PUBLIC dfe14 0 asio::detail::timer_queue<asio::detail::chrono_time_traits<std::__ndk1::chrono::steady_clock, asio::wait_traits<std::__ndk1::chrono::steady_clock> > >::~timer_queue()
PUBLIC dfe38 0 asio::detail::deadline_timer_service<asio::detail::chrono_time_traits<std::__ndk1::chrono::steady_clock, asio::wait_traits<std::__ndk1::chrono::steady_clock> > >::~deadline_timer_service()
PUBLIC dfef4 0 asio::detail::deadline_timer_service<asio::detail::chrono_time_traits<std::__ndk1::chrono::steady_clock, asio::wait_traits<std::__ndk1::chrono::steady_clock> > >::~deadline_timer_service()
PUBLIC dff18 0 asio::detail::deadline_timer_service<asio::detail::chrono_time_traits<std::__ndk1::chrono::steady_clock, asio::wait_traits<std::__ndk1::chrono::steady_clock> > >::shutdown()
PUBLIC dff1c 0 asio::io_context::service::notify_fork(asio::execution_context::fork_event)
PUBLIC dff28 0 asio::io_context::service::shutdown_service()
PUBLIC dff2c 0 asio::io_context::service::fork_service(asio::execution_context::fork_event)
PUBLIC dff30 0 asio::execution_context::service::notify_fork(asio::execution_context::fork_event)
PUBLIC dff34 0 asio::detail::timer_queue<asio::detail::chrono_time_traits<std::__ndk1::chrono::steady_clock, asio::wait_traits<std::__ndk1::chrono::steady_clock> > >::~timer_queue()
PUBLIC dff74 0 asio::detail::timer_queue<asio::detail::chrono_time_traits<std::__ndk1::chrono::steady_clock, asio::wait_traits<std::__ndk1::chrono::steady_clock> > >::empty() const
PUBLIC dff84 0 asio::detail::timer_queue<asio::detail::chrono_time_traits<std::__ndk1::chrono::steady_clock, asio::wait_traits<std::__ndk1::chrono::steady_clock> > >::wait_duration_msec(long) const
PUBLIC e0084 0 asio::detail::timer_queue<asio::detail::chrono_time_traits<std::__ndk1::chrono::steady_clock, asio::wait_traits<std::__ndk1::chrono::steady_clock> > >::wait_duration_usec(long) const
PUBLIC e0184 0 asio::detail::timer_queue<asio::detail::chrono_time_traits<std::__ndk1::chrono::steady_clock, asio::wait_traits<std::__ndk1::chrono::steady_clock> > >::get_ready_timers(asio::detail::op_queue<asio::detail::scheduler_operation>&)
PUBLIC e021c 0 asio::detail::timer_queue<asio::detail::chrono_time_traits<std::__ndk1::chrono::steady_clock, asio::wait_traits<std::__ndk1::chrono::steady_clock> > >::get_all_timers(asio::detail::op_queue<asio::detail::scheduler_operation>&)
PUBLIC m e027c 0 asio::detail::service_registry::create<asio::detail::epoll_reactor, asio::io_context>(void*)
PUBLIC e02c4 0 asio::detail::epoll_reactor::epoll_reactor(asio::execution_context&)
PUBLIC e0474 0 asio::detail::epoll_reactor::do_epoll_create()
PUBLIC e0600 0 asio::detail::object_pool<asio::detail::epoll_reactor::descriptor_state>::~object_pool()
PUBLIC e066c 0 asio::detail::eventfd_select_interrupter::~eventfd_select_interrupter()
PUBLIC e06b8 0 asio::detail::epoll_reactor::~epoll_reactor()
PUBLIC e079c 0 asio::detail::epoll_reactor::~epoll_reactor()
PUBLIC e07c0 0 asio::detail::epoll_reactor::shutdown()
PUBLIC e0a3c 0 asio::detail::epoll_reactor::notify_fork(asio::execution_context::fork_event)
PUBLIC m e0d1c 0 asio::detail::service_registry::create<asio::detail::scheduler, asio::execution_context>(void*)
PUBLIC e0dc0 0 asio::detail::scheduler::~scheduler()
PUBLIC e0e7c 0 asio::detail::scheduler::~scheduler()
PUBLIC e0f40 0 asio::detail::scheduler::shutdown()
PUBLIC e109c 0 asio::detail::posix_event::posix_event()
PUBLIC e1200 0 asio::detail::posix_mutex::posix_mutex()
PUBLIC e134c 0 asio::detail::eventfd_select_interrupter::open_descriptors()
PUBLIC e1554 0 asio::detail::epoll_reactor::descriptor_state::~descriptor_state()
PUBLIC e168c 0 asio::detail::scheduler::init_task()
PUBLIC m e1824 0 asio::detail::service_registry::create<asio::detail::epoll_reactor, asio::execution_context>(void*)
PUBLIC e186c 0 asio::detail::scoped_lock<asio::detail::posix_mutex>::~scoped_lock()
PUBLIC e1890 0 asio::detail::epoll_reactor::schedule_timer<asio::detail::chrono_time_traits<std::__ndk1::chrono::steady_clock, asio::wait_traits<std::__ndk1::chrono::steady_clock> > >(asio::detail::timer_queue<asio::detail::chrono_time_traits<std::__ndk1::chrono::steady_clock, asio::wait_traits<std::__ndk1::chrono::steady_clock> > >&, asio::detail::chrono_time_traits<std::__ndk1::chrono::steady_clock, asio::wait_traits<std::__ndk1::chrono::steady_clock> > const::time_type&, asio::detail::timer_queue<asio::detail::chrono_time_traits<std::__ndk1::chrono::steady_clock, asio::wait_traits<std::__ndk1::chrono::steady_clock> > >&::per_timer_data, asio::detail::wait_op*)
PUBLIC e19bc 0 asio::detail::wait_handler<std::__ndk1::__bind<void (sio::socket::impl::*)(std::__ndk1::error_code const&), sio::socket::impl*, std::__ndk1::placeholders::__ph<1> const&> >::ptr::~ptr()
PUBLIC e1a30 0 asio::detail::wait_handler<std::__ndk1::__bind<void (sio::socket::impl::*)(std::__ndk1::error_code const&), sio::socket::impl*, std::__ndk1::placeholders::__ph<1> const&> >::do_complete(void*, asio::detail::scheduler_operation*, std::__ndk1::error_code const&, unsigned long)
PUBLIC e1b44 0 asio::detail::scheduler::post_immediate_completion(asio::detail::scheduler_operation*, bool)
PUBLIC e1d18 0 asio::detail::timer_queue<asio::detail::chrono_time_traits<std::__ndk1::chrono::steady_clock, asio::wait_traits<std::__ndk1::chrono::steady_clock> > >::enqueue_timer(std::__ndk1::chrono::time_point<std::__ndk1::chrono::steady_clock, std::__ndk1::chrono::duration<long long, std::__ndk1::ratio<(long)1, (long)1000000000> > > const&, asio::detail::timer_queue<asio::detail::chrono_time_traits<std::__ndk1::chrono::steady_clock, asio::wait_traits<std::__ndk1::chrono::steady_clock> > >::per_timer_data&, asio::detail::wait_op*)
PUBLIC e1f78 0 std::__ndk1::vector<asio::detail::timer_queue<asio::detail::chrono_time_traits<std::__ndk1::chrono::steady_clock, asio::wait_traits<std::__ndk1::chrono::steady_clock> > >::heap_entry, std::__ndk1::allocator<asio::detail::timer_queue<asio::detail::chrono_time_traits<std::__ndk1::chrono::steady_clock, asio::wait_traits<std::__ndk1::chrono::steady_clock> > >::heap_entry> >::__throw_length_error[abi:ne180000]() const
PUBLIC e1f8c 0 asio::detail::wait_handler<std::__ndk1::__bind<void (sio::socket::impl::*)(), sio::socket::impl*> >::ptr::~ptr()
PUBLIC e2000 0 asio::detail::wait_handler<std::__ndk1::__bind<void (sio::socket::impl::*)(), sio::socket::impl*> >::do_complete(void*, asio::detail::scheduler_operation*, std::__ndk1::error_code const&, unsigned long)
PUBLIC e2110 0 std::__ndk1::__exception_guard_exceptions<std::__ndk1::vector<std::__ndk1::shared_ptr<std::__ndk1::basic_string<char, std::__ndk1::char_traits<char>, std::__ndk1::allocator<char> > const>, std::__ndk1::allocator<std::__ndk1::shared_ptr<std::__ndk1::basic_string<char, std::__ndk1::char_traits<char>, std::__ndk1::allocator<char> > const> > >::__destroy_vector>::~__exception_guard_exceptions[abi:ne180000]()
PUBLIC e21d8 0 std::__ndk1::vector<std::__ndk1::shared_ptr<std::__ndk1::basic_string<char, std::__ndk1::char_traits<char>, std::__ndk1::allocator<char> > const>, std::__ndk1::allocator<std::__ndk1::shared_ptr<std::__ndk1::basic_string<char, std::__ndk1::char_traits<char>, std::__ndk1::allocator<char> > const> > >::__throw_length_error[abi:ne180000]() const
PUBLIC e21ec 0 _GLOBAL__sub_I_sio_socket.cpp
PUBLIC e23f4 0 asio::error::get_system_category()
PUBLIC e2450 0 sio::client_impl::client_impl(sio::client_options const&)
PUBLIC e3444 0 websocketpp::transport::asio::endpoint<websocketpp::config::asio_client::transport_config>::init_asio(asio::io_context*)
PUBLIC e3658 0 sio::client_impl::on_open(std::__ndk1::weak_ptr<void>)
PUBLIC e3874 0 sio::client_impl::on_close(std::__ndk1::weak_ptr<void>)
PUBLIC e3e60 0 sio::client_impl::on_fail(std::__ndk1::weak_ptr<void>)
PUBLIC e41b8 0 sio::client_impl::on_message(std::__ndk1::weak_ptr<void>, std::__ndk1::shared_ptr<websocketpp::message_buffer::message<websocketpp::message_buffer::alloc::con_msg_manager> >)
PUBLIC e41c8 0 sio::client_impl::on_decode(sio::packet const&)
PUBLIC e4948 0 sio::client_impl::on_encode(bool, std::__ndk1::shared_ptr<std::__ndk1::basic_string<char, std::__ndk1::char_traits<char>, std::__ndk1::allocator<char> > const> const&)
PUBLIC e4b40 0 sio::packet_manager::~packet_manager()
PUBLIC e4be8 0 std::__ndk1::unique_ptr<std::__ndk1::thread, std::__ndk1::default_delete<std::__ndk1::thread> >::~unique_ptr[abi:ne180000]()
PUBLIC e4c24 0 websocketpp::endpoint<websocketpp::connection<websocketpp::config::asio_client>, websocketpp::config::asio_client>::~endpoint()
PUBLIC e4ebc 0 sio::client_impl::~client_impl()
PUBLIC e5368 0 sio::client_impl::sync_close()
PUBLIC e5540 0 sio::client_impl::connect(std::__ndk1::basic_string<char, std::__ndk1::char_traits<char>, std::__ndk1::allocator<char> > const&, std::__ndk1::map<std::__ndk1::basic_string<char, std::__ndk1::char_traits<char>, std::__ndk1::allocator<char> >, std::__ndk1::basic_string<char, std::__ndk1::char_traits<char>, std::__ndk1::allocator<char> >, std::__ndk1::less<std::__ndk1::basic_string<char, std::__ndk1::char_traits<char>, std::__ndk1::allocator<char> > >, std::__ndk1::allocator<std::__ndk1::pair<std::__ndk1::basic_string<char, std::__ndk1::char_traits<char>, std::__ndk1::allocator<char> > const, std::__ndk1::basic_string<char, std::__ndk1::char_traits<char>, std::__ndk1::allocator<char> > > > > const&, std::__ndk1::map<std::__ndk1::basic_string<char, std::__ndk1::char_traits<char>, std::__ndk1::allocator<char> >, std::__ndk1::basic_string<char, std::__ndk1::char_traits<char>, std::__ndk1::allocator<char> >, std::__ndk1::less<std::__ndk1::basic_string<char, std::__ndk1::char_traits<char>, std::__ndk1::allocator<char> > >, std::__ndk1::allocator<std::__ndk1::pair<std::__ndk1::basic_string<char, std::__ndk1::char_traits<char>, std::__ndk1::allocator<char> > const, std::__ndk1::basic_string<char, std::__ndk1::char_traits<char>, std::__ndk1::allocator<char> > > > > const&, std::__ndk1::shared_ptr<sio::message> const&)
PUBLIC e6224 0 sio::client_impl::connect_impl(std::__ndk1::basic_string<char, std::__ndk1::char_traits<char>, std::__ndk1::allocator<char> > const&, std::__ndk1::basic_string<char, std::__ndk1::char_traits<char>, std::__ndk1::allocator<char> > const&)
PUBLIC ead00 0 std::__ndk1::__bind<void (sio::client_impl::*)(std::__ndk1::basic_string<char, std::__ndk1::char_traits<char>, std::__ndk1::allocator<char> > const&, std::__ndk1::basic_string<char, std::__ndk1::char_traits<char>, std::__ndk1::allocator<char> > const&), sio::client_impl*, std::__ndk1::basic_string<char, std::__ndk1::char_traits<char>, std::__ndk1::allocator<char> > const&, std::__ndk1::basic_string<char, std::__ndk1::char_traits<char>, std::__ndk1::allocator<char> >&>::~__bind()
PUBLIC ead44 0 sio::client_impl::run_loop()
PUBLIC eae90 0 sio::client_impl::socket(std::__ndk1::basic_string<char, std::__ndk1::char_traits<char>, std::__ndk1::allocator<char> > const&)
PUBLIC eb2c0 0 std::__ndk1::pair<std::__ndk1::basic_string<char, std::__ndk1::char_traits<char>, std::__ndk1::allocator<char> > const, std::__ndk1::shared_ptr<sio::socket> >::~pair()
PUBLIC eb32c 0 sio::client_impl::close()
PUBLIC eb4dc 0 asio::io_context::dispatch<std::__ndk1::__bind<void (sio::client_impl::*)(unsigned short const&, std::__ndk1::basic_string<char, std::__ndk1::char_traits<char>, std::__ndk1::allocator<char> > const&), sio::client_impl*, unsigned short const&, char const (&) [12]> >(std::__ndk1::__bind<void (sio::client_impl::*)(unsigned short const&, std::__ndk1::basic_string<char, std::__ndk1::char_traits<char>, std::__ndk1::allocator<char> > const&), sio::client_impl*, unsigned short const&, char const (&) [12]>&&)
PUBLIC eb710 0 sio::client_impl::close_impl(unsigned short const&, std::__ndk1::basic_string<char, std::__ndk1::char_traits<char>, std::__ndk1::allocator<char> > const&)
PUBLIC eb94c 0 websocketpp::log::basic<websocketpp::concurrency::basic, websocketpp::log::alevel>::write(unsigned int, char const*)
PUBLIC ebc04 0 websocketpp::uri::uri(std::__ndk1::basic_string<char, std::__ndk1::char_traits<char>, std::__ndk1::allocator<char> > const&)
PUBLIC ec0c0 0 std::__ndk1::operator<<[abi:ne180000]<char, std::__ndk1::char_traits<char>, std::__ndk1::allocator<char> >(std::__ndk1::basic_ostream<char, std::__ndk1::char_traits<char> >, std::__ndk1::basic_string<std::__ndk1::basic_ostream, char, std::__ndk1::allocator<char> > const&)
PUBLIC ec0dc 0 websocketpp::log::basic<websocketpp::concurrency::basic, websocketpp::log::alevel>::write(unsigned int, std::__ndk1::basic_string<char, std::__ndk1::char_traits<char>, std::__ndk1::allocator<char> > const&)
PUBLIC ec3b0 0 std::__ndk1::shared_ptr<websocketpp::connection<websocketpp::config::asio_client> >::~shared_ptr[abi:ne180000]()
PUBLIC m ec400 0 std::__ndk1::basic_ostringstream<char, std::__ndk1::char_traits<char>, std::__ndk1::allocator<char> >::~basic_ostringstream()
PUBLIC ec47c 0 websocketpp::uri::~uri()
PUBLIC ec4e0 0 sio::client_impl::send_impl(std::__ndk1::shared_ptr<std::__ndk1::basic_string<char, std::__ndk1::char_traits<char>, std::__ndk1::allocator<char> > const> const&, websocketpp::frame::opcode::value)
PUBLIC ec69c 0 websocketpp::endpoint<websocketpp::connection<websocketpp::config::asio_client>, websocketpp::config::asio_client>::send(std::__ndk1::weak_ptr<void>, std::__ndk1::basic_string<char, std::__ndk1::char_traits<char>, std::__ndk1::allocator<char> > const&, websocketpp::frame::opcode::value, std::__ndk1::error_code&)
PUBLIC ece1c 0 sio::client_impl::timeout_ping(std::__ndk1::error_code const&)
PUBLIC ed084 0 sio::client_impl::timeout_reconnect(std::__ndk1::error_code const&)
PUBLIC ed394 0 std::__ndk1::__bind<void (sio::client_impl::*)(std::__ndk1::basic_string<char, std::__ndk1::char_traits<char>, std::__ndk1::allocator<char> > const&, std::__ndk1::basic_string<char, std::__ndk1::char_traits<char>, std::__ndk1::allocator<char> > const&), sio::client_impl*, std::__ndk1::basic_string<char, std::__ndk1::char_traits<char>, std::__ndk1::allocator<char> >&, std::__ndk1::basic_string<char, std::__ndk1::char_traits<char>, std::__ndk1::allocator<char> >&>::~__bind()
PUBLIC ed3d8 0 websocketpp::endpoint<websocketpp::connection<websocketpp::config::asio_client>, websocketpp::config::asio_client>::get_con_from_hdl(std::__ndk1::weak_ptr<void>, std::__ndk1::error_code&)
PUBLIC ed4f8 0 std::__ndk1::shared_ptr<sio::string_message>::~shared_ptr[abi:ne180000]()
PUBLIC ed548 0 std::__ndk1::shared_ptr<sio::int_message>::~shared_ptr[abi:ne180000]()
PUBLIC ed598 0 sio::client_impl::update_ping_timeout_timer()
PUBLIC ed718 0 std::__ndk1::__bind<void (sio::client_impl::*)(std::__ndk1::shared_ptr<std::__ndk1::basic_string<char, std::__ndk1::char_traits<char>, std::__ndk1::allocator<char> > const> const&, websocketpp::frame::opcode::value), sio::client_impl*, std::__ndk1::shared_ptr<std::__ndk1::basic_string<char, std::__ndk1::char_traits<char>, std::__ndk1::allocator<char> > const> const&, websocketpp::frame::opcode::value>::~__bind()
PUBLIC ed768 0 __cxx_global_var_init.44
PUBLIC ed784 0 asio::detail::noncopyable::~noncopyable()
PUBLIC ed788 0 std::__ndk1::default_delete<sio::packet>::operator()[abi:ne180000](sio::packet*) const
PUBLIC ed86c 0 std::__ndk1::shared_ptr<websocketpp::log::basic<websocketpp::concurrency::basic, websocketpp::log::elevel> >::~shared_ptr[abi:ne180000]()
PUBLIC ed8bc 0 std::__ndk1::shared_ptr<websocketpp::log::basic<websocketpp::concurrency::basic, websocketpp::log::alevel> >::~shared_ptr[abi:ne180000]()
PUBLIC ed90c 0 websocketpp::transport::asio::endpoint<websocketpp::config::asio_client::transport_config>::~endpoint()
PUBLIC edc30 0 asio::execution_context::~execution_context()
PUBLIC edccc 0 _ZNSt6__ndk112basic_stringIcNS_11char_traitsIcEENS_9allocatorIcEEE6appendB8ne180000INS_11__wrap_iterIPKcEETnNS_9enable_ifIXsr31__has_forward_iterator_categoryIT_EE5valueEiE4typeELi0EEERS5_SC_SC_
PUBLIC edfd4 0 websocketpp::uri::get_port_from_string(std::__ndk1::basic_string<char, std::__ndk1::char_traits<char>, std::__ndk1::allocator<char> > const&, std::__ndk1::error_code&) const
PUBLIC ee0f4 0 websocketpp::error::make_error_code(websocketpp::error::value)
PUBLIC ee198 0 websocketpp::error::category::~category()
PUBLIC ee1bc 0 websocketpp::error::category::name() const
PUBLIC ee1c8 0 websocketpp::error::category::message(int) const
PUBLIC ee7a0 0 std::__ndk1::__tree<std::__ndk1::__value_type<std::__ndk1::basic_string<char, std::__ndk1::char_traits<char>, std::__ndk1::allocator<char> >, std::__ndk1::shared_ptr<sio::message> >, std::__ndk1::__map_value_compare<std::__ndk1::basic_string<char, std::__ndk1::char_traits<char>, std::__ndk1::allocator<char> >, std::__ndk1::__value_type<std::__ndk1::basic_string<char, std::__ndk1::char_traits<char>, std::__ndk1::allocator<char> >, std::__ndk1::shared_ptr<sio::message> >, std::__ndk1::less<std::__ndk1::basic_string<char, std::__ndk1::char_traits<char>, std::__ndk1::allocator<char> > >, true>, std::__ndk1::allocator<std::__ndk1::__value_type<std::__ndk1::basic_string<char, std::__ndk1::char_traits<char>, std::__ndk1::allocator<char> >, std::__ndk1::shared_ptr<sio::message> > > >::find<std::__ndk1::basic_string<char, std::__ndk1::char_traits<char>, std::__ndk1::allocator<char> > >(std::__ndk1::basic_string<char, std::__ndk1::char_traits<char>, std::__ndk1::allocator<char> > const&) const
PUBLIC ee8c0 0 std::__ndk1::unique_ptr<websocketpp::log::basic<websocketpp::concurrency::basic, websocketpp::log::alevel>, std::__ndk1::default_delete<websocketpp::log::basic<websocketpp::concurrency::basic, websocketpp::log::alevel> > >::~unique_ptr[abi:ne180000]()
PUBLIC ee8fc 0 std::__ndk1::__shared_ptr_pointer<websocketpp::log::basic<websocketpp::concurrency::basic, websocketpp::log::alevel>*, std::__ndk1::shared_ptr<websocketpp::log::basic<websocketpp::concurrency::basic, websocketpp::log::alevel> >::__shared_ptr_default_delete<websocketpp::log::basic<websocketpp::concurrency::basic, websocketpp::log::alevel>, websocketpp::log::basic<websocketpp::concurrency::basic, websocketpp::log::alevel> >, std::__ndk1::allocator<websocketpp::log::basic<websocketpp::concurrency::basic, websocketpp::log::alevel> > >::~__shared_ptr_pointer()
PUBLIC ee920 0 std::__ndk1::__shared_ptr_pointer<websocketpp::log::basic<websocketpp::concurrency::basic, websocketpp::log::alevel>*, std::__ndk1::shared_ptr<websocketpp::log::basic<websocketpp::concurrency::basic, websocketpp::log::alevel> >::__shared_ptr_default_delete<websocketpp::log::basic<websocketpp::concurrency::basic, websocketpp::log::alevel>, websocketpp::log::basic<websocketpp::concurrency::basic, websocketpp::log::alevel> >, std::__ndk1::allocator<websocketpp::log::basic<websocketpp::concurrency::basic, websocketpp::log::alevel> > >::__on_zero_shared()
PUBLIC ee958 0 std::__ndk1::__shared_ptr_pointer<websocketpp::log::basic<websocketpp::concurrency::basic, websocketpp::log::alevel>*, std::__ndk1::shared_ptr<websocketpp::log::basic<websocketpp::concurrency::basic, websocketpp::log::alevel> >::__shared_ptr_default_delete<websocketpp::log::basic<websocketpp::concurrency::basic, websocketpp::log::alevel>, websocketpp::log::basic<websocketpp::concurrency::basic, websocketpp::log::alevel> >, std::__ndk1::allocator<websocketpp::log::basic<websocketpp::concurrency::basic, websocketpp::log::alevel> > >::__get_deleter(std::type_info const&) const
PUBLIC ee974 0 std::__ndk1::__shared_ptr_pointer<websocketpp::log::basic<websocketpp::concurrency::basic, websocketpp::log::alevel>*, std::__ndk1::shared_ptr<websocketpp::log::basic<websocketpp::concurrency::basic, websocketpp::log::alevel> >::__shared_ptr_default_delete<websocketpp::log::basic<websocketpp::concurrency::basic, websocketpp::log::alevel>, websocketpp::log::basic<websocketpp::concurrency::basic, websocketpp::log::alevel> >, std::__ndk1::allocator<websocketpp::log::basic<websocketpp::concurrency::basic, websocketpp::log::alevel> > >::__on_zero_shared_weak()
PUBLIC ee978 0 std::__ndk1::unique_ptr<websocketpp::log::basic<websocketpp::concurrency::basic, websocketpp::log::elevel>, std::__ndk1::default_delete<websocketpp::log::basic<websocketpp::concurrency::basic, websocketpp::log::elevel> > >::~unique_ptr[abi:ne180000]()
PUBLIC ee9b4 0 std::__ndk1::__shared_ptr_pointer<websocketpp::log::basic<websocketpp::concurrency::basic, websocketpp::log::elevel>*, std::__ndk1::shared_ptr<websocketpp::log::basic<websocketpp::concurrency::basic, websocketpp::log::elevel> >::__shared_ptr_default_delete<websocketpp::log::basic<websocketpp::concurrency::basic, websocketpp::log::elevel>, websocketpp::log::basic<websocketpp::concurrency::basic, websocketpp::log::elevel> >, std::__ndk1::allocator<websocketpp::log::basic<websocketpp::concurrency::basic, websocketpp::log::elevel> > >::~__shared_ptr_pointer()
PUBLIC ee9d8 0 std::__ndk1::__shared_ptr_pointer<websocketpp::log::basic<websocketpp::concurrency::basic, websocketpp::log::elevel>*, std::__ndk1::shared_ptr<websocketpp::log::basic<websocketpp::concurrency::basic, websocketpp::log::elevel> >::__shared_ptr_default_delete<websocketpp::log::basic<websocketpp::concurrency::basic, websocketpp::log::elevel>, websocketpp::log::basic<websocketpp::concurrency::basic, websocketpp::log::elevel> >, std::__ndk1::allocator<websocketpp::log::basic<websocketpp::concurrency::basic, websocketpp::log::elevel> > >::__on_zero_shared()
PUBLIC eea10 0 std::__ndk1::__shared_ptr_pointer<websocketpp::log::basic<websocketpp::concurrency::basic, websocketpp::log::elevel>*, std::__ndk1::shared_ptr<websocketpp::log::basic<websocketpp::concurrency::basic, websocketpp::log::elevel> >::__shared_ptr_default_delete<websocketpp::log::basic<websocketpp::concurrency::basic, websocketpp::log::elevel>, websocketpp::log::basic<websocketpp::concurrency::basic, websocketpp::log::elevel> >, std::__ndk1::allocator<websocketpp::log::basic<websocketpp::concurrency::basic, websocketpp::log::elevel> > >::__get_deleter(std::type_info const&) const
PUBLIC eea2c 0 std::__ndk1::__shared_ptr_pointer<websocketpp::log::basic<websocketpp::concurrency::basic, websocketpp::log::elevel>*, std::__ndk1::shared_ptr<websocketpp::log::basic<websocketpp::concurrency::basic, websocketpp::log::elevel> >::__shared_ptr_default_delete<websocketpp::log::basic<websocketpp::concurrency::basic, websocketpp::log::elevel>, websocketpp::log::basic<websocketpp::concurrency::basic, websocketpp::log::elevel> >, std::__ndk1::allocator<websocketpp::log::basic<websocketpp::concurrency::basic, websocketpp::log::elevel> > >::__on_zero_shared_weak()
PUBLIC eea30 0 std::__ndk1::__tree<std::__ndk1::__value_type<std::__ndk1::basic_string<char, std::__ndk1::char_traits<char>, std::__ndk1::allocator<char> > const, std::__ndk1::shared_ptr<sio::socket> >, std::__ndk1::__map_value_compare<std::__ndk1::basic_string<char, std::__ndk1::char_traits<char>, std::__ndk1::allocator<char> > const, std::__ndk1::__value_type<std::__ndk1::basic_string<char, std::__ndk1::char_traits<char>, std::__ndk1::allocator<char> > const, std::__ndk1::shared_ptr<sio::socket> >, std::__ndk1::less<std::__ndk1::basic_string<char, std::__ndk1::char_traits<char>, std::__ndk1::allocator<char> > const>, true>, std::__ndk1::allocator<std::__ndk1::__value_type<std::__ndk1::basic_string<char, std::__ndk1::char_traits<char>, std::__ndk1::allocator<char> > const, std::__ndk1::shared_ptr<sio::socket> > > >::destroy(std::__ndk1::__tree_node<std::__ndk1::__value_type<std::__ndk1::basic_string<char, std::__ndk1::char_traits<char>, std::__ndk1::allocator<char> > const, std::__ndk1::shared_ptr<sio::socket> >, void*>*)
PUBLIC eeab4 0 websocketpp::exception::exception(std::__ndk1::error_code)
PUBLIC eeb4c 0 websocketpp::exception::~exception()
PUBLIC eeb8c 0 websocketpp::log::basic<websocketpp::concurrency::basic, websocketpp::log::elevel>::write(unsigned int, char const*)
PUBLIC eeda0 0 std::__ndk1::unique_ptr<asio::basic_socket_acceptor<asio::ip::tcp>, std::__ndk1::default_delete<asio::basic_socket_acceptor<asio::ip::tcp> > >::~unique_ptr[abi:ne180000]()
PUBLIC eede8 0 std::__ndk1::__shared_ptr_pointer<asio::basic_socket_acceptor<asio::ip::tcp>*, std::__ndk1::shared_ptr<asio::basic_socket_acceptor<asio::ip::tcp> >::__shared_ptr_default_delete<asio::basic_socket_acceptor<asio::ip::tcp>, asio::basic_socket_acceptor<asio::ip::tcp> >, std::__ndk1::allocator<asio::basic_socket_acceptor<asio::ip::tcp> > >::~__shared_ptr_pointer()
PUBLIC eee0c 0 std::__ndk1::__shared_ptr_pointer<asio::basic_socket_acceptor<asio::ip::tcp>*, std::__ndk1::shared_ptr<asio::basic_socket_acceptor<asio::ip::tcp> >::__shared_ptr_default_delete<asio::basic_socket_acceptor<asio::ip::tcp>, asio::basic_socket_acceptor<asio::ip::tcp> >, std::__ndk1::allocator<asio::basic_socket_acceptor<asio::ip::tcp> > >::__on_zero_shared()
PUBLIC eee50 0 std::__ndk1::__shared_ptr_pointer<asio::basic_socket_acceptor<asio::ip::tcp>*, std::__ndk1::shared_ptr<asio::basic_socket_acceptor<asio::ip::tcp> >::__shared_ptr_default_delete<asio::basic_socket_acceptor<asio::ip::tcp>, asio::basic_socket_acceptor<asio::ip::tcp> >, std::__ndk1::allocator<asio::basic_socket_acceptor<asio::ip::tcp> > >::__get_deleter(std::type_info const&) const
PUBLIC eee6c 0 std::__ndk1::__shared_ptr_pointer<asio::basic_socket_acceptor<asio::ip::tcp>*, std::__ndk1::shared_ptr<asio::basic_socket_acceptor<asio::ip::tcp> >::__shared_ptr_default_delete<asio::basic_socket_acceptor<asio::ip::tcp>, asio::basic_socket_acceptor<asio::ip::tcp> >, std::__ndk1::allocator<asio::basic_socket_acceptor<asio::ip::tcp> > >::__on_zero_shared_weak()
PUBLIC eee70 0 asio::detail::reactive_socket_service_base::destroy(asio::detail::reactive_socket_service_base::base_implementation_type&)
PUBLIC eef7c 0 asio::detail::epoll_reactor::deregister_descriptor(int, asio::detail::epoll_reactor::descriptor_state*&, bool)
PUBLIC ef3f0 0 asio::detail::socket_ops::close(int, unsigned char&, bool, std::__ndk1::error_code&)
PUBLIC ef6ec 0 _ZNSt6__ndk110error_codeaSB8ne180000IN4asio5error12basic_errorsETnNS_9enable_ifIXsr18is_error_code_enumIT_EE5valueEiE4typeELi0EEERS0_S6_
PUBLIC m ef774 0 asio::detail::service_registry::create<asio::detail::reactive_socket_service<asio::ip::tcp>, asio::io_context>(void*)
PUBLIC ef848 0 asio::detail::reactive_socket_service<asio::ip::tcp>::~reactive_socket_service()
PUBLIC ef84c 0 asio::detail::reactive_socket_service<asio::ip::tcp>::shutdown()
PUBLIC ef850 0 asio::detail::service_base<asio::detail::reactive_socket_service<asio::ip::tcp> >::~service_base()
PUBLIC ef854 0 asio::io_context::service::shutdown()
PUBLIC ef860 0 websocketpp::exception::~exception()
PUBLIC ef8a4 0 websocketpp::exception::what() const
PUBLIC ef8bc 0 asio::detail::service_registry::do_add_service(asio::execution_context::service::key const&, asio::execution_context::service*)
PUBLIC efabc 0 asio::invalid_service_owner::~invalid_service_owner()
PUBLIC efae0 0 asio::service_already_exists::~service_already_exists()
PUBLIC efb04 0 std::__ndk1::default_delete<asio::io_context>::operator()[abi:ne180000](asio::io_context*) const
PUBLIC efbac 0 std::__ndk1::__function::__value_func<void (std::__ndk1::weak_ptr<void>)>::swap[abi:ne180000](std::__ndk1::__function::__value_func<void (std::__ndk1::weak_ptr<void>)>&)
PUBLIC efd44 0 std::__ndk1::__function::__base<void (std::__ndk1::weak_ptr<void>)>::~__base()
PUBLIC efd48 0 std::__ndk1::__function::__func<std::__ndk1::__bind<void (sio::client_impl::*)(std::__ndk1::weak_ptr<void>), sio::client_impl*, std::__ndk1::placeholders::__ph<1> const&>, std::__ndk1::allocator<std::__ndk1::__bind<void (sio::client_impl::*)(std::__ndk1::weak_ptr<void>), sio::client_impl*, std::__ndk1::placeholders::__ph<1> const&> >, void (std::__ndk1::weak_ptr<void>)>::~__func()
PUBLIC efd4c 0 std::__ndk1::__function::__func<std::__ndk1::__bind<void (sio::client_impl::*)(std::__ndk1::weak_ptr<void>), sio::client_impl*, std::__ndk1::placeholders::__ph<1> const&>, std::__ndk1::allocator<std::__ndk1::__bind<void (sio::client_impl::*)(std::__ndk1::weak_ptr<void>), sio::client_impl*, std::__ndk1::placeholders::__ph<1> const&> >, void (std::__ndk1::weak_ptr<void>)>::__clone() const
PUBLIC efd8c 0 std::__ndk1::__function::__func<std::__ndk1::__bind<void (sio::client_impl::*)(std::__ndk1::weak_ptr<void>), sio::client_impl*, std::__ndk1::placeholders::__ph<1> const&>, std::__ndk1::allocator<std::__ndk1::__bind<void (sio::client_impl::*)(std::__ndk1::weak_ptr<void>), sio::client_impl*, std::__ndk1::placeholders::__ph<1> const&> >, void (std::__ndk1::weak_ptr<void>)>::__clone(std::__ndk1::__function::__base<void (std::__ndk1::weak_ptr<void>)>*) const
PUBLIC efdac 0 std::__ndk1::__function::__func<std::__ndk1::__bind<void (sio::client_impl::*)(std::__ndk1::weak_ptr<void>), sio::client_impl*, std::__ndk1::placeholders::__ph<1> const&>, std::__ndk1::allocator<std::__ndk1::__bind<void (sio::client_impl::*)(std::__ndk1::weak_ptr<void>), sio::client_impl*, std::__ndk1::placeholders::__ph<1> const&> >, void (std::__ndk1::weak_ptr<void>)>::destroy()
PUBLIC efdb0 0 std::__ndk1::__function::__func<std::__ndk1::__bind<void (sio::client_impl::*)(std::__ndk1::weak_ptr<void>), sio::client_impl*, std::__ndk1::placeholders::__ph<1> const&>, std::__ndk1::allocator<std::__ndk1::__bind<void (sio::client_impl::*)(std::__ndk1::weak_ptr<void>), sio::client_impl*, std::__ndk1::placeholders::__ph<1> const&> >, void (std::__ndk1::weak_ptr<void>)>::destroy_deallocate()
PUBLIC efdb4 0 std::__ndk1::__function::__func<std::__ndk1::__bind<void (sio::client_impl::*)(std::__ndk1::weak_ptr<void>), sio::client_impl*, std::__ndk1::placeholders::__ph<1> const&>, std::__ndk1::allocator<std::__ndk1::__bind<void (sio::client_impl::*)(std::__ndk1::weak_ptr<void>), sio::client_impl*, std::__ndk1::placeholders::__ph<1> const&> >, void (std::__ndk1::weak_ptr<void>)>::operator()(std::__ndk1::weak_ptr<void>&&)
PUBLIC efe58 0 std::__ndk1::__function::__func<std::__ndk1::__bind<void (sio::client_impl::*)(std::__ndk1::weak_ptr<void>), sio::client_impl*, std::__ndk1::placeholders::__ph<1> const&>, std::__ndk1::allocator<std::__ndk1::__bind<void (sio::client_impl::*)(std::__ndk1::weak_ptr<void>), sio::client_impl*, std::__ndk1::placeholders::__ph<1> const&> >, void (std::__ndk1::weak_ptr<void>)>::target(std::type_info const&) const
PUBLIC efe74 0 std::__ndk1::__function::__func<std::__ndk1::__bind<void (sio::client_impl::*)(std::__ndk1::weak_ptr<void>), sio::client_impl*, std::__ndk1::placeholders::__ph<1> const&>, std::__ndk1::allocator<std::__ndk1::__bind<void (sio::client_impl::*)(std::__ndk1::weak_ptr<void>), sio::client_impl*, std::__ndk1::placeholders::__ph<1> const&> >, void (std::__ndk1::weak_ptr<void>)>::target_type() const
PUBLIC efe80 0 std::__ndk1::__function::__value_func<void (std::__ndk1::weak_ptr<void>, std::__ndk1::shared_ptr<websocketpp::message_buffer::message<websocketpp::message_buffer::alloc::con_msg_manager> >)>::swap[abi:ne180000](std::__ndk1::__function::__value_func<void (std::__ndk1::weak_ptr<void>, std::__ndk1::shared_ptr<websocketpp::message_buffer::message<websocketpp::message_buffer::alloc::con_msg_manager> >)>&)
PUBLIC f0018 0 std::__ndk1::__function::__base<void (std::__ndk1::weak_ptr<void>, std::__ndk1::shared_ptr<websocketpp::message_buffer::message<websocketpp::message_buffer::alloc::con_msg_manager> >)>::~__base()
PUBLIC f001c 0 std::__ndk1::__function::__func<std::__ndk1::__bind<void (sio::client_impl::*)(std::__ndk1::weak_ptr<void>, std::__ndk1::shared_ptr<websocketpp::message_buffer::message<websocketpp::message_buffer::alloc::con_msg_manager> >), sio::client_impl*, std::__ndk1::placeholders::__ph<1> const&, std::__ndk1::placeholders::__ph<2> const&>, std::__ndk1::allocator<std::__ndk1::__bind<void (sio::client_impl::*)(std::__ndk1::weak_ptr<void>, std::__ndk1::shared_ptr<websocketpp::message_buffer::message<websocketpp::message_buffer::alloc::con_msg_manager> >), sio::client_impl*, std::__ndk1::placeholders::__ph<1> const&, std::__ndk1::placeholders::__ph<2> const&> >, void (std::__ndk1::weak_ptr<void>, std::__ndk1::shared_ptr<websocketpp::message_buffer::message<websocketpp::message_buffer::alloc::con_msg_manager> >)>::~__func()
PUBLIC f0020 0 std::__ndk1::__function::__func<std::__ndk1::__bind<void (sio::client_impl::*)(std::__ndk1::weak_ptr<void>, std::__ndk1::shared_ptr<websocketpp::message_buffer::message<websocketpp::message_buffer::alloc::con_msg_manager> >), sio::client_impl*, std::__ndk1::placeholders::__ph<1> const&, std::__ndk1::placeholders::__ph<2> const&>, std::__ndk1::allocator<std::__ndk1::__bind<void (sio::client_impl::*)(std::__ndk1::weak_ptr<void>, std::__ndk1::shared_ptr<websocketpp::message_buffer::message<websocketpp::message_buffer::alloc::con_msg_manager> >), sio::client_impl*, std::__ndk1::placeholders::__ph<1> const&, std::__ndk1::placeholders::__ph<2> const&> >, void (std::__ndk1::weak_ptr<void>, std::__ndk1::shared_ptr<websocketpp::message_buffer::message<websocketpp::message_buffer::alloc::con_msg_manager> >)>::__clone() const
PUBLIC f0060 0 std::__ndk1::__function::__func<std::__ndk1::__bind<void (sio::client_impl::*)(std::__ndk1::weak_ptr<void>, std::__ndk1::shared_ptr<websocketpp::message_buffer::message<websocketpp::message_buffer::alloc::con_msg_manager> >), sio::client_impl*, std::__ndk1::placeholders::__ph<1> const&, std::__ndk1::placeholders::__ph<2> const&>, std::__ndk1::allocator<std::__ndk1::__bind<void (sio::client_impl::*)(std::__ndk1::weak_ptr<void>, std::__ndk1::shared_ptr<websocketpp::message_buffer::message<websocketpp::message_buffer::alloc::con_msg_manager> >), sio::client_impl*, std::__ndk1::placeholders::__ph<1> const&, std::__ndk1::placeholders::__ph<2> const&> >, void (std::__ndk1::weak_ptr<void>, std::__ndk1::shared_ptr<websocketpp::message_buffer::message<websocketpp::message_buffer::alloc::con_msg_manager> >)>::__clone(std::__ndk1::__function::__base<void (std::__ndk1::weak_ptr<void>, std::__ndk1::shared_ptr<websocketpp::message_buffer::message<websocketpp::message_buffer::alloc::con_msg_manager> >)>*) const
PUBLIC f0080 0 std::__ndk1::__function::__func<std::__ndk1::__bind<void (sio::client_impl::*)(std::__ndk1::weak_ptr<void>, std::__ndk1::shared_ptr<websocketpp::message_buffer::message<websocketpp::message_buffer::alloc::con_msg_manager> >), sio::client_impl*, std::__ndk1::placeholders::__ph<1> const&, std::__ndk1::placeholders::__ph<2> const&>, std::__ndk1::allocator<std::__ndk1::__bind<void (sio::client_impl::*)(std::__ndk1::weak_ptr<void>, std::__ndk1::shared_ptr<websocketpp::message_buffer::message<websocketpp::message_buffer::alloc::con_msg_manager> >), sio::client_impl*, std::__ndk1::placeholders::__ph<1> const&, std::__ndk1::placeholders::__ph<2> const&> >, void (std::__ndk1::weak_ptr<void>, std::__ndk1::shared_ptr<websocketpp::message_buffer::message<websocketpp::message_buffer::alloc::con_msg_manager> >)>::destroy()
PUBLIC f0084 0 std::__ndk1::__function::__func<std::__ndk1::__bind<void (sio::client_impl::*)(std::__ndk1::weak_ptr<void>, std::__ndk1::shared_ptr<websocketpp::message_buffer::message<websocketpp::message_buffer::alloc::con_msg_manager> >), sio::client_impl*, std::__ndk1::placeholders::__ph<1> const&, std::__ndk1::placeholders::__ph<2> const&>, std::__ndk1::allocator<std::__ndk1::__bind<void (sio::client_impl::*)(std::__ndk1::weak_ptr<void>, std::__ndk1::shared_ptr<websocketpp::message_buffer::message<websocketpp::message_buffer::alloc::con_msg_manager> >), sio::client_impl*, std::__ndk1::placeholders::__ph<1> const&, std::__ndk1::placeholders::__ph<2> const&> >, void (std::__ndk1::weak_ptr<void>, std::__ndk1::shared_ptr<websocketpp::message_buffer::message<websocketpp::message_buffer::alloc::con_msg_manager> >)>::destroy_deallocate()
PUBLIC f0088 0 std::__ndk1::__function::__func<std::__ndk1::__bind<void (sio::client_impl::*)(std::__ndk1::weak_ptr<void>, std::__ndk1::shared_ptr<websocketpp::message_buffer::message<websocketpp::message_buffer::alloc::con_msg_manager> >), sio::client_impl*, std::__ndk1::placeholders::__ph<1> const&, std::__ndk1::placeholders::__ph<2> const&>, std::__ndk1::allocator<std::__ndk1::__bind<void (sio::client_impl::*)(std::__ndk1::weak_ptr<void>, std::__ndk1::shared_ptr<websocketpp::message_buffer::message<websocketpp::message_buffer::alloc::con_msg_manager> >), sio::client_impl*, std::__ndk1::placeholders::__ph<1> const&, std::__ndk1::placeholders::__ph<2> const&> >, void (std::__ndk1::weak_ptr<void>, std::__ndk1::shared_ptr<websocketpp::message_buffer::message<websocketpp::message_buffer::alloc::con_msg_manager> >)>::operator()(std::__ndk1::weak_ptr<void>&&, std::__ndk1::shared_ptr<websocketpp::message_buffer::message<websocketpp::message_buffer::alloc::con_msg_manager> >&&)
PUBLIC f0170 0 std::__ndk1::__function::__func<std::__ndk1::__bind<void (sio::client_impl::*)(std::__ndk1::weak_ptr<void>, std::__ndk1::shared_ptr<websocketpp::message_buffer::message<websocketpp::message_buffer::alloc::con_msg_manager> >), sio::client_impl*, std::__ndk1::placeholders::__ph<1> const&, std::__ndk1::placeholders::__ph<2> const&>, std::__ndk1::allocator<std::__ndk1::__bind<void (sio::client_impl::*)(std::__ndk1::weak_ptr<void>, std::__ndk1::shared_ptr<websocketpp::message_buffer::message<websocketpp::message_buffer::alloc::con_msg_manager> >), sio::client_impl*, std::__ndk1::placeholders::__ph<1> const&, std::__ndk1::placeholders::__ph<2> const&> >, void (std::__ndk1::weak_ptr<void>, std::__ndk1::shared_ptr<websocketpp::message_buffer::message<websocketpp::message_buffer::alloc::con_msg_manager> >)>::target(std::type_info const&) const
PUBLIC f018c 0 std::__ndk1::__function::__func<std::__ndk1::__bind<void (sio::client_impl::*)(std::__ndk1::weak_ptr<void>, std::__ndk1::shared_ptr<websocketpp::message_buffer::message<websocketpp::message_buffer::alloc::con_msg_manager> >), sio::client_impl*, std::__ndk1::placeholders::__ph<1> const&, std::__ndk1::placeholders::__ph<2> const&>, std::__ndk1::allocator<std::__ndk1::__bind<void (sio::client_impl::*)(std::__ndk1::weak_ptr<void>, std::__ndk1::shared_ptr<websocketpp::message_buffer::message<websocketpp::message_buffer::alloc::con_msg_manager> >), sio::client_impl*, std::__ndk1::placeholders::__ph<1> const&, std::__ndk1::placeholders::__ph<2> const&> >, void (std::__ndk1::weak_ptr<void>, std::__ndk1::shared_ptr<websocketpp::message_buffer::message<websocketpp::message_buffer::alloc::con_msg_manager> >)>::target_type() const
PUBLIC f0198 0 std::__ndk1::shared_ptr<websocketpp::message_buffer::message<websocketpp::message_buffer::alloc::con_msg_manager> >::~shared_ptr[abi:ne180000]()
PUBLIC f01e8 0 std::__ndk1::__function::__base<void (sio::packet const&)>::~__base()
PUBLIC f01ec 0 std::__ndk1::__function::__func<std::__ndk1::__bind<void (sio::client_impl::*)(sio::packet const&), sio::client_impl*, std::__ndk1::placeholders::__ph<1> const&>, std::__ndk1::allocator<std::__ndk1::__bind<void (sio::client_impl::*)(sio::packet const&), sio::client_impl*, std::__ndk1::placeholders::__ph<1> const&> >, void (sio::packet const&)>::~__func()
PUBLIC f01f0 0 std::__ndk1::__function::__func<std::__ndk1::__bind<void (sio::client_impl::*)(sio::packet const&), sio::client_impl*, std::__ndk1::placeholders::__ph<1> const&>, std::__ndk1::allocator<std::__ndk1::__bind<void (sio::client_impl::*)(sio::packet const&), sio::client_impl*, std::__ndk1::placeholders::__ph<1> const&> >, void (sio::packet const&)>::__clone() const
PUBLIC f0230 0 std::__ndk1::__function::__func<std::__ndk1::__bind<void (sio::client_impl::*)(sio::packet const&), sio::client_impl*, std::__ndk1::placeholders::__ph<1> const&>, std::__ndk1::allocator<std::__ndk1::__bind<void (sio::client_impl::*)(sio::packet const&), sio::client_impl*, std::__ndk1::placeholders::__ph<1> const&> >, void (sio::packet const&)>::__clone(std::__ndk1::__function::__base<void (sio::packet const&)>*) const
PUBLIC f0250 0 std::__ndk1::__function::__func<std::__ndk1::__bind<void (sio::client_impl::*)(sio::packet const&), sio::client_impl*, std::__ndk1::placeholders::__ph<1> const&>, std::__ndk1::allocator<std::__ndk1::__bind<void (sio::client_impl::*)(sio::packet const&), sio::client_impl*, std::__ndk1::placeholders::__ph<1> const&> >, void (sio::packet const&)>::destroy()
PUBLIC f0254 0 std::__ndk1::__function::__func<std::__ndk1::__bind<void (sio::client_impl::*)(sio::packet const&), sio::client_impl*, std::__ndk1::placeholders::__ph<1> const&>, std::__ndk1::allocator<std::__ndk1::__bind<void (sio::client_impl::*)(sio::packet const&), sio::client_impl*, std::__ndk1::placeholders::__ph<1> const&> >, void (sio::packet const&)>::destroy_deallocate()
PUBLIC f0258 0 std::__ndk1::__function::__func<std::__ndk1::__bind<void (sio::client_impl::*)(sio::packet const&), sio::client_impl*, std::__ndk1::placeholders::__ph<1> const&>, std::__ndk1::allocator<std::__ndk1::__bind<void (sio::client_impl::*)(sio::packet const&), sio::client_impl*, std::__ndk1::placeholders::__ph<1> const&> >, void (sio::packet const&)>::operator()(sio::packet const&)
PUBLIC f0274 0 std::__ndk1::__function::__func<std::__ndk1::__bind<void (sio::client_impl::*)(sio::packet const&), sio::client_impl*, std::__ndk1::placeholders::__ph<1> const&>, std::__ndk1::allocator<std::__ndk1::__bind<void (sio::client_impl::*)(sio::packet const&), sio::client_impl*, std::__ndk1::placeholders::__ph<1> const&> >, void (sio::packet const&)>::target(std::type_info const&) const
PUBLIC f0290 0 std::__ndk1::__function::__func<std::__ndk1::__bind<void (sio::client_impl::*)(sio::packet const&), sio::client_impl*, std::__ndk1::placeholders::__ph<1> const&>, std::__ndk1::allocator<std::__ndk1::__bind<void (sio::client_impl::*)(sio::packet const&), sio::client_impl*, std::__ndk1::placeholders::__ph<1> const&> >, void (sio::packet const&)>::target_type() const
PUBLIC f029c 0 std::__ndk1::__function::__func<std::__ndk1::__bind<void (sio::client_impl::*)(bool, std::__ndk1::shared_ptr<std::__ndk1::basic_string<char, std::__ndk1::char_traits<char>, std::__ndk1::allocator<char> > const> const&), sio::client_impl*, std::__ndk1::placeholders::__ph<1> const&, std::__ndk1::placeholders::__ph<2> const&>, std::__ndk1::allocator<std::__ndk1::__bind<void (sio::client_impl::*)(bool, std::__ndk1::shared_ptr<std::__ndk1::basic_string<char, std::__ndk1::char_traits<char>, std::__ndk1::allocator<char> > const> const&), sio::client_impl*, std::__ndk1::placeholders::__ph<1> const&, std::__ndk1::placeholders::__ph<2> const&> >, void (bool, std::__ndk1::shared_ptr<std::__ndk1::basic_string<char, std::__ndk1::char_traits<char>, std::__ndk1::allocator<char> > const> const&)>::~__func()
PUBLIC f02a0 0 std::__ndk1::__function::__func<std::__ndk1::__bind<void (sio::client_impl::*)(bool, std::__ndk1::shared_ptr<std::__ndk1::basic_string<char, std::__ndk1::char_traits<char>, std::__ndk1::allocator<char> > const> const&), sio::client_impl*, std::__ndk1::placeholders::__ph<1> const&, std::__ndk1::placeholders::__ph<2> const&>, std::__ndk1::allocator<std::__ndk1::__bind<void (sio::client_impl::*)(bool, std::__ndk1::shared_ptr<std::__ndk1::basic_string<char, std::__ndk1::char_traits<char>, std::__ndk1::allocator<char> > const> const&), sio::client_impl*, std::__ndk1::placeholders::__ph<1> const&, std::__ndk1::placeholders::__ph<2> const&> >, void (bool, std::__ndk1::shared_ptr<std::__ndk1::basic_string<char, std::__ndk1::char_traits<char>, std::__ndk1::allocator<char> > const> const&)>::__clone() const
PUBLIC f02e0 0 std::__ndk1::__function::__func<std::__ndk1::__bind<void (sio::client_impl::*)(bool, std::__ndk1::shared_ptr<std::__ndk1::basic_string<char, std::__ndk1::char_traits<char>, std::__ndk1::allocator<char> > const> const&), sio::client_impl*, std::__ndk1::placeholders::__ph<1> const&, std::__ndk1::placeholders::__ph<2> const&>, std::__ndk1::allocator<std::__ndk1::__bind<void (sio::client_impl::*)(bool, std::__ndk1::shared_ptr<std::__ndk1::basic_string<char, std::__ndk1::char_traits<char>, std::__ndk1::allocator<char> > const> const&), sio::client_impl*, std::__ndk1::placeholders::__ph<1> const&, std::__ndk1::placeholders::__ph<2> const&> >, void (bool, std::__ndk1::shared_ptr<std::__ndk1::basic_string<char, std::__ndk1::char_traits<char>, std::__ndk1::allocator<char> > const> const&)>::__clone(std::__ndk1::__function::__base<void (bool, std::__ndk1::shared_ptr<std::__ndk1::basic_string<char, std::__ndk1::char_traits<char>, std::__ndk1::allocator<char> > const> const&)>*) const
PUBLIC f0300 0 std::__ndk1::__function::__func<std::__ndk1::__bind<void (sio::client_impl::*)(bool, std::__ndk1::shared_ptr<std::__ndk1::basic_string<char, std::__ndk1::char_traits<char>, std::__ndk1::allocator<char> > const> const&), sio::client_impl*, std::__ndk1::placeholders::__ph<1> const&, std::__ndk1::placeholders::__ph<2> const&>, std::__ndk1::allocator<std::__ndk1::__bind<void (sio::client_impl::*)(bool, std::__ndk1::shared_ptr<std::__ndk1::basic_string<char, std::__ndk1::char_traits<char>, std::__ndk1::allocator<char> > const> const&), sio::client_impl*, std::__ndk1::placeholders::__ph<1> const&, std::__ndk1::placeholders::__ph<2> const&> >, void (bool, std::__ndk1::shared_ptr<std::__ndk1::basic_string<char, std::__ndk1::char_traits<char>, std::__ndk1::allocator<char> > const> const&)>::destroy()
PUBLIC f0304 0 std::__ndk1::__function::__func<std::__ndk1::__bind<void (sio::client_impl::*)(bool, std::__ndk1::shared_ptr<std::__ndk1::basic_string<char, std::__ndk1::char_traits<char>, std::__ndk1::allocator<char> > const> const&), sio::client_impl*, std::__ndk1::placeholders::__ph<1> const&, std::__ndk1::placeholders::__ph<2> const&>, std::__ndk1::allocator<std::__ndk1::__bind<void (sio::client_impl::*)(bool, std::__ndk1::shared_ptr<std::__ndk1::basic_string<char, std::__ndk1::char_traits<char>, std::__ndk1::allocator<char> > const> const&), sio::client_impl*, std::__ndk1::placeholders::__ph<1> const&, std::__ndk1::placeholders::__ph<2> const&> >, void (bool, std::__ndk1::shared_ptr<std::__ndk1::basic_string<char, std::__ndk1::char_traits<char>, std::__ndk1::allocator<char> > const> const&)>::destroy_deallocate()
PUBLIC f0308 0 std::__ndk1::__function::__func<std::__ndk1::__bind<void (sio::client_impl::*)(bool, std::__ndk1::shared_ptr<std::__ndk1::basic_string<char, std::__ndk1::char_traits<char>, std::__ndk1::allocator<char> > const> const&), sio::client_impl*, std::__ndk1::placeholders::__ph<1> const&, std::__ndk1::placeholders::__ph<2> const&>, std::__ndk1::allocator<std::__ndk1::__bind<void (sio::client_impl::*)(bool, std::__ndk1::shared_ptr<std::__ndk1::basic_string<char, std::__ndk1::char_traits<char>, std::__ndk1::allocator<char> > const> const&), sio::client_impl*, std::__ndk1::placeholders::__ph<1> const&, std::__ndk1::placeholders::__ph<2> const&> >, void (bool, std::__ndk1::shared_ptr<std::__ndk1::basic_string<char, std::__ndk1::char_traits<char>, std::__ndk1::allocator<char> > const> const&)>::operator()(bool&&, std::__ndk1::shared_ptr<std::__ndk1::basic_string<char, std::__ndk1::char_traits<char>, std::__ndk1::allocator<char> > const> const&)
PUBLIC f0328 0 std::__ndk1::__function::__func<std::__ndk1::__bind<void (sio::client_impl::*)(bool, std::__ndk1::shared_ptr<std::__ndk1::basic_string<char, std::__ndk1::char_traits<char>, std::__ndk1::allocator<char> > const> const&), sio::client_impl*, std::__ndk1::placeholders::__ph<1> const&, std::__ndk1::placeholders::__ph<2> const&>, std::__ndk1::allocator<std::__ndk1::__bind<void (sio::client_impl::*)(bool, std::__ndk1::shared_ptr<std::__ndk1::basic_string<char, std::__ndk1::char_traits<char>, std::__ndk1::allocator<char> > const> const&), sio::client_impl*, std::__ndk1::placeholders::__ph<1> const&, std::__ndk1::placeholders::__ph<2> const&> >, void (bool, std::__ndk1::shared_ptr<std::__ndk1::basic_string<char, std::__ndk1::char_traits<char>, std::__ndk1::allocator<char> > const> const&)>::target(std::type_info const&) const
PUBLIC f0344 0 std::__ndk1::__function::__func<std::__ndk1::__bind<void (sio::client_impl::*)(bool, std::__ndk1::shared_ptr<std::__ndk1::basic_string<char, std::__ndk1::char_traits<char>, std::__ndk1::allocator<char> > const> const&), sio::client_impl*, std::__ndk1::placeholders::__ph<1> const&, std::__ndk1::placeholders::__ph<2> const&>, std::__ndk1::allocator<std::__ndk1::__bind<void (sio::client_impl::*)(bool, std::__ndk1::shared_ptr<std::__ndk1::basic_string<char, std::__ndk1::char_traits<char>, std::__ndk1::allocator<char> > const> const&), sio::client_impl*, std::__ndk1::placeholders::__ph<1> const&, std::__ndk1::placeholders::__ph<2> const&> >, void (bool, std::__ndk1::shared_ptr<std::__ndk1::basic_string<char, std::__ndk1::char_traits<char>, std::__ndk1::allocator<char> > const> const&)>::target_type() const
PUBLIC f0350 0 std::__ndk1::__tree<std::__ndk1::__value_type<std::__ndk1::basic_string<char, std::__ndk1::char_traits<char>, std::__ndk1::allocator<char> >, std::__ndk1::basic_string<char, std::__ndk1::char_traits<char>, std::__ndk1::allocator<char> > >, std::__ndk1::__map_value_compare<std::__ndk1::basic_string<char, std::__ndk1::char_traits<char>, std::__ndk1::allocator<char> >, std::__ndk1::__value_type<std::__ndk1::basic_string<char, std::__ndk1::char_traits<char>, std::__ndk1::allocator<char> >, std::__ndk1::basic_string<char, std::__ndk1::char_traits<char>, std::__ndk1::allocator<char> > >, std::__ndk1::less<std::__ndk1::basic_string<char, std::__ndk1::char_traits<char>, std::__ndk1::allocator<char> > >, true>, std::__ndk1::allocator<std::__ndk1::__value_type<std::__ndk1::basic_string<char, std::__ndk1::char_traits<char>, std::__ndk1::allocator<char> >, std::__ndk1::basic_string<char, std::__ndk1::char_traits<char>, std::__ndk1::allocator<char> > > > >::_DetachedTreeCache::~_DetachedTreeCache[abi:ne180000]()
PUBLIC f03a8 0 std::__ndk1::__tree<std::__ndk1::__value_type<std::__ndk1::basic_string<char, std::__ndk1::char_traits<char>, std::__ndk1::allocator<char> >, std::__ndk1::basic_string<char, std::__ndk1::char_traits<char>, std::__ndk1::allocator<char> > >, std::__ndk1::__map_value_compare<std::__ndk1::basic_string<char, std::__ndk1::char_traits<char>, std::__ndk1::allocator<char> >, std::__ndk1::__value_type<std::__ndk1::basic_string<char, std::__ndk1::char_traits<char>, std::__ndk1::allocator<char> >, std::__ndk1::basic_string<char, std::__ndk1::char_traits<char>, std::__ndk1::allocator<char> > >, std::__ndk1::less<std::__ndk1::basic_string<char, std::__ndk1::char_traits<char>, std::__ndk1::allocator<char> > >, true>, std::__ndk1::allocator<std::__ndk1::__value_type<std::__ndk1::basic_string<char, std::__ndk1::char_traits<char>, std::__ndk1::allocator<char> >, std::__ndk1::basic_string<char, std::__ndk1::char_traits<char>, std::__ndk1::allocator<char> > > > >::__construct_node<std::__ndk1::pair<std::__ndk1::basic_string<char, std::__ndk1::char_traits<char>, std::__ndk1::allocator<char> > const, std::__ndk1::basic_string<char, std::__ndk1::char_traits<char>, std::__ndk1::allocator<char> > > const&>(std::__ndk1::pair<std::__ndk1::basic_string<char, std::__ndk1::char_traits<char>, std::__ndk1::allocator<char> > const, std::__ndk1::basic_string<char, std::__ndk1::char_traits<char>, std::__ndk1::allocator<char> > > const&)
PUBLIC f0490 0 std::__ndk1::unique_ptr<std::__ndk1::__tree_node<std::__ndk1::__value_type<std::__ndk1::basic_string<char, std::__ndk1::char_traits<char>, std::__ndk1::allocator<char> >, std::__ndk1::basic_string<char, std::__ndk1::char_traits<char>, std::__ndk1::allocator<char> > >, void*>, std::__ndk1::__tree_node_destructor<std::__ndk1::allocator<std::__ndk1::__tree_node<std::__ndk1::__value_type<std::__ndk1::basic_string<char, std::__ndk1::char_traits<char>, std::__ndk1::allocator<char> >, std::__ndk1::basic_string<char, std::__ndk1::char_traits<char>, std::__ndk1::allocator<char> > >, void*> > > >::~unique_ptr[abi:ne180000]()
PUBLIC f04ec 0 asio::detail::scheduler::do_dispatch(asio::detail::scheduler_operation*)
PUBLIC f065c 0 asio::detail::completion_handler<std::__ndk1::__bind<void (sio::client_impl::*)(std::__ndk1::basic_string<char, std::__ndk1::char_traits<char>, std::__ndk1::allocator<char> > const&, std::__ndk1::basic_string<char, std::__ndk1::char_traits<char>, std::__ndk1::allocator<char> > const&), sio::client_impl*, std::__ndk1::basic_string<char, std::__ndk1::char_traits<char>, std::__ndk1::allocator<char> > const&, std::__ndk1::basic_string<char, std::__ndk1::char_traits<char>, std::__ndk1::allocator<char> >&> >::do_complete(void*, asio::detail::scheduler_operation*, std::__ndk1::error_code const&, unsigned long)
PUBLIC f07e0 0 asio::detail::completion_handler<std::__ndk1::__bind<void (sio::client_impl::*)(std::__ndk1::basic_string<char, std::__ndk1::char_traits<char>, std::__ndk1::allocator<char> > const&, std::__ndk1::basic_string<char, std::__ndk1::char_traits<char>, std::__ndk1::allocator<char> > const&), sio::client_impl*, std::__ndk1::basic_string<char, std::__ndk1::char_traits<char>, std::__ndk1::allocator<char> > const&, std::__ndk1::basic_string<char, std::__ndk1::char_traits<char>, std::__ndk1::allocator<char> >&> >::ptr::reset()
PUBLIC f0870 0 std::__ndk1::__thread_proxy[abi:ne180000]<std::__ndk1::tuple<std::__ndk1::unique_ptr<std::__ndk1::__thread_struct, std::__ndk1::default_delete<std::__ndk1::unique_ptr> >, std::__ndk1::__bind<void (sio::client_impl::*)(), sio*> > >(std::__ndk1::tuple<std::__ndk1::unique_ptr<std::__ndk1::__thread_struct, std::__ndk1::default_delete<std::__ndk1::unique_ptr> >, std::__ndk1::__bind<void (sio::client_impl::*)(), sio*> >)
PUBLIC f093c 0 std::__ndk1::unique_ptr<std::__ndk1::tuple<std::__ndk1::unique_ptr<std::__ndk1::__thread_struct, std::__ndk1::default_delete<std::__ndk1::__thread_struct> >, std::__ndk1::__bind<void (sio::client_impl::*)(), sio::client_impl*> >, std::__ndk1::default_delete<std::__ndk1::tuple<std::__ndk1::unique_ptr<std::__ndk1::__thread_struct, std::__ndk1::default_delete<std::__ndk1::__thread_struct> >, std::__ndk1::__bind<void (sio::client_impl::*)(), sio::client_impl*> > > >::~unique_ptr[abi:ne180000]()
PUBLIC f098c 0 std::__ndk1::__tree<std::__ndk1::__value_type<std::__ndk1::basic_string<char, std::__ndk1::char_traits<char>, std::__ndk1::allocator<char> > const, std::__ndk1::shared_ptr<sio::socket> >, std::__ndk1::__map_value_compare<std::__ndk1::basic_string<char, std::__ndk1::char_traits<char>, std::__ndk1::allocator<char> > const, std::__ndk1::__value_type<std::__ndk1::basic_string<char, std::__ndk1::char_traits<char>, std::__ndk1::allocator<char> > const, std::__ndk1::shared_ptr<sio::socket> >, std::__ndk1::less<std::__ndk1::basic_string<char, std::__ndk1::char_traits<char>, std::__ndk1::allocator<char> > const>, true>, std::__ndk1::allocator<std::__ndk1::__value_type<std::__ndk1::basic_string<char, std::__ndk1::char_traits<char>, std::__ndk1::allocator<char> > const, std::__ndk1::shared_ptr<sio::socket> > > >::find<std::__ndk1::basic_string<char, std::__ndk1::char_traits<char>, std::__ndk1::allocator<char> > >(std::__ndk1::basic_string<char, std::__ndk1::char_traits<char>, std::__ndk1::allocator<char> > const&)
PUBLIC f0aac 0 std::__ndk1::unique_ptr<sio::socket, std::__ndk1::default_delete<sio::socket> >::~unique_ptr[abi:ne180000]()
PUBLIC f0af8 0 std::__ndk1::__shared_ptr_pointer<sio::socket*, std::__ndk1::shared_ptr<sio::socket>::__shared_ptr_default_delete<sio::socket, sio::socket>, std::__ndk1::allocator<sio::socket> >::~__shared_ptr_pointer()
PUBLIC f0b1c 0 std::__ndk1::__shared_ptr_pointer<sio::socket*, std::__ndk1::shared_ptr<sio::socket>::__shared_ptr_default_delete<sio::socket, sio::socket>, std::__ndk1::allocator<sio::socket> >::__on_zero_shared()
PUBLIC f0b64 0 std::__ndk1::__shared_ptr_pointer<sio::socket*, std::__ndk1::shared_ptr<sio::socket>::__shared_ptr_default_delete<sio::socket, sio::socket>, std::__ndk1::allocator<sio::socket> >::__get_deleter(std::type_info const&) const
PUBLIC f0b80 0 std::__ndk1::__shared_ptr_pointer<sio::socket*, std::__ndk1::shared_ptr<sio::socket>::__shared_ptr_default_delete<sio::socket, sio::socket>, std::__ndk1::allocator<sio::socket> >::__on_zero_shared_weak()
PUBLIC f0b84 0 std::__ndk1::unique_ptr<std::__ndk1::__tree_node<std::__ndk1::__value_type<std::__ndk1::basic_string<char, std::__ndk1::char_traits<char>, std::__ndk1::allocator<char> > const, std::__ndk1::shared_ptr<sio::socket> >, void*>, std::__ndk1::__tree_node_destructor<std::__ndk1::allocator<std::__ndk1::__tree_node<std::__ndk1::__value_type<std::__ndk1::basic_string<char, std::__ndk1::char_traits<char>, std::__ndk1::allocator<char> > const, std::__ndk1::shared_ptr<sio::socket> >, void*> > > >::~unique_ptr[abi:ne180000]()
PUBLIC f0c00 0 asio::detail::completion_handler<std::__ndk1::__bind<void (sio::client_impl::*)(unsigned short const&, std::__ndk1::basic_string<char, std::__ndk1::char_traits<char>, std::__ndk1::allocator<char> > const&), sio::client_impl*, unsigned short const&, char const (&) [12]> >::ptr::~ptr()
PUBLIC f0c74 0 asio::detail::completion_handler<std::__ndk1::__bind<void (sio::client_impl::*)(unsigned short const&, std::__ndk1::basic_string<char, std::__ndk1::char_traits<char>, std::__ndk1::allocator<char> > const&), sio::client_impl*, unsigned short const&, char const (&) [12]> >::do_complete(void*, asio::detail::scheduler_operation*, std::__ndk1::error_code const&, unsigned long)
PUBLIC f0e50 0 std::__ndk1::__tree<std::__ndk1::__value_type<std::__ndk1::basic_string<char, std::__ndk1::char_traits<char>, std::__ndk1::allocator<char> > const, std::__ndk1::shared_ptr<sio::socket> >, std::__ndk1::__map_value_compare<std::__ndk1::basic_string<char, std::__ndk1::char_traits<char>, std::__ndk1::allocator<char> > const, std::__ndk1::__value_type<std::__ndk1::basic_string<char, std::__ndk1::char_traits<char>, std::__ndk1::allocator<char> > const, std::__ndk1::shared_ptr<sio::socket> >, std::__ndk1::less<std::__ndk1::basic_string<char, std::__ndk1::char_traits<char>, std::__ndk1::allocator<char> > const>, true>, std::__ndk1::allocator<std::__ndk1::__value_type<std::__ndk1::basic_string<char, std::__ndk1::char_traits<char>, std::__ndk1::allocator<char> > const, std::__ndk1::shared_ptr<sio::socket> > > >::erase(std::__ndk1::__tree_const_iterator<std::__ndk1::__value_type<std::__ndk1::basic_string<char, std::__ndk1::char_traits<char>, std::__ndk1::allocator<char> > const, std::__ndk1::shared_ptr<sio::socket> >, std::__ndk1::__tree_node<std::__ndk1::__value_type<std::__ndk1::basic_string<char, std::__ndk1::char_traits<char>, std::__ndk1::allocator<char> > const, std::__ndk1::shared_ptr<sio::socket> >, void*>*, long>)
PUBLIC f0f24 0 asio::detail::scheduler::run(std::__ndk1::error_code&)
PUBLIC f1694 0 asio::detail::call_stack<asio::detail::thread_context, asio::detail::thread_info_base>::context::~context()
PUBLIC f16c0 0 asio::detail::scheduler_thread_info::~scheduler_thread_info()
PUBLIC f1764 0 asio::detail::scheduler::task_cleanup::~task_cleanup()
PUBLIC f182c 0 asio::detail::scheduler::work_cleanup::~work_cleanup()
PUBLIC f190c 0 std::__ndk1::shared_ptr<websocketpp::uri>::~shared_ptr[abi:ne180000]()
PUBLIC f195c 0 std::__ndk1::__shared_ptr_emplace<websocketpp::uri, std::__ndk1::allocator<websocketpp::uri> >::~__shared_ptr_emplace()
PUBLIC f196c 0 std::__ndk1::__shared_ptr_emplace<websocketpp::uri, std::__ndk1::allocator<websocketpp::uri> >::~__shared_ptr_emplace()
PUBLIC f199c 0 std::__ndk1::__shared_ptr_emplace<websocketpp::uri, std::__ndk1::allocator<websocketpp::uri> >::__on_zero_shared()
PUBLIC f1a00 0 std::__ndk1::__shared_ptr_emplace<websocketpp::uri, std::__ndk1::allocator<websocketpp::uri> >::__on_zero_shared_weak()
PUBLIC f1a04 0 std::__ndk1::shared_ptr<websocketpp::transport::asio::connection<websocketpp::config::asio_client::transport_config> >::~shared_ptr[abi:ne180000]()
PUBLIC f1a54 0 websocketpp::log::basic<websocketpp::concurrency::basic, websocketpp::log::elevel>::write(unsigned int, std::__ndk1::basic_string<char, std::__ndk1::char_traits<char>, std::__ndk1::allocator<char> > const&)
PUBLIC f1c68 0 std::__ndk1::__shared_ptr_emplace<websocketpp::connection<websocketpp::config::asio_client>, std::__ndk1::allocator<websocketpp::connection<websocketpp::config::asio_client> > >::~__shared_ptr_emplace()
PUBLIC f1c78 0 std::__ndk1::__shared_ptr_emplace<websocketpp::connection<websocketpp::config::asio_client>, std::__ndk1::allocator<websocketpp::connection<websocketpp::config::asio_client> > >::~__shared_ptr_emplace()
PUBLIC f1ca8 0 std::__ndk1::__shared_ptr_emplace<websocketpp::connection<websocketpp::config::asio_client>, std::__ndk1::allocator<websocketpp::connection<websocketpp::config::asio_client> > >::__on_zero_shared()
PUBLIC f22d4 0 std::__ndk1::__shared_ptr_emplace<websocketpp::connection<websocketpp::config::asio_client>, std::__ndk1::allocator<websocketpp::connection<websocketpp::config::asio_client> > >::__on_zero_shared_weak()
PUBLIC f22d8 0 websocketpp::connection<websocketpp::config::asio_client>::handle_read_frame(std::__ndk1::error_code const&, unsigned long)
PUBLIC f3eb8 0 websocketpp::connection<websocketpp::config::asio_client>::handle_write_frame(std::__ndk1::error_code const&)
PUBLIC f4194 0 websocketpp::http::parser::response::~response()
PUBLIC f4240 0 websocketpp::http::parser::request::~request()
PUBLIC f42fc 0 std::__ndk1::vector<std::__ndk1::shared_ptr<websocketpp::message_buffer::message<websocketpp::message_buffer::alloc::con_msg_manager> >, std::__ndk1::allocator<std::__ndk1::shared_ptr<websocketpp::message_buffer::message<websocketpp::message_buffer::alloc::con_msg_manager> > > >::~vector[abi:ne180000]()
PUBLIC f43a4 0 std::__ndk1::shared_ptr<websocketpp::processor::processor<websocketpp::config::asio_client> >::~shared_ptr[abi:ne180000]()
PUBLIC f43f4 0 std::__ndk1::shared_ptr<asio::basic_waitable_timer<std::__ndk1::chrono::steady_clock, asio::wait_traits<std::__ndk1::chrono::steady_clock> > >::~shared_ptr[abi:ne180000]()
PUBLIC f4444 0 std::__ndk1::shared_ptr<websocketpp::message_buffer::alloc::con_msg_manager<websocketpp::message_buffer::message<websocketpp::message_buffer::alloc::con_msg_manager> > >::~shared_ptr[abi:ne180000]()
PUBLIC f4494 0 websocketpp::transport::asio::connection<websocketpp::config::asio_client::transport_config>::~connection()
PUBLIC f46a0 0 std::__ndk1::shared_ptr<asio::io_context::strand>::~shared_ptr[abi:ne180000]()
PUBLIC f46f0 0 std::__ndk1::shared_ptr<websocketpp::transport::asio::connection<websocketpp::config::asio_client::transport_config>::proxy_data>::~shared_ptr[abi:ne180000]()
PUBLIC f4740 0 websocketpp::transport::asio::basic_socket::connection::~connection()
PUBLIC f47e4 0 websocketpp::connection<websocketpp::config::asio_client>::terminate(std::__ndk1::error_code const&)
PUBLIC f5710 0 websocketpp::connection<websocketpp::config::asio_client>::log_err<std::__ndk1::error_code>(unsigned int, char const*, std::__ndk1::error_code const&)
PUBLIC f5934 0 websocketpp::connection<websocketpp::config::asio_client>::close(unsigned short, std::__ndk1::basic_string<char, std::__ndk1::char_traits<char>, std::__ndk1::allocator<char> > const&, std::__ndk1::error_code&)
PUBLIC f5b44 0 websocketpp::transport::error::category::~category()
PUBLIC f5b68 0 websocketpp::transport::error::category::name() const
PUBLIC f5b74 0 websocketpp::transport::error::category::message(int) const
PUBLIC f5e7c 0 websocketpp::connection<websocketpp::config::asio_client>::handle_terminate(websocketpp::connection<websocketpp::config::asio_client>::terminate_status, std::__ndk1::error_code const&)
PUBLIC f662c 0 std::__ndk1::__bind<void (websocketpp::connection<websocketpp::config::asio_client>::*)(websocketpp::connection<websocketpp::config::asio_client>::terminate_status, std::__ndk1::error_code const&), std::__ndk1::shared_ptr<websocketpp::connection<websocketpp::config::asio_client> >, websocketpp::connection<websocketpp::config::asio_client>&::terminate_status, std::__ndk1::placeholders::__ph<1> const&>::~__bind()
PUBLIC f667c 0 websocketpp::processor::get_websocket_version<websocketpp::http::parser::request>(websocketpp::http::parser::request&)
PUBLIC f6884 0 websocketpp::transport::asio::connection<websocketpp::config::asio_client::transport_config>::get_remote_endpoint() const
PUBLIC f6cbc 0 websocketpp::utility::string_replace_all(std::__ndk1::basic_string<char, std::__ndk1::char_traits<char>, std::__ndk1::allocator<char> >, std::__ndk1::basic_string<char, std::__ndk1::char_traits<char>, std::__ndk1::allocator<char> > const&, std::__ndk1::basic_string<char, std::__ndk1::char_traits<char>, std::__ndk1::allocator<char> > const&)
PUBLIC f6e3c 0 std::__ndk1::basic_istringstream<char, std::__ndk1::char_traits<char>, std::__ndk1::allocator<char> >::basic_istringstream[abi:ne180000](std::__ndk1::basic_string<char, std::__ndk1::char_traits<char>, std::__ndk1::allocator<char> > const&, unsigned int)
PUBLIC f6f6c 0 std::__ndk1::basic_istringstream<char, std::__ndk1::char_traits<char>, std::__ndk1::allocator<char> >::~basic_istringstream()
PUBLIC f6fe8 0 websocketpp::transport::asio::error::make_error_code(websocketpp::transport::asio::error::value)
PUBLIC f7060 0 asio::ip::operator<< <char, std::__ndk1::char_traits<char>, asio::ip::tcp>(std::__ndk1::basic_ostream<char, std::__ndk1::char_traits<char> >&, asio::ip::basic_endpoint<asio::ip::tcp> const&)
PUBLIC f73b8 0 asio::ip::detail::endpoint::resize(unsigned long)
PUBLIC f74e4 0 websocketpp::transport::asio::error::category::~category()
PUBLIC f7508 0 websocketpp::transport::asio::error::category::name() const
PUBLIC f7514 0 websocketpp::transport::asio::error::category::message(int) const
PUBLIC f76fc 0 asio::ip::operator<< <char, std::__ndk1::char_traits<char> >(std::__ndk1::basic_ostream<char, std::__ndk1::char_traits<char> >&, asio::ip::address const&)
PUBLIC f7a20 0 asio::detail::socket_ops::inet_ntop(int, void const*, char*, unsigned long, unsigned long, std::__ndk1::error_code&)
PUBLIC f7c2c 0 sprintf(char*, char const* pass_object_size1, ...)
PUBLIC f7cd0 0 std::__ndk1::__tree<std::__ndk1::__value_type<std::__ndk1::basic_string<char, std::__ndk1::char_traits<char>, std::__ndk1::allocator<char> >, std::__ndk1::basic_string<char, std::__ndk1::char_traits<char>, std::__ndk1::allocator<char> > >, std::__ndk1::__map_value_compare<std::__ndk1::basic_string<char, std::__ndk1::char_traits<char>, std::__ndk1::allocator<char> >, std::__ndk1::__value_type<std::__ndk1::basic_string<char, std::__ndk1::char_traits<char>, std::__ndk1::allocator<char> >, std::__ndk1::basic_string<char, std::__ndk1::char_traits<char>, std::__ndk1::allocator<char> > >, websocketpp::utility::ci_less, true>, std::__ndk1::allocator<std::__ndk1::__value_type<std::__ndk1::basic_string<char, std::__ndk1::char_traits<char>, std::__ndk1::allocator<char> >, std::__ndk1::basic_string<char, std::__ndk1::char_traits<char>, std::__ndk1::allocator<char> > > > >::find<std::__ndk1::basic_string<char, std::__ndk1::char_traits<char>, std::__ndk1::allocator<char> > >(std::__ndk1::basic_string<char, std::__ndk1::char_traits<char>, std::__ndk1::allocator<char> > const&) const
PUBLIC f7e28 0 websocketpp::transport::asio::connection<websocketpp::config::asio_client::transport_config>::set_timer(long, std::__ndk1::function<void (std::__ndk1::error_code const&)>)
PUBLIC f83dc 0 websocketpp::transport::asio::connection<websocketpp::config::asio_client::transport_config>::handle_async_shutdown_timeout(std::__ndk1::shared_ptr<asio::basic_waitable_timer<std::__ndk1::chrono::steady_clock, asio::wait_traits<std::__ndk1::chrono::steady_clock> > >, std::__ndk1::function<void (std::__ndk1::error_code const&)>, std::__ndk1::error_code const&)
PUBLIC f85d0 0 std::__ndk1::__bind<void (websocketpp::transport::asio::connection<websocketpp::config::asio_client::transport_config>::*)(std::__ndk1::shared_ptr<asio::basic_waitable_timer<std::__ndk1::chrono::steady_clock, asio::wait_traits<std::__ndk1::chrono::steady_clock> > >, std::__ndk1::function<void (std::__ndk1::error_code const&)>, std::__ndk1::error_code const&), std::__ndk1::shared_ptr<websocketpp::transport::asio::connection<websocketpp::config::asio_client::transport_config> >, std::__ndk1::shared_ptr<asio::basic_waitable_timer<std::__ndk1::chrono::steady_clock, asio::wait_traits<std::__ndk1::chrono::steady_clock> > >&, std::__ndk1::function<void (std::__ndk1::error_code const&)>&, std::__ndk1::placeholders::__ph<1> const&>::~__bind()
PUBLIC f8690 0 websocketpp::transport::asio::connection<websocketpp::config::asio_client::transport_config>::handle_async_shutdown(std::__ndk1::shared_ptr<asio::basic_waitable_timer<std::__ndk1::chrono::steady_clock, asio::wait_traits<std::__ndk1::chrono::steady_clock> > >, std::__ndk1::function<void (std::__ndk1::error_code const&)>, std::__ndk1::error_code const&)
PUBLIC f88d8 0 websocketpp::transport::asio::connection<websocketpp::config::asio_client::transport_config>::handle_timer(std::__ndk1::shared_ptr<asio::basic_waitable_timer<std::__ndk1::chrono::steady_clock, asio::wait_traits<std::__ndk1::chrono::steady_clock> > >, std::__ndk1::function<void (std::__ndk1::error_code const&)>, std::__ndk1::error_code const&)
PUBLIC f8af4 0 asio::detail::wrapped_handler<asio::io_context::strand, std::__ndk1::__bind<void (websocketpp::transport::asio::connection<websocketpp::config::asio_client::transport_config>::*)(std::__ndk1::shared_ptr<asio::basic_waitable_timer<std::__ndk1::chrono::steady_clock, asio::wait_traits<std::__ndk1::chrono::steady_clock> > >, std::__ndk1::function<void (std::__ndk1::error_code const&)>, std::__ndk1::error_code const&), std::__ndk1::shared_ptr<websocketpp::transport::asio::connection<websocketpp::config::asio_client::transport_config> >, std::__ndk1::shared_ptr<asio::basic_waitable_timer<std::__ndk1::chrono::steady_clock, asio::wait_traits<std::__ndk1::chrono::steady_clock> > >&, std::__ndk1::function<void (std::__ndk1::error_code const&)>&, std::__ndk1::placeholders::__ph<1> const&>, asio::detail::is_continuation_if_running>::~wrapped_handler()
PUBLIC f8bb4 0 std::__ndk1::__shared_ptr_pointer<asio::basic_waitable_timer<std::__ndk1::chrono::steady_clock, asio::wait_traits<std::__ndk1::chrono::steady_clock> >*, std::__ndk1::shared_ptr<asio::basic_waitable_timer<std::__ndk1::chrono::steady_clock, asio::wait_traits<std::__ndk1::chrono::steady_clock> > >::__shared_ptr_default_delete<asio::basic_waitable_timer<std::__ndk1::chrono::steady_clock, asio::wait_traits<std::__ndk1::chrono::steady_clock> >, asio::basic_waitable_timer<std::__ndk1::chrono::steady_clock, asio::wait_traits<std::__ndk1::chrono::steady_clock> > >, std::__ndk1::allocator<asio::basic_waitable_timer<std::__ndk1::chrono::steady_clock, asio::wait_traits<std::__ndk1::chrono::steady_clock> > > >::~__shared_ptr_pointer()
PUBLIC f8bd8 0 std::__ndk1::__shared_ptr_pointer<asio::basic_waitable_timer<std::__ndk1::chrono::steady_clock, asio::wait_traits<std::__ndk1::chrono::steady_clock> >*, std::__ndk1::shared_ptr<asio::basic_waitable_timer<std::__ndk1::chrono::steady_clock, asio::wait_traits<std::__ndk1::chrono::steady_clock> > >::__shared_ptr_default_delete<asio::basic_waitable_timer<std::__ndk1::chrono::steady_clock, asio::wait_traits<std::__ndk1::chrono::steady_clock> >, asio::basic_waitable_timer<std::__ndk1::chrono::steady_clock, asio::wait_traits<std::__ndk1::chrono::steady_clock> > >, std::__ndk1::allocator<asio::basic_waitable_timer<std::__ndk1::chrono::steady_clock, asio::wait_traits<std::__ndk1::chrono::steady_clock> > > >::__on_zero_shared()
PUBLIC f8c10 0 std::__ndk1::__shared_ptr_pointer<asio::basic_waitable_timer<std::__ndk1::chrono::steady_clock, asio::wait_traits<std::__ndk1::chrono::steady_clock> >*, std::__ndk1::shared_ptr<asio::basic_waitable_timer<std::__ndk1::chrono::steady_clock, asio::wait_traits<std::__ndk1::chrono::steady_clock> > >::__shared_ptr_default_delete<asio::basic_waitable_timer<std::__ndk1::chrono::steady_clock, asio::wait_traits<std::__ndk1::chrono::steady_clock> >, asio::basic_waitable_timer<std::__ndk1::chrono::steady_clock, asio::wait_traits<std::__ndk1::chrono::steady_clock> > >, std::__ndk1::allocator<asio::basic_waitable_timer<std::__ndk1::chrono::steady_clock, asio::wait_traits<std::__ndk1::chrono::steady_clock> > > >::__get_deleter(std::type_info const&) const
PUBLIC f8c2c 0 std::__ndk1::__shared_ptr_pointer<asio::basic_waitable_timer<std::__ndk1::chrono::steady_clock, asio::wait_traits<std::__ndk1::chrono::steady_clock> >*, std::__ndk1::shared_ptr<asio::basic_waitable_timer<std::__ndk1::chrono::steady_clock, asio::wait_traits<std::__ndk1::chrono::steady_clock> > >::__shared_ptr_default_delete<asio::basic_waitable_timer<std::__ndk1::chrono::steady_clock, asio::wait_traits<std::__ndk1::chrono::steady_clock> >, asio::basic_waitable_timer<std::__ndk1::chrono::steady_clock, asio::wait_traits<std::__ndk1::chrono::steady_clock> > >, std::__ndk1::allocator<asio::basic_waitable_timer<std::__ndk1::chrono::steady_clock, asio::wait_traits<std::__ndk1::chrono::steady_clock> > > >::__on_zero_shared_weak()
PUBLIC f8c30 0 asio::detail::wait_handler<asio::detail::wrapped_handler<asio::io_context::strand, std::__ndk1::__bind<void (websocketpp::transport::asio::connection<websocketpp::config::asio_client::transport_config>::*)(std::__ndk1::shared_ptr<asio::basic_waitable_timer<std::__ndk1::chrono::steady_clock, asio::wait_traits<std::__ndk1::chrono::steady_clock> > >, std::__ndk1::function<void (std::__ndk1::error_code const&)>, std::__ndk1::error_code const&), std::__ndk1::shared_ptr<websocketpp::transport::asio::connection<websocketpp::config::asio_client::transport_config> >, std::__ndk1::shared_ptr<asio::basic_waitable_timer<std::__ndk1::chrono::steady_clock, asio::wait_traits<std::__ndk1::chrono::steady_clock> > >&, std::__ndk1::function<void (std::__ndk1::error_code const&)>&, std::__ndk1::placeholders::__ph<1> const&>, asio::detail::is_continuation_if_running> >::do_complete(void*, asio::detail::scheduler_operation*, std::__ndk1::error_code const&, unsigned long)
PUBLIC f90e8 0 asio::detail::wait_handler<asio::detail::wrapped_handler<asio::io_context::strand, std::__ndk1::__bind<void (websocketpp::transport::asio::connection<websocketpp::config::asio_client::transport_config>::*)(std::__ndk1::shared_ptr<asio::basic_waitable_timer<std::__ndk1::chrono::steady_clock, asio::wait_traits<std::__ndk1::chrono::steady_clock> > >, std::__ndk1::function<void (std::__ndk1::error_code const&)>, std::__ndk1::error_code const&), std::__ndk1::shared_ptr<websocketpp::transport::asio::connection<websocketpp::config::asio_client::transport_config> >, std::__ndk1::shared_ptr<asio::basic_waitable_timer<std::__ndk1::chrono::steady_clock, asio::wait_traits<std::__ndk1::chrono::steady_clock> > >&, std::__ndk1::function<void (std::__ndk1::error_code const&)>&, std::__ndk1::placeholders::__ph<1> const&>, asio::detail::is_continuation_if_running> >::ptr::reset()
PUBLIC f91f0 0 asio::detail::binder1<asio::detail::wrapped_handler<asio::io_context::strand, std::__ndk1::__bind<void (websocketpp::transport::asio::connection<websocketpp::config::asio_client::transport_config>::*)(std::__ndk1::shared_ptr<asio::basic_waitable_timer<std::__ndk1::chrono::steady_clock, asio::wait_traits<std::__ndk1::chrono::steady_clock> > >, std::__ndk1::function<void (std::__ndk1::error_code const&)>, std::__ndk1::error_code const&), std::__ndk1::shared_ptr<websocketpp::transport::asio::connection<websocketpp::config::asio_client::transport_config> >, std::__ndk1::shared_ptr<asio::basic_waitable_timer<std::__ndk1::chrono::steady_clock, asio::wait_traits<std::__ndk1::chrono::steady_clock> > >&, std::__ndk1::function<void (std::__ndk1::error_code const&)>&, std::__ndk1::placeholders::__ph<1> const&>, asio::detail::is_continuation_if_running>, std::__ndk1::error_code>::~binder1()
PUBLIC f92b0 0 asio::detail::rewrapped_handler<asio::detail::binder1<asio::detail::wrapped_handler<asio::io_context::strand, std::__ndk1::__bind<void (websocketpp::transport::asio::connection<websocketpp::config::asio_client::transport_config>::*)(std::__ndk1::shared_ptr<asio::basic_waitable_timer<std::__ndk1::chrono::steady_clock, asio::wait_traits<std::__ndk1::chrono::steady_clock> > >, std::__ndk1::function<void (std::__ndk1::error_code const&)>, std::__ndk1::error_code const&), std::__ndk1::shared_ptr<websocketpp::transport::asio::connection<websocketpp::config::asio_client::transport_config> >, std::__ndk1::shared_ptr<asio::basic_waitable_timer<std::__ndk1::chrono::steady_clock, asio::wait_traits<std::__ndk1::chrono::steady_clock> > >&, std::__ndk1::function<void (std::__ndk1::error_code const&)>&, std::__ndk1::placeholders::__ph<1> const&>, asio::detail::is_continuation_if_running>, std::__ndk1::error_code>, std::__ndk1::__bind<void (websocketpp::transport::asio::connection<websocketpp::config::asio_client::transport_config>::*)(std::__ndk1::shared_ptr<asio::basic_waitable_timer<std::__ndk1::chrono::steady_clock, asio::wait_traits<std::__ndk1::chrono::steady_clock> > >, std::__ndk1::function<void (std::__ndk1::error_code const&)>, std::__ndk1::error_code const&), std::__ndk1::shared_ptr<websocketpp::transport::asio::connection<websocketpp::config::asio_client::transport_config> >, std::__ndk1::shared_ptr<asio::basic_waitable_timer<std::__ndk1::chrono::steady_clock, asio::wait_traits<std::__ndk1::chrono::steady_clock> > >&, std::__ndk1::function<void (std::__ndk1::error_code const&)>&, std::__ndk1::placeholders::__ph<1> const&> >::~rewrapped_handler()
PUBLIC f9410 0 asio::detail::strand_service::do_dispatch(asio::detail::strand_service::strand_impl*&, asio::detail::scheduler_operation*)
PUBLIC f9544 0 asio::detail::completion_handler<asio::detail::rewrapped_handler<asio::detail::binder1<asio::detail::wrapped_handler<asio::io_context::strand, std::__ndk1::__bind<void (websocketpp::transport::asio::connection<websocketpp::config::asio_client::transport_config>::*)(std::__ndk1::shared_ptr<asio::basic_waitable_timer<std::__ndk1::chrono::steady_clock, asio::wait_traits<std::__ndk1::chrono::steady_clock> > >, std::__ndk1::function<void (std::__ndk1::error_code const&)>, std::__ndk1::error_code const&), std::__ndk1::shared_ptr<websocketpp::transport::asio::connection<websocketpp::config::asio_client::transport_config> >, std::__ndk1::shared_ptr<asio::basic_waitable_timer<std::__ndk1::chrono::steady_clock, asio::wait_traits<std::__ndk1::chrono::steady_clock> > >&, std::__ndk1::function<void (std::__ndk1::error_code const&)>&, std::__ndk1::placeholders::__ph<1> const&>, asio::detail::is_continuation_if_running>, std::__ndk1::error_code>, std::__ndk1::__bind<void (websocketpp::transport::asio::connection<websocketpp::config::asio_client::transport_config>::*)(std::__ndk1::shared_ptr<asio::basic_waitable_timer<std::__ndk1::chrono::steady_clock, asio::wait_traits<std::__ndk1::chrono::steady_clock> > >, std::__ndk1::function<void (std::__ndk1::error_code const&)>, std::__ndk1::error_code const&), std::__ndk1::shared_ptr<websocketpp::transport::asio::connection<websocketpp::config::asio_client::transport_config> >, std::__ndk1::shared_ptr<asio::basic_waitable_timer<std::__ndk1::chrono::steady_clock, asio::wait_traits<std::__ndk1::chrono::steady_clock> > >&, std::__ndk1::function<void (std::__ndk1::error_code const&)>&, std::__ndk1::placeholders::__ph<1> const&> > >::do_complete(void*, asio::detail::scheduler_operation*, std::__ndk1::error_code const&, unsigned long)
PUBLIC f9648 0 asio::detail::strand_service::on_dispatch_exit::~on_dispatch_exit()
PUBLIC f96d0 0 asio::detail::call_stack<asio::detail::strand_service::strand_impl, unsigned char>::context::~context()
PUBLIC f96fc 0 asio::detail::completion_handler<asio::detail::rewrapped_handler<asio::detail::binder1<asio::detail::wrapped_handler<asio::io_context::strand, std::__ndk1::__bind<void (websocketpp::transport::asio::connection<websocketpp::config::asio_client::transport_config>::*)(std::__ndk1::shared_ptr<asio::basic_waitable_timer<std::__ndk1::chrono::steady_clock, asio::wait_traits<std::__ndk1::chrono::steady_clock> > >, std::__ndk1::function<void (std::__ndk1::error_code const&)>, std::__ndk1::error_code const&), std::__ndk1::shared_ptr<websocketpp::transport::asio::connection<websocketpp::config::asio_client::transport_config> >, std::__ndk1::shared_ptr<asio::basic_waitable_timer<std::__ndk1::chrono::steady_clock, asio::wait_traits<std::__ndk1::chrono::steady_clock> > >&, std::__ndk1::function<void (std::__ndk1::error_code const&)>&, std::__ndk1::placeholders::__ph<1> const&>, asio::detail::is_continuation_if_running>, std::__ndk1::error_code>, std::__ndk1::__bind<void (websocketpp::transport::asio::connection<websocketpp::config::asio_client::transport_config>::*)(std::__ndk1::shared_ptr<asio::basic_waitable_timer<std::__ndk1::chrono::steady_clock, asio::wait_traits<std::__ndk1::chrono::steady_clock> > >, std::__ndk1::function<void (std::__ndk1::error_code const&)>, std::__ndk1::error_code const&), std::__ndk1::shared_ptr<websocketpp::transport::asio::connection<websocketpp::config::asio_client::transport_config> >, std::__ndk1::shared_ptr<asio::basic_waitable_timer<std::__ndk1::chrono::steady_clock, asio::wait_traits<std::__ndk1::chrono::steady_clock> > >&, std::__ndk1::function<void (std::__ndk1::error_code const&)>&, std::__ndk1::placeholders::__ph<1> const&> > >::ptr::~ptr()
PUBLIC f9754 0 asio::detail::wrapped_handler<asio::io_context::strand, std::__ndk1::__bind<void (websocketpp::transport::asio::connection<websocketpp::config::asio_client::transport_config>::*)(std::__ndk1::shared_ptr<asio::basic_waitable_timer<std::__ndk1::chrono::steady_clock, asio::wait_traits<std::__ndk1::chrono::steady_clock> > >, std::__ndk1::function<void (std::__ndk1::error_code const&)>, std::__ndk1::error_code const&), std::__ndk1::shared_ptr<websocketpp::transport::asio::connection<websocketpp::config::asio_client::transport_config> >, std::__ndk1::shared_ptr<asio::basic_waitable_timer<std::__ndk1::chrono::steady_clock, asio::wait_traits<std::__ndk1::chrono::steady_clock> > >&, std::__ndk1::function<void (std::__ndk1::error_code const&)>&, std::__ndk1::placeholders::__ph<1> const&>, asio::detail::is_continuation_if_running>::operator()<std::__ndk1::error_code>(std::__ndk1::error_code const&)
PUBLIC f9b64 0 asio::detail::binder1<std::__ndk1::__bind<void (websocketpp::transport::asio::connection<websocketpp::config::asio_client::transport_config>::*)(std::__ndk1::shared_ptr<asio::basic_waitable_timer<std::__ndk1::chrono::steady_clock, asio::wait_traits<std::__ndk1::chrono::steady_clock> > >, std::__ndk1::function<void (std::__ndk1::error_code const&)>, std::__ndk1::error_code const&), std::__ndk1::shared_ptr<websocketpp::transport::asio::connection<websocketpp::config::asio_client::transport_config> >, std::__ndk1::shared_ptr<asio::basic_waitable_timer<std::__ndk1::chrono::steady_clock, asio::wait_traits<std::__ndk1::chrono::steady_clock> > >&, std::__ndk1::function<void (std::__ndk1::error_code const&)>&, std::__ndk1::placeholders::__ph<1> const&>, std::__ndk1::error_code>::~binder1()
PUBLIC f9c24 0 asio::detail::completion_handler<asio::detail::binder1<std::__ndk1::__bind<void (websocketpp::transport::asio::connection<websocketpp::config::asio_client::transport_config>::*)(std::__ndk1::shared_ptr<asio::basic_waitable_timer<std::__ndk1::chrono::steady_clock, asio::wait_traits<std::__ndk1::chrono::steady_clock> > >, std::__ndk1::function<void (std::__ndk1::error_code const&)>, std::__ndk1::error_code const&), std::__ndk1::shared_ptr<websocketpp::transport::asio::connection<websocketpp::config::asio_client::transport_config> >, std::__ndk1::shared_ptr<asio::basic_waitable_timer<std::__ndk1::chrono::steady_clock, asio::wait_traits<std::__ndk1::chrono::steady_clock> > >&, std::__ndk1::function<void (std::__ndk1::error_code const&)>&, std::__ndk1::placeholders::__ph<1> const&>, std::__ndk1::error_code> >::do_complete(void*, asio::detail::scheduler_operation*, std::__ndk1::error_code const&, unsigned long)
PUBLIC f9df8 0 std::__ndk1::__invoke[abi:ne180000]<void (websocketpp::transport::asio::connection<std::__ndk1::__invoke[abi:ne180000]::config::asio_client::transport_config>&::*)(std::__ndk1::shared_ptr<asio::basic_waitable_timer<std::__ndk1::chrono::steady_clock, std::__ndk1::shared_ptr::wait_traits<std::__ndk1::chrono> > >, std::__ndk1::function<void (std::__ndk1::error_code const&)>, std::__ndk1::error_code const), websocketpp::transport::asio::connection<std::__ndk1::__invoke[abi:ne180000]::config::asio_client::transport_config>&<std::__ndk1::__invoke[abi:ne180000]::config::asio_client::transport_config>, asio::basic_waitable_timer<std::__ndk1::chrono::steady_clock, std::__ndk1::shared_ptr::wait_traits<std::__ndk1::chrono> >&, void (&)(std::__ndk1::error_code const&), std::__ndk1::error_code const, void>(websocketpp::transport::asio::connection<std::__ndk1::__invoke[abi:ne180000]::config::asio_client::transport_config>&<std::__ndk1::__invoke[abi:ne180000]::config::asio_client::transport_config>, void (&)(std::__ndk1::error_code const&), void (websocketpp::transport::asio::connection<std::__ndk1::__invoke[abi:ne180000]::config::asio_client::transport_config>&::*)(std::__ndk1::shared_ptr<asio::basic_waitable_timer<std::__ndk1::chrono::steady_clock, std::__ndk1::shared_ptr::wait_traits<std::__ndk1::chrono> > >, std::__ndk1::function<void (std::__ndk1::error_code const&)>, std::__ndk1::error_code const))
PUBLIC f9f88 0 std::__ndk1::function<void (std::__ndk1::error_code const&)>::function(std::__ndk1::function<void (std::__ndk1::error_code const&)> const&)
PUBLIC f9ff8 0 asio::detail::completion_handler<asio::detail::binder1<std::__ndk1::__bind<void (websocketpp::transport::asio::connection<websocketpp::config::asio_client::transport_config>::*)(std::__ndk1::shared_ptr<asio::basic_waitable_timer<std::__ndk1::chrono::steady_clock, asio::wait_traits<std::__ndk1::chrono::steady_clock> > >, std::__ndk1::function<void (std::__ndk1::error_code const&)>, std::__ndk1::error_code const&), std::__ndk1::shared_ptr<websocketpp::transport::asio::connection<websocketpp::config::asio_client::transport_config> >, std::__ndk1::shared_ptr<asio::basic_waitable_timer<std::__ndk1::chrono::steady_clock, asio::wait_traits<std::__ndk1::chrono::steady_clock> > >&, std::__ndk1::function<void (std::__ndk1::error_code const&)>&, std::__ndk1::placeholders::__ph<1> const&>, std::__ndk1::error_code> >::ptr::reset()
PUBLIC fa100 0 std::__ndk1::__tuple_leaf<(unsigned long)1, std::__ndk1::shared_ptr<asio::basic_waitable_timer<std::__ndk1::chrono::steady_clock, asio::wait_traits<std::__ndk1::chrono::steady_clock> > >, false>::~__tuple_leaf()
PUBLIC fa150 0 std::__ndk1::__tuple_leaf<(unsigned long)0, std::__ndk1::shared_ptr<websocketpp::transport::asio::connection<websocketpp::config::asio_client::transport_config> >, false>::~__tuple_leaf()
PUBLIC fa1a0 0 asio::detail::rewrapped_handler<asio::detail::binder1<asio::detail::wrapped_handler<asio::io_context::strand, std::__ndk1::__bind<void (websocketpp::transport::asio::connection<websocketpp::config::asio_client::transport_config>::*)(std::__ndk1::shared_ptr<asio::basic_waitable_timer<std::__ndk1::chrono::steady_clock, asio::wait_traits<std::__ndk1::chrono::steady_clock> > >, std::__ndk1::function<void (std::__ndk1::error_code const&)>, std::__ndk1::error_code const&), std::__ndk1::shared_ptr<websocketpp::transport::asio::connection<websocketpp::config::asio_client::transport_config> >, std::__ndk1::shared_ptr<asio::basic_waitable_timer<std::__ndk1::chrono::steady_clock, asio::wait_traits<std::__ndk1::chrono::steady_clock> > >&, std::__ndk1::function<void (std::__ndk1::error_code const&)>&, std::__ndk1::placeholders::__ph<1> const&>, asio::detail::is_continuation_if_running>, std::__ndk1::error_code>, std::__ndk1::__bind<void (websocketpp::transport::asio::connection<websocketpp::config::asio_client::transport_config>::*)(std::__ndk1::shared_ptr<asio::basic_waitable_timer<std::__ndk1::chrono::steady_clock, asio::wait_traits<std::__ndk1::chrono::steady_clock> > >, std::__ndk1::function<void (std::__ndk1::error_code const&)>, std::__ndk1::error_code const&), std::__ndk1::shared_ptr<websocketpp::transport::asio::connection<websocketpp::config::asio_client::transport_config> >, std::__ndk1::shared_ptr<asio::basic_waitable_timer<std::__ndk1::chrono::steady_clock, asio::wait_traits<std::__ndk1::chrono::steady_clock> > >&, std::__ndk1::function<void (std::__ndk1::error_code const&)>&, std::__ndk1::placeholders::__ph<1> const&> >::rewrapped_handler(asio::detail::rewrapped_handler<asio::detail::binder1<asio::detail::wrapped_handler<asio::io_context::strand, std::__ndk1::__bind<void (websocketpp::transport::asio::connection<websocketpp::config::asio_client::transport_config>::*)(std::__ndk1::shared_ptr<asio::basic_waitable_timer<std::__ndk1::chrono::steady_clock, asio::wait_traits<std::__ndk1::chrono::steady_clock> > >, std::__ndk1::function<void (std::__ndk1::error_code const&)>, std::__ndk1::error_code const&), std::__ndk1::shared_ptr<websocketpp::transport::asio::connection<websocketpp::config::asio_client::transport_config> >, std::__ndk1::shared_ptr<asio::basic_waitable_timer<std::__ndk1::chrono::steady_clock, asio::wait_traits<std::__ndk1::chrono::steady_clock> > >&, std::__ndk1::function<void (std::__ndk1::error_code const&)>&, std::__ndk1::placeholders::__ph<1> const&>, asio::detail::is_continuation_if_running>, std::__ndk1::error_code>, std::__ndk1::__bind<void (websocketpp::transport::asio::connection<websocketpp::config::asio_client::transport_config>::*)(std::__ndk1::shared_ptr<asio::basic_waitable_timer<std::__ndk1::chrono::steady_clock, asio::wait_traits<std::__ndk1::chrono::steady_clock> > >, std::__ndk1::function<void (std::__ndk1::error_code const&)>, std::__ndk1::error_code const&), std::__ndk1::shared_ptr<websocketpp::transport::asio::connection<websocketpp::config::asio_client::transport_config> >, std::__ndk1::shared_ptr<asio::basic_waitable_timer<std::__ndk1::chrono::steady_clock, asio::wait_traits<std::__ndk1::chrono::steady_clock> > >&, std::__ndk1::function<void (std::__ndk1::error_code const&)>&, std::__ndk1::placeholders::__ph<1> const&> >&&)
PUBLIC fa2a8 0 websocketpp::transport::asio::connection<websocketpp::config::asio_client::transport_config>::log_err<std::__ndk1::error_code>(unsigned int, char const*, std::__ndk1::error_code const&)
PUBLIC fa4cc 0 websocketpp::transport::asio::connection<websocketpp::config::asio_client::transport_config>::cancel_socket_checked()
PUBLIC fa9d0 0 std::__ndk1::shared_ptr<websocketpp::transport::asio::basic_socket::connection>::~shared_ptr[abi:ne180000]()
PUBLIC faa20 0 std::__ndk1::__function::__func<std::__ndk1::__bind<void (websocketpp::transport::asio::connection<websocketpp::config::asio_client::transport_config>::*)(std::__ndk1::shared_ptr<asio::basic_waitable_timer<std::__ndk1::chrono::steady_clock, asio::wait_traits<std::__ndk1::chrono::steady_clock> > >, std::__ndk1::function<void (std::__ndk1::error_code const&)>, std::__ndk1::error_code const&), std::__ndk1::shared_ptr<websocketpp::transport::asio::connection<websocketpp::config::asio_client::transport_config> >, std::__ndk1::shared_ptr<asio::basic_waitable_timer<std::__ndk1::chrono::steady_clock, asio::wait_traits<std::__ndk1::chrono::steady_clock> > >&, std::__ndk1::function<void (std::__ndk1::error_code const&)>&, std::__ndk1::placeholders::__ph<1> const&>, std::__ndk1::allocator<std::__ndk1::__bind<void (websocketpp::transport::asio::connection<websocketpp::config::asio_client::transport_config>::*)(std::__ndk1::shared_ptr<asio::basic_waitable_timer<std::__ndk1::chrono::steady_clock, asio::wait_traits<std::__ndk1::chrono::steady_clock> > >, std::__ndk1::function<void (std::__ndk1::error_code const&)>, std::__ndk1::error_code const&), std::__ndk1::shared_ptr<websocketpp::transport::asio::connection<websocketpp::config::asio_client::transport_config> >, std::__ndk1::shared_ptr<asio::basic_waitable_timer<std::__ndk1::chrono::steady_clock, asio::wait_traits<std::__ndk1::chrono::steady_clock> > >&, std::__ndk1::function<void (std::__ndk1::error_code const&)>&, std::__ndk1::placeholders::__ph<1> const&> >, void (std::__ndk1::error_code const&)>::~__func()
PUBLIC faaec 0 std::__ndk1::__function::__func<std::__ndk1::__bind<void (websocketpp::transport::asio::connection<websocketpp::config::asio_client::transport_config>::*)(std::__ndk1::shared_ptr<asio::basic_waitable_timer<std::__ndk1::chrono::steady_clock, asio::wait_traits<std::__ndk1::chrono::steady_clock> > >, std::__ndk1::function<void (std::__ndk1::error_code const&)>, std::__ndk1::error_code const&), std::__ndk1::shared_ptr<websocketpp::transport::asio::connection<websocketpp::config::asio_client::transport_config> >, std::__ndk1::shared_ptr<asio::basic_waitable_timer<std::__ndk1::chrono::steady_clock, asio::wait_traits<std::__ndk1::chrono::steady_clock> > >&, std::__ndk1::function<void (std::__ndk1::error_code const&)>&, std::__ndk1::placeholders::__ph<1> const&>, std::__ndk1::allocator<std::__ndk1::__bind<void (websocketpp::transport::asio::connection<websocketpp::config::asio_client::transport_config>::*)(std::__ndk1::shared_ptr<asio::basic_waitable_timer<std::__ndk1::chrono::steady_clock, asio::wait_traits<std::__ndk1::chrono::steady_clock> > >, std::__ndk1::function<void (std::__ndk1::error_code const&)>, std::__ndk1::error_code const&), std::__ndk1::shared_ptr<websocketpp::transport::asio::connection<websocketpp::config::asio_client::transport_config> >, std::__ndk1::shared_ptr<asio::basic_waitable_timer<std::__ndk1::chrono::steady_clock, asio::wait_traits<std::__ndk1::chrono::steady_clock> > >&, std::__ndk1::function<void (std::__ndk1::error_code const&)>&, std::__ndk1::placeholders::__ph<1> const&> >, void (std::__ndk1::error_code const&)>::~__func()
PUBLIC fabb8 0 std::__ndk1::__function::__func<std::__ndk1::__bind<void (websocketpp::transport::asio::connection<websocketpp::config::asio_client::transport_config>::*)(std::__ndk1::shared_ptr<asio::basic_waitable_timer<std::__ndk1::chrono::steady_clock, asio::wait_traits<std::__ndk1::chrono::steady_clock> > >, std::__ndk1::function<void (std::__ndk1::error_code const&)>, std::__ndk1::error_code const&), std::__ndk1::shared_ptr<websocketpp::transport::asio::connection<websocketpp::config::asio_client::transport_config> >, std::__ndk1::shared_ptr<asio::basic_waitable_timer<std::__ndk1::chrono::steady_clock, asio::wait_traits<std::__ndk1::chrono::steady_clock> > >&, std::__ndk1::function<void (std::__ndk1::error_code const&)>&, std::__ndk1::placeholders::__ph<1> const&>, std::__ndk1::allocator<std::__ndk1::__bind<void (websocketpp::transport::asio::connection<websocketpp::config::asio_client::transport_config>::*)(std::__ndk1::shared_ptr<asio::basic_waitable_timer<std::__ndk1::chrono::steady_clock, asio::wait_traits<std::__ndk1::chrono::steady_clock> > >, std::__ndk1::function<void (std::__ndk1::error_code const&)>, std::__ndk1::error_code const&), std::__ndk1::shared_ptr<websocketpp::transport::asio::connection<websocketpp::config::asio_client::transport_config> >, std::__ndk1::shared_ptr<asio::basic_waitable_timer<std::__ndk1::chrono::steady_clock, asio::wait_traits<std::__ndk1::chrono::steady_clock> > >&, std::__ndk1::function<void (std::__ndk1::error_code const&)>&, std::__ndk1::placeholders::__ph<1> const&> >, void (std::__ndk1::error_code const&)>::__clone() const
PUBLIC fac98 0 std::__ndk1::__function::__func<std::__ndk1::__bind<void (websocketpp::transport::asio::connection<websocketpp::config::asio_client::transport_config>::*)(std::__ndk1::shared_ptr<asio::basic_waitable_timer<std::__ndk1::chrono::steady_clock, asio::wait_traits<std::__ndk1::chrono::steady_clock> > >, std::__ndk1::function<void (std::__ndk1::error_code const&)>, std::__ndk1::error_code const&), std::__ndk1::shared_ptr<websocketpp::transport::asio::connection<websocketpp::config::asio_client::transport_config> >, std::__ndk1::shared_ptr<asio::basic_waitable_timer<std::__ndk1::chrono::steady_clock, asio::wait_traits<std::__ndk1::chrono::steady_clock> > >&, std::__ndk1::function<void (std::__ndk1::error_code const&)>&, std::__ndk1::placeholders::__ph<1> const&>, std::__ndk1::allocator<std::__ndk1::__bind<void (websocketpp::transport::asio::connection<websocketpp::config::asio_client::transport_config>::*)(std::__ndk1::shared_ptr<asio::basic_waitable_timer<std::__ndk1::chrono::steady_clock, asio::wait_traits<std::__ndk1::chrono::steady_clock> > >, std::__ndk1::function<void (std::__ndk1::error_code const&)>, std::__ndk1::error_code const&), std::__ndk1::shared_ptr<websocketpp::transport::asio::connection<websocketpp::config::asio_client::transport_config> >, std::__ndk1::shared_ptr<asio::basic_waitable_timer<std::__ndk1::chrono::steady_clock, asio::wait_traits<std::__ndk1::chrono::steady_clock> > >&, std::__ndk1::function<void (std::__ndk1::error_code const&)>&, std::__ndk1::placeholders::__ph<1> const&> >, void (std::__ndk1::error_code const&)>::__clone(std::__ndk1::__function::__base<void (std::__ndk1::error_code const&)>*) const
PUBLIC fad64 0 std::__ndk1::__function::__func<std::__ndk1::__bind<void (websocketpp::transport::asio::connection<websocketpp::config::asio_client::transport_config>::*)(std::__ndk1::shared_ptr<asio::basic_waitable_timer<std::__ndk1::chrono::steady_clock, asio::wait_traits<std::__ndk1::chrono::steady_clock> > >, std::__ndk1::function<void (std::__ndk1::error_code const&)>, std::__ndk1::error_code const&), std::__ndk1::shared_ptr<websocketpp::transport::asio::connection<websocketpp::config::asio_client::transport_config> >, std::__ndk1::shared_ptr<asio::basic_waitable_timer<std::__ndk1::chrono::steady_clock, asio::wait_traits<std::__ndk1::chrono::steady_clock> > >&, std::__ndk1::function<void (std::__ndk1::error_code const&)>&, std::__ndk1::placeholders::__ph<1> const&>, std::__ndk1::allocator<std::__ndk1::__bind<void (websocketpp::transport::asio::connection<websocketpp::config::asio_client::transport_config>::*)(std::__ndk1::shared_ptr<asio::basic_waitable_timer<std::__ndk1::chrono::steady_clock, asio::wait_traits<std::__ndk1::chrono::steady_clock> > >, std::__ndk1::function<void (std::__ndk1::error_code const&)>, std::__ndk1::error_code const&), std::__ndk1::shared_ptr<websocketpp::transport::asio::connection<websocketpp::config::asio_client::transport_config> >, std::__ndk1::shared_ptr<asio::basic_waitable_timer<std::__ndk1::chrono::steady_clock, asio::wait_traits<std::__ndk1::chrono::steady_clock> > >&, std::__ndk1::function<void (std::__ndk1::error_code const&)>&, std::__ndk1::placeholders::__ph<1> const&> >, void (std::__ndk1::error_code const&)>::destroy()
PUBLIC fae24 0 std::__ndk1::__function::__func<std::__ndk1::__bind<void (websocketpp::transport::asio::connection<websocketpp::config::asio_client::transport_config>::*)(std::__ndk1::shared_ptr<asio::basic_waitable_timer<std::__ndk1::chrono::steady_clock, asio::wait_traits<std::__ndk1::chrono::steady_clock> > >, std::__ndk1::function<void (std::__ndk1::error_code const&)>, std::__ndk1::error_code const&), std::__ndk1::shared_ptr<websocketpp::transport::asio::connection<websocketpp::config::asio_client::transport_config> >, std::__ndk1::shared_ptr<asio::basic_waitable_timer<std::__ndk1::chrono::steady_clock, asio::wait_traits<std::__ndk1::chrono::steady_clock> > >&, std::__ndk1::function<void (std::__ndk1::error_code const&)>&, std::__ndk1::placeholders::__ph<1> const&>, std::__ndk1::allocator<std::__ndk1::__bind<void (websocketpp::transport::asio::connection<websocketpp::config::asio_client::transport_config>::*)(std::__ndk1::shared_ptr<asio::basic_waitable_timer<std::__ndk1::chrono::steady_clock, asio::wait_traits<std::__ndk1::chrono::steady_clock> > >, std::__ndk1::function<void (std::__ndk1::error_code const&)>, std::__ndk1::error_code const&), std::__ndk1::shared_ptr<websocketpp::transport::asio::connection<websocketpp::config::asio_client::transport_config> >, std::__ndk1::shared_ptr<asio::basic_waitable_timer<std::__ndk1::chrono::steady_clock, asio::wait_traits<std::__ndk1::chrono::steady_clock> > >&, std::__ndk1::function<void (std::__ndk1::error_code const&)>&, std::__ndk1::placeholders::__ph<1> const&> >, void (std::__ndk1::error_code const&)>::destroy_deallocate()
PUBLIC faee4 0 std::__ndk1::__function::__func<std::__ndk1::__bind<void (websocketpp::transport::asio::connection<websocketpp::config::asio_client::transport_config>::*)(std::__ndk1::shared_ptr<asio::basic_waitable_timer<std::__ndk1::chrono::steady_clock, asio::wait_traits<std::__ndk1::chrono::steady_clock> > >, std::__ndk1::function<void (std::__ndk1::error_code const&)>, std::__ndk1::error_code const&), std::__ndk1::shared_ptr<websocketpp::transport::asio::connection<websocketpp::config::asio_client::transport_config> >, std::__ndk1::shared_ptr<asio::basic_waitable_timer<std::__ndk1::chrono::steady_clock, asio::wait_traits<std::__ndk1::chrono::steady_clock> > >&, std::__ndk1::function<void (std::__ndk1::error_code const&)>&, std::__ndk1::placeholders::__ph<1> const&>, std::__ndk1::allocator<std::__ndk1::__bind<void (websocketpp::transport::asio::connection<websocketpp::config::asio_client::transport_config>::*)(std::__ndk1::shared_ptr<asio::basic_waitable_timer<std::__ndk1::chrono::steady_clock, asio::wait_traits<std::__ndk1::chrono::steady_clock> > >, std::__ndk1::function<void (std::__ndk1::error_code const&)>, std::__ndk1::error_code const&), std::__ndk1::shared_ptr<websocketpp::transport::asio::connection<websocketpp::config::asio_client::transport_config> >, std::__ndk1::shared_ptr<asio::basic_waitable_timer<std::__ndk1::chrono::steady_clock, asio::wait_traits<std::__ndk1::chrono::steady_clock> > >&, std::__ndk1::function<void (std::__ndk1::error_code const&)>&, std::__ndk1::placeholders::__ph<1> const&> >, void (std::__ndk1::error_code const&)>::operator()(std::__ndk1::error_code const&)
PUBLIC faf00 0 std::__ndk1::__function::__func<std::__ndk1::__bind<void (websocketpp::transport::asio::connection<websocketpp::config::asio_client::transport_config>::*)(std::__ndk1::shared_ptr<asio::basic_waitable_timer<std::__ndk1::chrono::steady_clock, asio::wait_traits<std::__ndk1::chrono::steady_clock> > >, std::__ndk1::function<void (std::__ndk1::error_code const&)>, std::__ndk1::error_code const&), std::__ndk1::shared_ptr<websocketpp::transport::asio::connection<websocketpp::config::asio_client::transport_config> >, std::__ndk1::shared_ptr<asio::basic_waitable_timer<std::__ndk1::chrono::steady_clock, asio::wait_traits<std::__ndk1::chrono::steady_clock> > >&, std::__ndk1::function<void (std::__ndk1::error_code const&)>&, std::__ndk1::placeholders::__ph<1> const&>, std::__ndk1::allocator<std::__ndk1::__bind<void (websocketpp::transport::asio::connection<websocketpp::config::asio_client::transport_config>::*)(std::__ndk1::shared_ptr<asio::basic_waitable_timer<std::__ndk1::chrono::steady_clock, asio::wait_traits<std::__ndk1::chrono::steady_clock> > >, std::__ndk1::function<void (std::__ndk1::error_code const&)>, std::__ndk1::error_code const&), std::__ndk1::shared_ptr<websocketpp::transport::asio::connection<websocketpp::config::asio_client::transport_config> >, std::__ndk1::shared_ptr<asio::basic_waitable_timer<std::__ndk1::chrono::steady_clock, asio::wait_traits<std::__ndk1::chrono::steady_clock> > >&, std::__ndk1::function<void (std::__ndk1::error_code const&)>&, std::__ndk1::placeholders::__ph<1> const&> >, void (std::__ndk1::error_code const&)>::target(std::type_info const&) const
PUBLIC faf1c 0 std::__ndk1::__function::__func<std::__ndk1::__bind<void (websocketpp::transport::asio::connection<websocketpp::config::asio_client::transport_config>::*)(std::__ndk1::shared_ptr<asio::basic_waitable_timer<std::__ndk1::chrono::steady_clock, asio::wait_traits<std::__ndk1::chrono::steady_clock> > >, std::__ndk1::function<void (std::__ndk1::error_code const&)>, std::__ndk1::error_code const&), std::__ndk1::shared_ptr<websocketpp::transport::asio::connection<websocketpp::config::asio_client::transport_config> >, std::__ndk1::shared_ptr<asio::basic_waitable_timer<std::__ndk1::chrono::steady_clock, asio::wait_traits<std::__ndk1::chrono::steady_clock> > >&, std::__ndk1::function<void (std::__ndk1::error_code const&)>&, std::__ndk1::placeholders::__ph<1> const&>, std::__ndk1::allocator<std::__ndk1::__bind<void (websocketpp::transport::asio::connection<websocketpp::config::asio_client::transport_config>::*)(std::__ndk1::shared_ptr<asio::basic_waitable_timer<std::__ndk1::chrono::steady_clock, asio::wait_traits<std::__ndk1::chrono::steady_clock> > >, std::__ndk1::function<void (std::__ndk1::error_code const&)>, std::__ndk1::error_code const&), std::__ndk1::shared_ptr<websocketpp::transport::asio::connection<websocketpp::config::asio_client::transport_config> >, std::__ndk1::shared_ptr<asio::basic_waitable_timer<std::__ndk1::chrono::steady_clock, asio::wait_traits<std::__ndk1::chrono::steady_clock> > >&, std::__ndk1::function<void (std::__ndk1::error_code const&)>&, std::__ndk1::placeholders::__ph<1> const&> >, void (std::__ndk1::error_code const&)>::target_type() const
PUBLIC faf28 0 std::__ndk1::__function::__func<std::__ndk1::__bind<void (websocketpp::connection<websocketpp::config::asio_client>::*)(websocketpp::connection<websocketpp::config::asio_client>::terminate_status, std::__ndk1::error_code const&), std::__ndk1::shared_ptr<websocketpp::connection<websocketpp::config::asio_client> >, websocketpp::connection<websocketpp::config::asio_client>&::terminate_status, std::__ndk1::placeholders::__ph<1> const&>, std::__ndk1::allocator<std::__ndk1::__bind<void (websocketpp::connection<websocketpp::config::asio_client>::*)(websocketpp::connection<websocketpp::config::asio_client>::terminate_status, std::__ndk1::error_code const&), std::__ndk1::shared_ptr<websocketpp::connection<websocketpp::config::asio_client> >, websocketpp::connection<websocketpp::config::asio_client>&::terminate_status, std::__ndk1::placeholders::__ph<1> const&> >, void (std::__ndk1::error_code const&)>::~__func()
PUBLIC faf84 0 std::__ndk1::__function::__func<std::__ndk1::__bind<void (websocketpp::connection<websocketpp::config::asio_client>::*)(websocketpp::connection<websocketpp::config::asio_client>::terminate_status, std::__ndk1::error_code const&), std::__ndk1::shared_ptr<websocketpp::connection<websocketpp::config::asio_client> >, websocketpp::connection<websocketpp::config::asio_client>&::terminate_status, std::__ndk1::placeholders::__ph<1> const&>, std::__ndk1::allocator<std::__ndk1::__bind<void (websocketpp::connection<websocketpp::config::asio_client>::*)(websocketpp::connection<websocketpp::config::asio_client>::terminate_status, std::__ndk1::error_code const&), std::__ndk1::shared_ptr<websocketpp::connection<websocketpp::config::asio_client> >, websocketpp::connection<websocketpp::config::asio_client>&::terminate_status, std::__ndk1::placeholders::__ph<1> const&> >, void (std::__ndk1::error_code const&)>::~__func()
PUBLIC faff0 0 std::__ndk1::__function::__func<std::__ndk1::__bind<void (websocketpp::connection<websocketpp::config::asio_client>::*)(websocketpp::connection<websocketpp::config::asio_client>::terminate_status, std::__ndk1::error_code const&), std::__ndk1::shared_ptr<websocketpp::connection<websocketpp::config::asio_client> >, websocketpp::connection<websocketpp::config::asio_client>&::terminate_status, std::__ndk1::placeholders::__ph<1> const&>, std::__ndk1::allocator<std::__ndk1::__bind<void (websocketpp::connection<websocketpp::config::asio_client>::*)(websocketpp::connection<websocketpp::config::asio_client>::terminate_status, std::__ndk1::error_code const&), std::__ndk1::shared_ptr<websocketpp::connection<websocketpp::config::asio_client> >, websocketpp::connection<websocketpp::config::asio_client>&::terminate_status, std::__ndk1::placeholders::__ph<1> const&> >, void (std::__ndk1::error_code const&)>::__clone() const
PUBLIC fb050 0 std::__ndk1::__function::__func<std::__ndk1::__bind<void (websocketpp::connection<websocketpp::config::asio_client>::*)(websocketpp::connection<websocketpp::config::asio_client>::terminate_status, std::__ndk1::error_code const&), std::__ndk1::shared_ptr<websocketpp::connection<websocketpp::config::asio_client> >, websocketpp::connection<websocketpp::config::asio_client>&::terminate_status, std::__ndk1::placeholders::__ph<1> const&>, std::__ndk1::allocator<std::__ndk1::__bind<void (websocketpp::connection<websocketpp::config::asio_client>::*)(websocketpp::connection<websocketpp::config::asio_client>::terminate_status, std::__ndk1::error_code const&), std::__ndk1::shared_ptr<websocketpp::connection<websocketpp::config::asio_client> >, websocketpp::connection<websocketpp::config::asio_client>&::terminate_status, std::__ndk1::placeholders::__ph<1> const&> >, void (std::__ndk1::error_code const&)>::__clone(std::__ndk1::__function::__base<void (std::__ndk1::error_code const&)>*) const
PUBLIC fb0a4 0 std::__ndk1::__function::__func<std::__ndk1::__bind<void (websocketpp::connection<websocketpp::config::asio_client>::*)(websocketpp::connection<websocketpp::config::asio_client>::terminate_status, std::__ndk1::error_code const&), std::__ndk1::shared_ptr<websocketpp::connection<websocketpp::config::asio_client> >, websocketpp::connection<websocketpp::config::asio_client>&::terminate_status, std::__ndk1::placeholders::__ph<1> const&>, std::__ndk1::allocator<std::__ndk1::__bind<void (websocketpp::connection<websocketpp::config::asio_client>::*)(websocketpp::connection<websocketpp::config::asio_client>::terminate_status, std::__ndk1::error_code const&), std::__ndk1::shared_ptr<websocketpp::connection<websocketpp::config::asio_client> >, websocketpp::connection<websocketpp::config::asio_client>&::terminate_status, std::__ndk1::placeholders::__ph<1> const&> >, void (std::__ndk1::error_code const&)>::destroy()
PUBLIC fb0f4 0 std::__ndk1::__function::__func<std::__ndk1::__bind<void (websocketpp::connection<websocketpp::config::asio_client>::*)(websocketpp::connection<websocketpp::config::asio_client>::terminate_status, std::__ndk1::error_code const&), std::__ndk1::shared_ptr<websocketpp::connection<websocketpp::config::asio_client> >, websocketpp::connection<websocketpp::config::asio_client>&::terminate_status, std::__ndk1::placeholders::__ph<1> const&>, std::__ndk1::allocator<std::__ndk1::__bind<void (websocketpp::connection<websocketpp::config::asio_client>::*)(websocketpp::connection<websocketpp::config::asio_client>::terminate_status, std::__ndk1::error_code const&), std::__ndk1::shared_ptr<websocketpp::connection<websocketpp::config::asio_client> >, websocketpp::connection<websocketpp::config::asio_client>&::terminate_status, std::__ndk1::placeholders::__ph<1> const&> >, void (std::__ndk1::error_code const&)>::destroy_deallocate()
PUBLIC fb154 0 std::__ndk1::__function::__func<std::__ndk1::__bind<void (websocketpp::connection<websocketpp::config::asio_client>::*)(websocketpp::connection<websocketpp::config::asio_client>::terminate_status, std::__ndk1::error_code const&), std::__ndk1::shared_ptr<websocketpp::connection<websocketpp::config::asio_client> >, websocketpp::connection<websocketpp::config::asio_client>&::terminate_status, std::__ndk1::placeholders::__ph<1> const&>, std::__ndk1::allocator<std::__ndk1::__bind<void (websocketpp::connection<websocketpp::config::asio_client>::*)(websocketpp::connection<websocketpp::config::asio_client>::terminate_status, std::__ndk1::error_code const&), std::__ndk1::shared_ptr<websocketpp::connection<websocketpp::config::asio_client> >, websocketpp::connection<websocketpp::config::asio_client>&::terminate_status, std::__ndk1::placeholders::__ph<1> const&> >, void (std::__ndk1::error_code const&)>::operator()(std::__ndk1::error_code const&)
PUBLIC fb17c 0 std::__ndk1::__function::__func<std::__ndk1::__bind<void (websocketpp::connection<websocketpp::config::asio_client>::*)(websocketpp::connection<websocketpp::config::asio_client>::terminate_status, std::__ndk1::error_code const&), std::__ndk1::shared_ptr<websocketpp::connection<websocketpp::config::asio_client> >, websocketpp::connection<websocketpp::config::asio_client>&::terminate_status, std::__ndk1::placeholders::__ph<1> const&>, std::__ndk1::allocator<std::__ndk1::__bind<void (websocketpp::connection<websocketpp::config::asio_client>::*)(websocketpp::connection<websocketpp::config::asio_client>::terminate_status, std::__ndk1::error_code const&), std::__ndk1::shared_ptr<websocketpp::connection<websocketpp::config::asio_client> >, websocketpp::connection<websocketpp::config::asio_client>&::terminate_status, std::__ndk1::placeholders::__ph<1> const&> >, void (std::__ndk1::error_code const&)>::target(std::type_info const&) const
PUBLIC fb198 0 std::__ndk1::__function::__func<std::__ndk1::__bind<void (websocketpp::connection<websocketpp::config::asio_client>::*)(websocketpp::connection<websocketpp::config::asio_client>::terminate_status, std::__ndk1::error_code const&), std::__ndk1::shared_ptr<websocketpp::connection<websocketpp::config::asio_client> >, websocketpp::connection<websocketpp::config::asio_client>&::terminate_status, std::__ndk1::placeholders::__ph<1> const&>, std::__ndk1::allocator<std::__ndk1::__bind<void (websocketpp::connection<websocketpp::config::asio_client>::*)(websocketpp::connection<websocketpp::config::asio_client>::terminate_status, std::__ndk1::error_code const&), std::__ndk1::shared_ptr<websocketpp::connection<websocketpp::config::asio_client> >, websocketpp::connection<websocketpp::config::asio_client>&::terminate_status, std::__ndk1::placeholders::__ph<1> const&> >, void (std::__ndk1::error_code const&)>::target_type() const
PUBLIC fb1a4 0 websocketpp::connection<websocketpp::config::asio_client>::send_close_frame(unsigned short, std::__ndk1::basic_string<char, std::__ndk1::char_traits<char>, std::__ndk1::allocator<char> > const&, bool, bool)
PUBLIC fba4c 0 websocketpp::connection<websocketpp::config::asio_client>::handle_close_handshake_timeout(std::__ndk1::error_code const&)
PUBLIC fbce4 0 std::__ndk1::__bind<void (websocketpp::connection<websocketpp::config::asio_client>::*)(std::__ndk1::error_code const&), std::__ndk1::shared_ptr<websocketpp::connection<websocketpp::config::asio_client> >, std::__ndk1::placeholders::__ph<1> const&>::~__bind()
PUBLIC fbd34 0 websocketpp::connection<websocketpp::config::asio_client>::write_push(std::__ndk1::shared_ptr<websocketpp::message_buffer::message<websocketpp::message_buffer::alloc::con_msg_manager> >)
PUBLIC fc614 0 websocketpp::transport::asio::connection<websocketpp::config::asio_client::transport_config>::dispatch(std::__ndk1::function<void ()>)
PUBLIC fc938 0 websocketpp::connection<websocketpp::config::asio_client>::write_frame()
PUBLIC fdb04 0 std::__ndk1::__bind<void (websocketpp::connection<websocketpp::config::asio_client>::*)(), std::__ndk1::shared_ptr<websocketpp::connection<websocketpp::config::asio_client> > >::~__bind()
PUBLIC fdb54 0 std::__ndk1::__shared_ptr_emplace<websocketpp::message_buffer::message<websocketpp::message_buffer::alloc::con_msg_manager>, std::__ndk1::allocator<websocketpp::message_buffer::message<websocketpp::message_buffer::alloc::con_msg_manager> > >::~__shared_ptr_emplace()
PUBLIC fdb64 0 std::__ndk1::__shared_ptr_emplace<websocketpp::message_buffer::message<websocketpp::message_buffer::alloc::con_msg_manager>, std::__ndk1::allocator<websocketpp::message_buffer::message<websocketpp::message_buffer::alloc::con_msg_manager> > >::~__shared_ptr_emplace()
PUBLIC fdb94 0 std::__ndk1::__shared_ptr_emplace<websocketpp::message_buffer::message<websocketpp::message_buffer::alloc::con_msg_manager>, std::__ndk1::allocator<websocketpp::message_buffer::message<websocketpp::message_buffer::alloc::con_msg_manager> > >::__on_zero_shared()
PUBLIC fdc0c 0 std::__ndk1::__shared_ptr_emplace<websocketpp::message_buffer::message<websocketpp::message_buffer::alloc::con_msg_manager>, std::__ndk1::allocator<websocketpp::message_buffer::message<websocketpp::message_buffer::alloc::con_msg_manager> > >::__on_zero_shared_weak()
PUBLIC fdc10 0 std::__ndk1::__function::__func<std::__ndk1::__bind<void (websocketpp::connection<websocketpp::config::asio_client>::*)(std::__ndk1::error_code const&), std::__ndk1::shared_ptr<websocketpp::connection<websocketpp::config::asio_client> >, std::__ndk1::placeholders::__ph<1> const&>, std::__ndk1::allocator<std::__ndk1::__bind<void (websocketpp::connection<websocketpp::config::asio_client>::*)(std::__ndk1::error_code const&), std::__ndk1::shared_ptr<websocketpp::connection<websocketpp::config::asio_client> >, std::__ndk1::placeholders::__ph<1> const&> >, void (std::__ndk1::error_code const&)>::~__func()
PUBLIC fdc6c 0 std::__ndk1::__function::__func<std::__ndk1::__bind<void (websocketpp::connection<websocketpp::config::asio_client>::*)(std::__ndk1::error_code const&), std::__ndk1::shared_ptr<websocketpp::connection<websocketpp::config::asio_client> >, std::__ndk1::placeholders::__ph<1> const&>, std::__ndk1::allocator<std::__ndk1::__bind<void (websocketpp::connection<websocketpp::config::asio_client>::*)(std::__ndk1::error_code const&), std::__ndk1::shared_ptr<websocketpp::connection<websocketpp::config::asio_client> >, std::__ndk1::placeholders::__ph<1> const&> >, void (std::__ndk1::error_code const&)>::~__func()
PUBLIC fdcd8 0 std::__ndk1::__function::__func<std::__ndk1::__bind<void (websocketpp::connection<websocketpp::config::asio_client>::*)(std::__ndk1::error_code const&), std::__ndk1::shared_ptr<websocketpp::connection<websocketpp::config::asio_client> >, std::__ndk1::placeholders::__ph<1> const&>, std::__ndk1::allocator<std::__ndk1::__bind<void (websocketpp::connection<websocketpp::config::asio_client>::*)(std::__ndk1::error_code const&), std::__ndk1::shared_ptr<websocketpp::connection<websocketpp::config::asio_client> >, std::__ndk1::placeholders::__ph<1> const&> >, void (std::__ndk1::error_code const&)>::__clone() const
PUBLIC fdd30 0 std::__ndk1::__function::__func<std::__ndk1::__bind<void (websocketpp::connection<websocketpp::config::asio_client>::*)(std::__ndk1::error_code const&), std::__ndk1::shared_ptr<websocketpp::connection<websocketpp::config::asio_client> >, std::__ndk1::placeholders::__ph<1> const&>, std::__ndk1::allocator<std::__ndk1::__bind<void (websocketpp::connection<websocketpp::config::asio_client>::*)(std::__ndk1::error_code const&), std::__ndk1::shared_ptr<websocketpp::connection<websocketpp::config::asio_client> >, std::__ndk1::placeholders::__ph<1> const&> >, void (std::__ndk1::error_code const&)>::__clone(std::__ndk1::__function::__base<void (std::__ndk1::error_code const&)>*) const
PUBLIC fdd6c 0 std::__ndk1::__function::__func<std::__ndk1::__bind<void (websocketpp::connection<websocketpp::config::asio_client>::*)(std::__ndk1::error_code const&), std::__ndk1::shared_ptr<websocketpp::connection<websocketpp::config::asio_client> >, std::__ndk1::placeholders::__ph<1> const&>, std::__ndk1::allocator<std::__ndk1::__bind<void (websocketpp::connection<websocketpp::config::asio_client>::*)(std::__ndk1::error_code const&), std::__ndk1::shared_ptr<websocketpp::connection<websocketpp::config::asio_client> >, std::__ndk1::placeholders::__ph<1> const&> >, void (std::__ndk1::error_code const&)>::destroy()
PUBLIC fddbc 0 std::__ndk1::__function::__func<std::__ndk1::__bind<void (websocketpp::connection<websocketpp::config::asio_client>::*)(std::__ndk1::error_code const&), std::__ndk1::shared_ptr<websocketpp::connection<websocketpp::config::asio_client> >, std::__ndk1::placeholders::__ph<1> const&>, std::__ndk1::allocator<std::__ndk1::__bind<void (websocketpp::connection<websocketpp::config::asio_client>::*)(std::__ndk1::error_code const&), std::__ndk1::shared_ptr<websocketpp::connection<websocketpp::config::asio_client> >, std::__ndk1::placeholders::__ph<1> const&> >, void (std::__ndk1::error_code const&)>::destroy_deallocate()
PUBLIC fde1c 0 std::__ndk1::__function::__func<std::__ndk1::__bind<void (websocketpp::connection<websocketpp::config::asio_client>::*)(std::__ndk1::error_code const&), std::__ndk1::shared_ptr<websocketpp::connection<websocketpp::config::asio_client> >, std::__ndk1::placeholders::__ph<1> const&>, std::__ndk1::allocator<std::__ndk1::__bind<void (websocketpp::connection<websocketpp::config::asio_client>::*)(std::__ndk1::error_code const&), std::__ndk1::shared_ptr<websocketpp::connection<websocketpp::config::asio_client> >, std::__ndk1::placeholders::__ph<1> const&> >, void (std::__ndk1::error_code const&)>::operator()(std::__ndk1::error_code const&)
PUBLIC fde38 0 std::__ndk1::__function::__func<std::__ndk1::__bind<void (websocketpp::connection<websocketpp::config::asio_client>::*)(std::__ndk1::error_code const&), std::__ndk1::shared_ptr<websocketpp::connection<websocketpp::config::asio_client> >, std::__ndk1::placeholders::__ph<1> const&>, std::__ndk1::allocator<std::__ndk1::__bind<void (websocketpp::connection<websocketpp::config::asio_client>::*)(std::__ndk1::error_code const&), std::__ndk1::shared_ptr<websocketpp::connection<websocketpp::config::asio_client> >, std::__ndk1::placeholders::__ph<1> const&> >, void (std::__ndk1::error_code const&)>::target(std::type_info const&) const
PUBLIC fde54 0 std::__ndk1::__function::__func<std::__ndk1::__bind<void (websocketpp::connection<websocketpp::config::asio_client>::*)(std::__ndk1::error_code const&), std::__ndk1::shared_ptr<websocketpp::connection<websocketpp::config::asio_client> >, std::__ndk1::placeholders::__ph<1> const&>, std::__ndk1::allocator<std::__ndk1::__bind<void (websocketpp::connection<websocketpp::config::asio_client>::*)(std::__ndk1::error_code const&), std::__ndk1::shared_ptr<websocketpp::connection<websocketpp::config::asio_client> >, std::__ndk1::placeholders::__ph<1> const&> >, void (std::__ndk1::error_code const&)>::target_type() const
PUBLIC fde60 0 asio::detail::completion_handler<asio::detail::wrapped_handler<asio::io_context::strand, std::__ndk1::function<void ()>, asio::detail::is_continuation_if_running> >::ptr::~ptr()
PUBLIC m fdf04 0 asio::detail::completion_handler<asio::detail::wrapped_handler<asio::io_context::strand, std::__ndk1::function<void ()>, asio::detail::is_continuation_if_running> >::do_complete(void*, asio::detail::scheduler_operation*, std::__ndk1::error_code const&, unsigned long)
PUBLIC fe490 0 asio::detail::rewrapped_handler<asio::detail::wrapped_handler<asio::io_context::strand, std::__ndk1::function<void ()>, asio::detail::is_continuation_if_running>, std::__ndk1::function<void ()> >::~rewrapped_handler()
PUBLIC m fe528 0 asio::detail::completion_handler<asio::detail::rewrapped_handler<asio::detail::wrapped_handler<asio::io_context::strand, std::__ndk1::function<void ()>, asio::detail::is_continuation_if_running>, std::__ndk1::function<void ()> > >::do_complete(void*, asio::detail::scheduler_operation*, std::__ndk1::error_code const&, unsigned long)
PUBLIC fe798 0 asio::detail::completion_handler<asio::detail::rewrapped_handler<asio::detail::wrapped_handler<asio::io_context::strand, std::__ndk1::function<void ()>, asio::detail::is_continuation_if_running>, std::__ndk1::function<void ()> > >::ptr::~ptr()
PUBLIC fe874 0 asio::detail::strand_service::dispatch<std::__ndk1::function<void ()> >(asio::detail::strand_service::strand_impl*&, std::__ndk1::function<void ()>&)
PUBLIC m feb20 0 asio::detail::completion_handler<std::__ndk1::function<void ()> >::do_complete(void*, asio::detail::scheduler_operation*, std::__ndk1::error_code const&, unsigned long)
PUBLIC fed18 0 asio::detail::completion_handler<std::__ndk1::function<void ()> >::ptr::~ptr()
PUBLIC fedbc 0 websocketpp::connection<websocketpp::config::asio_client>::write_pop()
PUBLIC ff044 0 websocketpp::utility::to_hex(std::__ndk1::basic_string<char, std::__ndk1::char_traits<char>, std::__ndk1::allocator<char> > const&)
PUBLIC ff190 0 std::__ndk1::vector<std::__ndk1::shared_ptr<websocketpp::message_buffer::message<websocketpp::message_buffer::alloc::con_msg_manager> >, std::__ndk1::allocator<std::__ndk1::shared_ptr<websocketpp::message_buffer::message<websocketpp::message_buffer::alloc::con_msg_manager> > > >::__throw_length_error[abi:ne180000]() const
PUBLIC ff1a4 0 std::__ndk1::vector<websocketpp::transport::buffer, std::__ndk1::allocator<websocketpp::transport::buffer> >::__throw_length_error[abi:ne180000]() const
PUBLIC ff1b8 0 websocketpp::transport::asio::make_custom_alloc_handler<std::__ndk1::__bind<void (websocketpp::transport::asio::connection<websocketpp::config::asio_client::transport_config>::*)(std::__ndk1::function<void (std::__ndk1::error_code const&)>, std::__ndk1::error_code const&, unsigned long), std::__ndk1::shared_ptr<websocketpp::transport::asio::connection<websocketpp::config::asio_client::transport_config> >, std::__ndk1::function<void (std::__ndk1::error_code const&)>&, std::__ndk1::placeholders::__ph<1> const&, std::__ndk1::placeholders::__ph<2> const&> >(websocketpp::transport::asio::handler_allocator&, std::__ndk1::__bind<void (websocketpp::transport::asio::connection<websocketpp::config::asio_client::transport_config>::*)(std::__ndk1::function<void (std::__ndk1::error_code const&)>, std::__ndk1::error_code const&, unsigned long), std::__ndk1::shared_ptr<websocketpp::transport::asio::connection<websocketpp::config::asio_client::transport_config> >, std::__ndk1::function<void (std::__ndk1::error_code const&)>&, std::__ndk1::placeholders::__ph<1> const&, std::__ndk1::placeholders::__ph<2> const&>)
PUBLIC ff37c 0 websocketpp::transport::asio::connection<websocketpp::config::asio_client::transport_config>::handle_async_write(std::__ndk1::function<void (std::__ndk1::error_code const&)>, std::__ndk1::error_code const&, unsigned long)
PUBLIC ff4c8 0 asio::detail::wrapped_handler<asio::io_context::strand, websocketpp::transport::asio::custom_alloc_handler<std::__ndk1::__bind<void (websocketpp::transport::asio::connection<websocketpp::config::asio_client::transport_config>::*)(std::__ndk1::function<void (std::__ndk1::error_code const&)>, std::__ndk1::error_code const&, unsigned long), std::__ndk1::shared_ptr<websocketpp::transport::asio::connection<websocketpp::config::asio_client::transport_config> >, std::__ndk1::function<void (std::__ndk1::error_code const&)>&, std::__ndk1::placeholders::__ph<1> const&, std::__ndk1::placeholders::__ph<2> const&> >, asio::detail::is_continuation_if_running>::~wrapped_handler()
PUBLIC ff54c 0 websocketpp::transport::asio::custom_alloc_handler<std::__ndk1::__bind<void (websocketpp::transport::asio::connection<websocketpp::config::asio_client::transport_config>::*)(std::__ndk1::function<void (std::__ndk1::error_code const&)>, std::__ndk1::error_code const&, unsigned long), std::__ndk1::shared_ptr<websocketpp::transport::asio::connection<websocketpp::config::asio_client::transport_config> >, std::__ndk1::function<void (std::__ndk1::error_code const&)>&, std::__ndk1::placeholders::__ph<1> const&, std::__ndk1::placeholders::__ph<2> const&> >::~custom_alloc_handler()
PUBLIC ff5d0 0 std::__ndk1::__bind<void (websocketpp::transport::asio::connection<websocketpp::config::asio_client::transport_config>::*)(std::__ndk1::function<void (std::__ndk1::error_code const&)>, std::__ndk1::error_code const&, unsigned long), std::__ndk1::shared_ptr<websocketpp::transport::asio::connection<websocketpp::config::asio_client::transport_config> >, std::__ndk1::function<void (std::__ndk1::error_code const&)>&, std::__ndk1::placeholders::__ph<1> const&, std::__ndk1::placeholders::__ph<2> const&>::~__bind()
PUBLIC ff654 0 std::__ndk1::vector<asio::const_buffer, std::__ndk1::allocator<asio::const_buffer> >::__throw_length_error[abi:ne180000]() const
PUBLIC ff668 0 asio::detail::start_write_buffer_sequence_op<asio::basic_stream_socket<asio::ip::tcp>, std::__ndk1::vector<asio::const_buffer, std::__ndk1::allocator<asio::const_buffer> >, std::__ndk1::__wrap_iter<asio::const_buffer const*>, asio::detail::transfer_all_t, asio::detail::wrapped_handler<asio::io_context::strand, websocketpp::transport::asio::custom_alloc_handler<std::__ndk1::__bind<void (websocketpp::transport::asio::connection<websocketpp::config::asio_client::transport_config>::*)(std::__ndk1::function<void (std::__ndk1::error_code const&)>, std::__ndk1::error_code const&, unsigned long), std::__ndk1::shared_ptr<websocketpp::transport::asio::connection<websocketpp::config::asio_client::transport_config> >, std::__ndk1::function<void (std::__ndk1::error_code const&)>&, std::__ndk1::placeholders::__ph<1> const&, std::__ndk1::placeholders::__ph<2> const&> >, asio::detail::is_continuation_if_running> >(asio::basic_stream_socket<asio::ip::tcp>&, std::__ndk1::vector<asio::const_buffer, std::__ndk1::allocator<asio::const_buffer> > const&, std::__ndk1::__wrap_iter<asio::const_buffer const*> const&, asio::detail::transfer_all_t, asio::detail::wrapped_handler<asio::io_context::strand, websocketpp::transport::asio::custom_alloc_handler<std::__ndk1::__bind<void (websocketpp::transport::asio::connection<websocketpp::config::asio_client::transport_config>::*)(std::__ndk1::function<void (std::__ndk1::error_code const&)>, std::__ndk1::error_code const&, unsigned long), std::__ndk1::shared_ptr<websocketpp::transport::asio::connection<websocketpp::config::asio_client::transport_config> >, std::__ndk1::function<void (std::__ndk1::error_code const&)>&, std::__ndk1::placeholders::__ph<1> const&, std::__ndk1::placeholders::__ph<2> const&> >, asio::detail::is_continuation_if_running>&)
PUBLIC ff8d4 0 asio::detail::write_op<asio::basic_stream_socket<asio::ip::tcp>, std::__ndk1::vector<asio::const_buffer, std::__ndk1::allocator<asio::const_buffer> >, std::__ndk1::__wrap_iter<asio::const_buffer const*>, asio::detail::transfer_all_t, asio::detail::wrapped_handler<asio::io_context::strand, websocketpp::transport::asio::custom_alloc_handler<std::__ndk1::__bind<void (websocketpp::transport::asio::connection<websocketpp::config::asio_client::transport_config>::*)(std::__ndk1::function<void (std::__ndk1::error_code const&)>, std::__ndk1::error_code const&, unsigned long), std::__ndk1::shared_ptr<websocketpp::transport::asio::connection<websocketpp::config::asio_client::transport_config> >, std::__ndk1::function<void (std::__ndk1::error_code const&)>&, std::__ndk1::placeholders::__ph<1> const&, std::__ndk1::placeholders::__ph<2> const&> >, asio::detail::is_continuation_if_running> >::operator()(std::__ndk1::error_code const&, unsigned long, int)
PUBLIC fffdc 0 asio::detail::write_op<asio::basic_stream_socket<asio::ip::tcp>, std::__ndk1::vector<asio::const_buffer, std::__ndk1::allocator<asio::const_buffer> >, std::__ndk1::__wrap_iter<asio::const_buffer const*>, asio::detail::transfer_all_t, asio::detail::wrapped_handler<asio::io_context::strand, websocketpp::transport::asio::custom_alloc_handler<std::__ndk1::__bind<void (websocketpp::transport::asio::connection<websocketpp::config::asio_client::transport_config>::*)(std::__ndk1::function<void (std::__ndk1::error_code const&)>, std::__ndk1::error_code const&, unsigned long), std::__ndk1::shared_ptr<websocketpp::transport::asio::connection<websocketpp::config::asio_client::transport_config> >, std::__ndk1::function<void (std::__ndk1::error_code const&)>&, std::__ndk1::placeholders::__ph<1> const&, std::__ndk1::placeholders::__ph<2> const&> >, asio::detail::is_continuation_if_running> >::~write_op()
PUBLIC 100078 0 asio::detail::reactive_socket_send_op<asio::detail::prepared_buffers<asio::const_buffer>, asio::detail::write_op<asio::basic_stream_socket<asio::ip::tcp>, std::__ndk1::vector<asio::const_buffer, std::__ndk1::allocator<asio::const_buffer> >, std::__ndk1::__wrap_iter<asio::const_buffer const*>, asio::detail::transfer_all_t, asio::detail::wrapped_handler<asio::io_context::strand, websocketpp::transport::asio::custom_alloc_handler<std::__ndk1::__bind<void (websocketpp::transport::asio::connection<websocketpp::config::asio_client::transport_config>::*)(std::__ndk1::function<void (std::__ndk1::error_code const&)>, std::__ndk1::error_code const&, unsigned long), std::__ndk1::shared_ptr<websocketpp::transport::asio::connection<websocketpp::config::asio_client::transport_config> >, std::__ndk1::function<void (std::__ndk1::error_code const&)>&, std::__ndk1::placeholders::__ph<1> const&, std::__ndk1::placeholders::__ph<2> const&> >, asio::detail::is_continuation_if_running> > >::do_complete(void*, asio::detail::scheduler_operation*, std::__ndk1::error_code const&, unsigned long)
PUBLIC 1006e8 0 asio::detail::write_op<asio::basic_stream_socket<asio::ip::tcp>, std::__ndk1::vector<asio::const_buffer, std::__ndk1::allocator<asio::const_buffer> >, std::__ndk1::__wrap_iter<asio::const_buffer const*>, asio::detail::transfer_all_t, asio::detail::wrapped_handler<asio::io_context::strand, websocketpp::transport::asio::custom_alloc_handler<std::__ndk1::__bind<void (websocketpp::transport::asio::connection<websocketpp::config::asio_client::transport_config>::*)(std::__ndk1::function<void (std::__ndk1::error_code const&)>, std::__ndk1::error_code const&, unsigned long), std::__ndk1::shared_ptr<websocketpp::transport::asio::connection<websocketpp::config::asio_client::transport_config> >, std::__ndk1::function<void (std::__ndk1::error_code const&)>&, std::__ndk1::placeholders::__ph<1> const&, std::__ndk1::placeholders::__ph<2> const&> >, asio::detail::is_continuation_if_running> >::write_op(asio::detail::write_op<asio::basic_stream_socket<asio::ip::tcp>, std::__ndk1::vector<asio::const_buffer, std::__ndk1::allocator<asio::const_buffer> >, std::__ndk1::__wrap_iter<asio::const_buffer const*>, asio::detail::transfer_all_t, asio::detail::wrapped_handler<asio::io_context::strand, websocketpp::transport::asio::custom_alloc_handler<std::__ndk1::__bind<void (websocketpp::transport::asio::connection<websocketpp::config::asio_client::transport_config>::*)(std::__ndk1::function<void (std::__ndk1::error_code const&)>, std::__ndk1::error_code const&, unsigned long), std::__ndk1::shared_ptr<websocketpp::transport::asio::connection<websocketpp::config::asio_client::transport_config> >, std::__ndk1::function<void (std::__ndk1::error_code const&)>&, std::__ndk1::placeholders::__ph<1> const&, std::__ndk1::placeholders::__ph<2> const&> >, asio::detail::is_continuation_if_running> >&&)
PUBLIC 100814 0 asio::detail::reactive_socket_send_op<asio::detail::prepared_buffers<asio::const_buffer>, asio::detail::write_op<asio::basic_stream_socket<asio::ip::tcp>, std::__ndk1::vector<asio::const_buffer, std::__ndk1::allocator<asio::const_buffer> >, std::__ndk1::__wrap_iter<asio::const_buffer const*>, asio::detail::transfer_all_t, asio::detail::wrapped_handler<asio::io_context::strand, websocketpp::transport::asio::custom_alloc_handler<std::__ndk1::__bind<void (websocketpp::transport::asio::connection<websocketpp::config::asio_client::transport_config>::*)(std::__ndk1::function<void (std::__ndk1::error_code const&)>, std::__ndk1::error_code const&, unsigned long), std::__ndk1::shared_ptr<websocketpp::transport::asio::connection<websocketpp::config::asio_client::transport_config> >, std::__ndk1::function<void (std::__ndk1::error_code const&)>&, std::__ndk1::placeholders::__ph<1> const&, std::__ndk1::placeholders::__ph<2> const&> >, asio::detail::is_continuation_if_running> > >::ptr::reset()
PUBLIC 1008dc 0 asio::detail::binder2<asio::detail::write_op<asio::basic_stream_socket<asio::ip::tcp>, std::__ndk1::vector<asio::const_buffer, std::__ndk1::allocator<asio::const_buffer> >, std::__ndk1::__wrap_iter<asio::const_buffer const*>, asio::detail::transfer_all_t, asio::detail::wrapped_handler<asio::io_context::strand, websocketpp::transport::asio::custom_alloc_handler<std::__ndk1::__bind<void (websocketpp::transport::asio::connection<websocketpp::config::asio_client::transport_config>::*)(std::__ndk1::function<void (std::__ndk1::error_code const&)>, std::__ndk1::error_code const&, unsigned long), std::__ndk1::shared_ptr<websocketpp::transport::asio::connection<websocketpp::config::asio_client::transport_config> >, std::__ndk1::function<void (std::__ndk1::error_code const&)>&, std::__ndk1::placeholders::__ph<1> const&, std::__ndk1::placeholders::__ph<2> const&> >, asio::detail::is_continuation_if_running> >, std::__ndk1::error_code, unsigned long>::~binder2()
PUBLIC 100978 0 asio::detail::rewrapped_handler<asio::detail::binder2<asio::detail::write_op<asio::basic_stream_socket<asio::ip::tcp>, std::__ndk1::vector<asio::const_buffer, std::__ndk1::allocator<asio::const_buffer> >, std::__ndk1::__wrap_iter<asio::const_buffer const*>, asio::detail::transfer_all_t, asio::detail::wrapped_handler<asio::io_context::strand, websocketpp::transport::asio::custom_alloc_handler<std::__ndk1::__bind<void (websocketpp::transport::asio::connection<websocketpp::config::asio_client::transport_config>::*)(std::__ndk1::function<void (std::__ndk1::error_code const&)>, std::__ndk1::error_code const&, unsigned long), std::__ndk1::shared_ptr<websocketpp::transport::asio::connection<websocketpp::config::asio_client::transport_config> >, std::__ndk1::function<void (std::__ndk1::error_code const&)>&, std::__ndk1::placeholders::__ph<1> const&, std::__ndk1::placeholders::__ph<2> const&> >, asio::detail::is_continuation_if_running> >, std::__ndk1::error_code, unsigned long>, websocketpp::transport::asio::custom_alloc_handler<std::__ndk1::__bind<void (websocketpp::transport::asio::connection<websocketpp::config::asio_client::transport_config>::*)(std::__ndk1::function<void (std::__ndk1::error_code const&)>, std::__ndk1::error_code const&, unsigned long), std::__ndk1::shared_ptr<websocketpp::transport::asio::connection<websocketpp::config::asio_client::transport_config> >, std::__ndk1::function<void (std::__ndk1::error_code const&)>&, std::__ndk1::placeholders::__ph<1> const&, std::__ndk1::placeholders::__ph<2> const&> > >::~rewrapped_handler()
PUBLIC 100a6c 0 asio::detail::completion_handler<asio::detail::rewrapped_handler<asio::detail::binder2<asio::detail::write_op<asio::basic_stream_socket<asio::ip::tcp>, std::__ndk1::vector<asio::const_buffer, std::__ndk1::allocator<asio::const_buffer> >, std::__ndk1::__wrap_iter<asio::const_buffer const*>, asio::detail::transfer_all_t, asio::detail::wrapped_handler<asio::io_context::strand, websocketpp::transport::asio::custom_alloc_handler<std::__ndk1::__bind<void (websocketpp::transport::asio::connection<websocketpp::config::asio_client::transport_config>::*)(std::__ndk1::function<void (std::__ndk1::error_code const&)>, std::__ndk1::error_code const&, unsigned long), std::__ndk1::shared_ptr<websocketpp::transport::asio::connection<websocketpp::config::asio_client::transport_config> >, std::__ndk1::function<void (std::__ndk1::error_code const&)>&, std::__ndk1::placeholders::__ph<1> const&, std::__ndk1::placeholders::__ph<2> const&> >, asio::detail::is_continuation_if_running> >, std::__ndk1::error_code, unsigned long>, websocketpp::transport::asio::custom_alloc_handler<std::__ndk1::__bind<void (websocketpp::transport::asio::connection<websocketpp::config::asio_client::transport_config>::*)(std::__ndk1::function<void (std::__ndk1::error_code const&)>, std::__ndk1::error_code const&, unsigned long), std::__ndk1::shared_ptr<websocketpp::transport::asio::connection<websocketpp::config::asio_client::transport_config> >, std::__ndk1::function<void (std::__ndk1::error_code const&)>&, std::__ndk1::placeholders::__ph<1> const&, std::__ndk1::placeholders::__ph<2> const&> > > >::do_complete(void*, asio::detail::scheduler_operation*, std::__ndk1::error_code const&, unsigned long)
