MODULE Linux arm64 B27EA6C0E9706CD7B3871C8E46512BBF0 sawblade.song_trash_can.android64.so
INFO CODE_ID C0A67EB270E9D76CB3871C8E46512BBF77153A85
INFO GENERATOR mozilla/dump_syms 2.3.4
PUBLIC 14c70 0 __on_dlclose
PUBLIC 14c80 0 __emutls_unregister_key
PUBLIC 14c88 0 __on_dlclose_late
PUBLIC 14c90 0 __atexit_handler_wrapper
PUBLIC 14ca4 0 atexit
PUBLIC 14cc0 0 pthread_atfork
PUBLIC 14cd0 0 __aarch64_ldadd8_relax
PUBLIC 14d00 0 init_have_lse_atomics
PUBLIC 14d98 0 __init_cpu_features_constructor
PUBLIC 15334 0 __init_cpu_features
PUBLIC 153c0 0 __aarch64_ldadd8_acq_rel
PUBLIC 153f0 0 std::__ndk1::unordered_set<int, std::__ndk1::hash<int>, std::__ndk1::equal_to<int>, std::__ndk1::allocator<int> >::~unordered_set[abi:ne180000]()
PUBLIC 1543c 0 Button::getAndDeleteAudio(bool, std::__ndk1::basic_string<char, std::__ndk1::char_traits<char>, std::__ndk1::allocator<char> >, std::__ndk1::basic_string<char, std::__ndk1::char_traits<char>, std::__ndk1::allocator<char> >)
PUBLIC 15ff0 0 std::__ndk1::vector<std::__ndk1::basic_string<char, std::__ndk1::char_traits<char>, std::__ndk1::allocator<char> >, std::__ndk1::allocator<std::__ndk1::basic_string<char, std::__ndk1::char_traits<char>, std::__ndk1::allocator<char> > > >::~vector[abi:ne180000]()
PUBLIC m 1606c 0 std::__ndk1::basic_stringstream<char, std::__ndk1::char_traits<char>, std::__ndk1::allocator<char> >::~basic_stringstream()
PUBLIC 160ec 0 Button::deleteAudio()
PUBLIC 167f8 0 Button::openSettings(cocos2d::CCObject*)
PUBLIC 16834 0 Button::button(cocos2d::CCObject*)
PUBLIC 17264 0 geode::Mod::getSettingValue<bool>(std::__ndk1::basic_string_view<char, std::__ndk1::char_traits<char> >) const
PUBLIC 17394 0 cocos2d::CCCopying::copyWithZone(cocos2d::CCZone*)
PUBLIC 1739c 0 cocos2d::CCKeyboardDelegate::keyUp(cocos2d::enumKeyCodes)
PUBLIC 173a0 0 cocos2d::CCMouseDelegate::rightKeyDown()
PUBLIC 173a4 0 cocos2d::CCMouseDelegate::rightKeyUp()
PUBLIC 173a8 0 cocos2d::CCMouseDelegate::scrollWheel(float, float)
PUBLIC 173ac 0 __cxx_global_var_init.18
PUBLIC 17830 0 geode::modifier::ModifyBase<geode::modifier::ModifyDerive<Button, LevelInfoLayer> >::~ModifyBase()
PUBLIC 17848 0 __cxx_global_var_init.19
PUBLIC 17ca4 0 __cxx_global_var_init.20
PUBLIC 18100 0 _GLOBAL__sub_I_main.cpp
PUBLIC 188e0 0 geode::modifier::ModifyBase<geode::modifier::ModifyDerive<hook315<(anonymous namespace)::hook315Parent>, CustomSongWidget> >::~ModifyBase()
PUBLIC 188f8 0 geode::modifier::ModifyBase<geode::modifier::ModifyDerive<hook342<(anonymous namespace)::hook342Parent>, CreatorLayer> >::~ModifyBase()
PUBLIC 18910 0 __clang_call_terminate
PUBLIC 18920 0 geode::modifier::FieldIntermediate<Button, LevelInfoLayer>::self()
PUBLIC 18f60 0 geode::modifier::FieldIntermediate<Button, LevelInfoLayer>::fieldDestructor(void*)
PUBLIC 18f64 0 std::__ndk1::vector<void*, std::__ndk1::allocator<void*> >::__throw_length_error[abi:ne180000]() const
PUBLIC 18f78 0 std::__ndk1::__throw_length_error[abi:ne180000](char const*)
PUBLIC 18fc8 0 std::length_error::length_error[abi:ne180000](char const*)
PUBLIC 18ff8 0 std::__throw_bad_array_new_length([abi:ne180000], void)
PUBLIC 1902c 0 std::__ndk1::vector<std::__ndk1::function<void (void*)>, std::__ndk1::allocator<std::__ndk1::function<void (void*)> > >::__throw_length_error[abi:ne180000]() const
PUBLIC 19040 0 std::__ndk1::vector<void*, std::__ndk1::allocator<void*> >::__throw_out_of_range[abi:ne180000]() const
PUBLIC 1904c 0 std::__ndk1::__throw_out_of_range[abi:ne180000](char const*)
PUBLIC 1909c 0 std::out_of_range::out_of_range[abi:ne180000](char const*)
PUBLIC 190cc 0 std::__ndk1::vector<std::__ndk1::function<void (void*)>, std::__ndk1::allocator<std::__ndk1::function<void (void*)> > >::__throw_out_of_range[abi:ne180000]() const
PUBLIC 190d8 0 std::__ndk1::__function::__base<void (void*)>::~__base()
PUBLIC 190dc 0 std::__ndk1::__function::__func<void (*)(void*), std::__ndk1::allocator<void (*)(void*)>, void (void*)>::~__func()
PUBLIC 190e0 0 std::__ndk1::__function::__func<void (*)(void*), std::__ndk1::allocator<void (*)(void*)>, void (void*)>::__clone() const
PUBLIC 19118 0 std::__ndk1::__function::__func<void (*)(void*), std::__ndk1::allocator<void (*)(void*)>, void (void*)>::__clone(std::__ndk1::__function::__base<void (void*)>*) const
PUBLIC 19130 0 std::__ndk1::__function::__func<void (*)(void*), std::__ndk1::allocator<void (*)(void*)>, void (void*)>::destroy()
PUBLIC 19134 0 std::__ndk1::__function::__func<void (*)(void*), std::__ndk1::allocator<void (*)(void*)>, void (void*)>::destroy_deallocate()
PUBLIC 19138 0 std::__ndk1::__function::__func<void (*)(void*), std::__ndk1::allocator<void (*)(void*)>, void (void*)>::operator()(void*&&)
PUBLIC 19148 0 std::__ndk1::__function::__func<void (*)(void*), std::__ndk1::allocator<void (*)(void*)>, void (void*)>::target(std::type_info const&) const
PUBLIC 19164 0 std::__ndk1::__function::__func<void (*)(void*), std::__ndk1::allocator<void (*)(void*)>, void (void*)>::target_type() const
PUBLIC 19170 0 std::__ndk1::basic_string<char, std::__ndk1::char_traits<char>, std::__ndk1::allocator<char> >::__init_copy_ctor_external(char const*, unsigned long)
PUBLIC 191f0 0 std::__ndk1::basic_string<char, std::__ndk1::char_traits<char>, std::__ndk1::allocator<char> >::__throw_length_error[abi:ne180000]() const
PUBLIC 19204 0 std::__ndk1::vector<std::__ndk1::basic_string<char, std::__ndk1::char_traits<char>, std::__ndk1::allocator<char> >, std::__ndk1::allocator<std::__ndk1::basic_string<char, std::__ndk1::char_traits<char>, std::__ndk1::allocator<char> > > >::__push_back_slow_path<std::__ndk1::basic_string<char, std::__ndk1::char_traits<char>, std::__ndk1::allocator<char> > const&>(std::__ndk1::basic_string<char, std::__ndk1::char_traits<char>, std::__ndk1::allocator<char> > const&)
PUBLIC 19428 0 std::__ndk1::__split_buffer<std::__ndk1::basic_string<char, std::__ndk1::char_traits<char>, std::__ndk1::allocator<char> >, std::__ndk1::allocator<std::__ndk1::basic_string<char, std::__ndk1::char_traits<char>, std::__ndk1::allocator<char> > >&>::~__split_buffer()
PUBLIC 19490 0 std::__ndk1::vector<std::__ndk1::basic_string<char, std::__ndk1::char_traits<char>, std::__ndk1::allocator<char> >, std::__ndk1::allocator<std::__ndk1::basic_string<char, std::__ndk1::char_traits<char>, std::__ndk1::allocator<char> > > >::__throw_length_error[abi:ne180000]() const
PUBLIC 194a4 0 std::__ndk1::basic_string<char, std::__ndk1::char_traits<char>, std::__ndk1::allocator<char> >::__assign_external(char const*, unsigned long)
PUBLIC 195cc 0 geode::Popup<Button*>::~Popup()
PUBLIC 19638 0 trashPopup::~trashPopup()
PUBLIC 196ac 0 geode::Popup<Button*>::registerWithTouchDispatcher()
PUBLIC 196d8 0 geode::Popup<Button*>::keyDown(cocos2d::enumKeyCodes)
PUBLIC 19700 0 cocos2d::CCLayerRGBA::setOpacityModifyRGB(bool)
PUBLIC 19704 0 cocos2d::CCLayerRGBA::isOpacityModifyRGB()
PUBLIC 1970c 0 trashPopup::setup(Button*)
PUBLIC 19e74 0 geode::Popup<Button*>::onClose(cocos2d::CCObject*)
PUBLIC 19fbc 0 {virtual override thunk({offset(-320)}, trashPopup::~trashPopup())}
PUBLIC 1a028 0 {virtual override thunk({offset(-320)}, trashPopup::~trashPopup())}
PUBLIC 1a09c 0 {virtual override thunk({offset(-344)}, geode::Popup<Button*>::keyDown(cocos2d::enumKeyCodes))}
PUBLIC 1a0c8 0 {virtual override thunk({offset(-408)}, cocos2d::CCLayerRGBA::setOpacityModifyRGB(bool))}
PUBLIC 1a0cc 0 {virtual override thunk({offset(-408)}, cocos2d::CCLayerRGBA::isOpacityModifyRGB())}
PUBLIC 1a0d4 0 geode::Popup<Button*>::~Popup()
PUBLIC 1a0d8 0 {virtual override thunk({offset(-320)}, geode::Popup<Button*>::~Popup())}
PUBLIC 1a144 0 {virtual override thunk({offset(-320)}, geode::Popup<Button*>::~Popup())}
PUBLIC 1a148 0 trashPopup::toggleSong(cocos2d::CCObject*)
PUBLIC 1a158 0 trashPopup::toggleSFX(cocos2d::CCObject*)
PUBLIC 1a168 0 trashPopup::onCancel(cocos2d::CCObject*)
PUBLIC 1a174 0 trashPopup::onDelete(cocos2d::CCObject*)
PUBLIC 1a1c4 0 trashPopup::openSettings(cocos2d::CCObject*)
PUBLIC 1a200 0 geode::Popup<Button*>::CloseEvent::~CloseEvent()
PUBLIC 1a260 0 geode::Popup<Button*>::CloseEvent::~CloseEvent()
PUBLIC 1a2d0 0 std::__ndk1::__shared_ptr_emplace<geode::Popup<Button*>::CloseEvent::Impl, std::__ndk1::allocator<geode::Popup<Button*>::CloseEvent::Impl> >::~__shared_ptr_emplace()
PUBLIC 1a2e0 0 std::__ndk1::__shared_ptr_emplace<geode::Popup<Button*>::CloseEvent::Impl, std::__ndk1::allocator<geode::Popup<Button*>::CloseEvent::Impl> >::~__shared_ptr_emplace()
PUBLIC 1a310 0 std::__ndk1::__shared_ptr_emplace<geode::Popup<Button*>::CloseEvent::Impl, std::__ndk1::allocator<geode::Popup<Button*>::CloseEvent::Impl> >::__on_zero_shared()
PUBLIC 1a314 0 std::__ndk1::__shared_ptr_emplace<geode::Popup<Button*>::CloseEvent::Impl, std::__ndk1::allocator<geode::Popup<Button*>::CloseEvent::Impl> >::__on_zero_shared_weak()
PUBLIC 1a318 0 std::__ndk1::__hash_table<int, std::__ndk1::hash<int>, std::__ndk1::equal_to<int>, std::__ndk1::allocator<int> >::~__hash_table()
PUBLIC 1a368 0 geode::modifier::ModifyDerive<Button, LevelInfoLayer>::apply()
PUBLIC 1ad8c 0 std::__ndk1::shared_ptr<geode::Hook>::~shared_ptr[abi:ne180000]()
PUBLIC 1addc 0 geode::impl::ResultData<geode::Hook*, std::__ndk1::basic_string<char, std::__ndk1::char_traits<char>, std::__ndk1::allocator<char> > >::~ResultData()
PUBLIC 1ae50 0 geode::modifier::ModifyBase<geode::modifier::ModifyDerive<Button, LevelInfoLayer> >::apply()
PUBLIC 1ae54 0 _ZN5geode15UnwrapExceptionC2IRPNS_4HookEQsr4implE18IsStringStreamableIT_EEENS_4impl5OkTagEOS5_
PUBLIC 1afa8 0 std::__ndk1::__throw_bad_variant_access[abi:ne180000]()
PUBLIC 1afdc 0 std::__ndk1::basic_stringstream<char, std::__ndk1::char_traits<char>, std::__ndk1::allocator<char> >::basic_stringstream[abi:ne180000]()
PUBLIC 1b108 0 geode::UnwrapException::~UnwrapException()
PUBLIC 1b12c 0 std::__ndk1::__put_character_sequence[abi:ne180000]<char, std::__ndk1::char_traits<char> >(std::__ndk1::basic_ostream<char, std::__ndk1::char_traits<char> >, std::__ndk1::basic_ostream const*, unsigned long)
PUBLIC 1b2d0 0 std::__ndk1::__pad_and_output[abi:ne180000]<char, std::__ndk1::char_traits<char> >(std::__ndk1::char_traits<char>, std::__ndk1::ostreambuf_iterator const*, std::__ndk1::ostreambuf_iterator const, std::__ndk1::ostreambuf_iterator const, std::__ndk1::ios_base&, std::__ndk1::ostreambuf_iterator)
PUBLIC 1b4ac 0 std::__ndk1::basic_stringbuf<char, std::__ndk1::char_traits<char>, std::__ndk1::allocator<char> >::str[abi:ne180000]() &&
PUBLIC 1b624 0 std::__ndk1::basic_stringbuf<char, std::__ndk1::char_traits<char>, std::__ndk1::allocator<char> >::__init_buf_ptrs[abi:ne180000]()
PUBLIC 1b76c 0 std::__ndk1::__variant_detail::__visitation::__base::__dispatcher<(unsigned long)0>::__dispatch[abi:ne180000]<std::__ndk1::__variant_detail::__dtor<std::__ndk1::__variant_detail::__traits<geode::Hook*, std::__ndk1::basic_string<char, std::__ndk1::char_traits<char>, std::__ndk1::allocator<char> > >, (std::__ndk1::__variant_detail::_Trait)1>::__destroy[abi:ne180000]()::{lambda(auto:1&)#1}, std::__ndk1::__variant_detail::__base<(std::__ndk1::__variant_detail::__traits<geode::Hook*, std::__ndk1::basic_string<char, std::__ndk1::char_traits<char>, std::__ndk1::allocator<char> > >)1, geode::Hook, std::__ndk1::allocator<char> >&>(std::__ndk1::__variant_detail::__dtor<std::__ndk1::__variant_detail::__traits<geode::Hook*, std::__ndk1::basic_string<char, std::__ndk1::char_traits<char>, std::__ndk1::allocator<char> > >, (std::__ndk1::__variant_detail::_Trait)1>, std::__ndk1::__variant_detail::__base<(std::__ndk1::__variant_detail::__traits<geode::Hook*, std::__ndk1::basic_string<char, std::__ndk1::char_traits<char>, std::__ndk1::allocator<char> > >)1, geode::Hook, std::__ndk1::allocator<char> >&)
PUBLIC 1b770 0 std::__ndk1::__variant_detail::__visitation::__base::__dispatcher<(unsigned long)1>::__dispatch[abi:ne180000]<std::__ndk1::__variant_detail::__dtor<std::__ndk1::__variant_detail::__traits<geode::Hook*, std::__ndk1::basic_string<char, std::__ndk1::char_traits<char>, std::__ndk1::allocator<char> > >, (std::__ndk1::__variant_detail::_Trait)1>::__destroy[abi:ne180000]()::{lambda(auto:1&)#1}, std::__ndk1::__variant_detail::__base<(std::__ndk1::__variant_detail::__traits<geode::Hook*, std::__ndk1::basic_string<char, std::__ndk1::char_traits<char>, std::__ndk1::allocator<char> > >)1, geode::Hook, std::__ndk1::allocator<char> >&>(std::__ndk1::__variant_detail::__dtor<std::__ndk1::__variant_detail::__traits<geode::Hook*, std::__ndk1::basic_string<char, std::__ndk1::char_traits<char>, std::__ndk1::allocator<char> > >, (std::__ndk1::__variant_detail::_Trait)1>, std::__ndk1::__variant_detail::__base<(std::__ndk1::__variant_detail::__traits<geode::Hook*, std::__ndk1::basic_string<char, std::__ndk1::char_traits<char>, std::__ndk1::allocator<char> > >)1, geode::Hook, std::__ndk1::allocator<char> >&)
PUBLIC 1b784 0 std::__ndk1::__tree<std::__ndk1::__value_type<std::__ndk1::basic_string<char, std::__ndk1::char_traits<char>, std::__ndk1::allocator<char> >, std::__ndk1::shared_ptr<geode::Hook> >, std::__ndk1::__map_value_compare<std::__ndk1::basic_string<char, std::__ndk1::char_traits<char>, std::__ndk1::allocator<char> >, std::__ndk1::__value_type<std::__ndk1::basic_string<char, std::__ndk1::char_traits<char>, std::__ndk1::allocator<char> >, std::__ndk1::shared_ptr<geode::Hook> >, std::__ndk1::less<std::__ndk1::basic_string<char, std::__ndk1::char_traits<char>, std::__ndk1::allocator<char> > >, true>, std::__ndk1::allocator<std::__ndk1::__value_type<std::__ndk1::basic_string<char, std::__ndk1::char_traits<char>, std::__ndk1::allocator<char> >, std::__ndk1::shared_ptr<geode::Hook> > > >::find<std::__ndk1::basic_string<char, std::__ndk1::char_traits<char>, std::__ndk1::allocator<char> > >(std::__ndk1::basic_string<char, std::__ndk1::char_traits<char>, std::__ndk1::allocator<char> > const&)
PUBLIC 1b8a4 0 std::__ndk1::__tree<std::__ndk1::__value_type<std::__ndk1::basic_string<char, std::__ndk1::char_traits<char>, std::__ndk1::allocator<char> >, std::__ndk1::shared_ptr<geode::Hook> >, std::__ndk1::__map_value_compare<std::__ndk1::basic_string<char, std::__ndk1::char_traits<char>, std::__ndk1::allocator<char> >, std::__ndk1::__value_type<std::__ndk1::basic_string<char, std::__ndk1::char_traits<char>, std::__ndk1::allocator<char> >, std::__ndk1::shared_ptr<geode::Hook> >, std::__ndk1::less<std::__ndk1::basic_string<char, std::__ndk1::char_traits<char>, std::__ndk1::allocator<char> > >, true>, std::__ndk1::allocator<std::__ndk1::__value_type<std::__ndk1::basic_string<char, std::__ndk1::char_traits<char>, std::__ndk1::allocator<char> >, std::__ndk1::shared_ptr<geode::Hook> > > >::erase(std::__ndk1::__tree_const_iterator<std::__ndk1::__value_type<std::__ndk1::basic_string<char, std::__ndk1::char_traits<char>, std::__ndk1::allocator<char> >, std::__ndk1::shared_ptr<geode::Hook> >, std::__ndk1::__tree_node<std::__ndk1::__value_type<std::__ndk1::basic_string<char, std::__ndk1::char_traits<char>, std::__ndk1::allocator<char> >, std::__ndk1::shared_ptr<geode::Hook> >, void*>*, long>)
PUBLIC 1bd48 0 std::__ndk1::__tree<std::__ndk1::__value_type<std::__ndk1::basic_string<char, std::__ndk1::char_traits<char>, std::__ndk1::allocator<char> >, std::__ndk1::shared_ptr<geode::Hook> >, std::__ndk1::__map_value_compare<std::__ndk1::basic_string<char, std::__ndk1::char_traits<char>, std::__ndk1::allocator<char> >, std::__ndk1::__value_type<std::__ndk1::basic_string<char, std::__ndk1::char_traits<char>, std::__ndk1::allocator<char> >, std::__ndk1::shared_ptr<geode::Hook> >, std::__ndk1::less<std::__ndk1::basic_string<char, std::__ndk1::char_traits<char>, std::__ndk1::allocator<char> > >, true>, std::__ndk1::allocator<std::__ndk1::__value_type<std::__ndk1::basic_string<char, std::__ndk1::char_traits<char>, std::__ndk1::allocator<char> >, std::__ndk1::shared_ptr<geode::Hook> > > >::destroy(std::__ndk1::__tree_node<std::__ndk1::__value_type<std::__ndk1::basic_string<char, std::__ndk1::char_traits<char>, std::__ndk1::allocator<char> >, std::__ndk1::shared_ptr<geode::Hook> >, void*>*)
PUBLIC 1bdcc 0 geode::modifier::AsStaticFunction_levelDownloadFinished<Button, void (Button::*)(GJGameLevel*)>::Impl<void (Button::*)(GJGameLevel*)>::function(Button*, GJGameLevel*)
PUBLIC 1beb0 0 geode::modifier::AsStaticFunction_init<Button, bool (Button::*)(GJGameLevel*, bool)>::Impl<bool (Button::*)(GJGameLevel*, bool)>::function(Button*, GJGameLevel*, bool)
PUBLIC 1c168 0 geode::Hook::create<void (*)(Button*, cocos2d::CCObject*)>(void*, void (*)(Button*, cocos2d::CCObject*), std::__ndk1::basic_string<char, std::__ndk1::char_traits<char>, std::__ndk1::allocator<char> > const&, tulip::hook::TulipConvention, tulip::hook::HookMetadata const&)
PUBLIC 1c2ec 0 geode::modifier::AsStaticFunction_onBack<Button, void (Button::*)(cocos2d::CCObject*)>::Impl<void (Button::*)(cocos2d::CCObject*)>::function(Button*, cocos2d::CCObject*)
PUBLIC 1c308 0 geode::modifier::AsStaticFunction_onPlay<Button, void (Button::*)(cocos2d::CCObject*)>::Impl<void (Button::*)(cocos2d::CCObject*)>::function(Button*, cocos2d::CCObject*)
PUBLIC 1c324 0 geode::addresser::Addresser::addressOfVirtual<void, LevelInfoLayer, GJGameLevel*>(void (LevelInfoLayer::*)(GJGameLevel*))
PUBLIC 1c3cc 0 LevelInfoLayer::LevelInfoLayer(geode::ZeroConstructorType)
PUBLIC 1c480 0 std::__ndk1::shared_ptr<tulip::hook::CallingConvention>::~shared_ptr[abi:ne180000]()
PUBLIC 1c4d0 0 tulip::hook::HandlerMetadata::~HandlerMetadata()
PUBLIC 1c534 0 std::__ndk1::__tree<std::__ndk1::__value_type<std::__ndk1::basic_string<char, std::__ndk1::char_traits<char>, std::__ndk1::allocator<char> >, std::__ndk1::shared_ptr<geode::Hook> >, std::__ndk1::__map_value_compare<std::__ndk1::basic_string<char, std::__ndk1::char_traits<char>, std::__ndk1::allocator<char> >, std::__ndk1::__value_type<std::__ndk1::basic_string<char, std::__ndk1::char_traits<char>, std::__ndk1::allocator<char> >, std::__ndk1::shared_ptr<geode::Hook> >, std::__ndk1::less<std::__ndk1::basic_string<char, std::__ndk1::char_traits<char>, std::__ndk1::allocator<char> > >, true>, std::__ndk1::allocator<std::__ndk1::__value_type<std::__ndk1::basic_string<char, std::__ndk1::char_traits<char>, std::__ndk1::allocator<char> >, std::__ndk1::shared_ptr<geode::Hook> > > >::__emplace_unique_key_args<std::__ndk1::basic_string<char, std::__ndk1::char_traits<char>, std::__ndk1::allocator<char> >, std::__ndk1::piecewise_construct_t const&, std::__ndk1::tuple<std::__ndk1::basic_string<char, std::__ndk1::char_traits<char>, std::__ndk1::allocator<char> >&&>, std::__ndk1::tuple<> >(std::__ndk1::basic_string<char, std::__ndk1::char_traits<char>, std::__ndk1::allocator<char> > const&, std::__ndk1::piecewise_construct_t const&, std::__ndk1::tuple<std::__ndk1::basic_string<char, std::__ndk1::char_traits<char>, std::__ndk1::allocator<char> >&&>, std::__ndk1::tuple<>)
PUBLIC 1c69c 0 std::__ndk1::__tree_balance_after_insert[abi:ne180000]<std::__ndk1::__tree_node_base<void*>*>(std::__ndk1::__tree_node_base<void*>*, std::__ndk1::__tree_node_base<void*>*)
PUBLIC 1c84c 0 std::__ndk1::shared_ptr<geode::SettingV3>::~shared_ptr[abi:ne180000]()
PUBLIC 1c89c 0 std::__ndk1::shared_ptr<geode::BoolSettingV3>::~shared_ptr[abi:ne180000]()
PUBLIC 1c8ec 0 geode::cast::traverseTypeinfoFor(void*, geode::cast::ClassTypeinfoType const*, char const*)
PUBLIC 1c9e4 0 std::__ndk1::basic_string<char, std::__ndk1::char_traits<char>, std::__ndk1::allocator<char> >::__assign_no_alias<true>(char const*, unsigned long)
PUBLIC 1ca90 0 std::__ndk1::__function::__base<void ()>::~__base()
PUBLIC 1ca94 0 std::__ndk1::__function::__func<Button::deleteAudio()::$_0, std::__ndk1::allocator<Button::deleteAudio()::$_0>, void ()>::~__func()
PUBLIC 1ca98 0 std::__ndk1::__function::__func<Button::deleteAudio()::$_0, std::__ndk1::allocator<Button::deleteAudio()::$_0>, void ()>::__clone() const
PUBLIC 1cacc 0 std::__ndk1::__function::__func<Button::deleteAudio()::$_0, std::__ndk1::allocator<Button::deleteAudio()::$_0>, void ()>::__clone(std::__ndk1::__function::__base<void ()>*) const
PUBLIC 1cae0 0 std::__ndk1::__function::__func<Button::deleteAudio()::$_0, std::__ndk1::allocator<Button::deleteAudio()::$_0>, void ()>::destroy()
PUBLIC 1cae4 0 std::__ndk1::__function::__func<Button::deleteAudio()::$_0, std::__ndk1::allocator<Button::deleteAudio()::$_0>, void ()>::destroy_deallocate()
PUBLIC 1cae8 0 std::__ndk1::__function::__func<Button::deleteAudio()::$_0, std::__ndk1::allocator<Button::deleteAudio()::$_0>, void ()>::operator()()
PUBLIC 1caf0 0 std::__ndk1::__function::__func<Button::deleteAudio()::$_0, std::__ndk1::allocator<Button::deleteAudio()::$_0>, void ()>::target(std::type_info const&) const
PUBLIC 1cb0c 0 std::__ndk1::__function::__func<Button::deleteAudio()::$_0, std::__ndk1::allocator<Button::deleteAudio()::$_0>, void ()>::target_type() const
PUBLIC 1cb18 0 std::__ndk1::__function::__base<void (FLAlertLayer*, bool)>::~__base()
PUBLIC 1cb1c 0 std::__ndk1::__function::__func<Button::button(cocos2d::CCObject*)::$_0, std::__ndk1::allocator<Button::button(cocos2d::CCObject*)::$_0>, void (FLAlertLayer*, bool)>::~__func()
PUBLIC 1cb20 0 std::__ndk1::__function::__func<Button::button(cocos2d::CCObject*)::$_0, std::__ndk1::allocator<Button::button(cocos2d::CCObject*)::$_0>, void (FLAlertLayer*, bool)>::__clone() const
PUBLIC 1cb54 0 std::__ndk1::__function::__func<Button::button(cocos2d::CCObject*)::$_0, std::__ndk1::allocator<Button::button(cocos2d::CCObject*)::$_0>, void (FLAlertLayer*, bool)>::__clone(std::__ndk1::__function::__base<void (FLAlertLayer*, bool)>*) const
PUBLIC 1cb68 0 std::__ndk1::__function::__func<Button::button(cocos2d::CCObject*)::$_0, std::__ndk1::allocator<Button::button(cocos2d::CCObject*)::$_0>, void (FLAlertLayer*, bool)>::destroy()
PUBLIC 1cb6c 0 std::__ndk1::__function::__func<Button::button(cocos2d::CCObject*)::$_0, std::__ndk1::allocator<Button::button(cocos2d::CCObject*)::$_0>, void (FLAlertLayer*, bool)>::destroy_deallocate()
PUBLIC 1cb70 0 std::__ndk1::__function::__func<Button::button(cocos2d::CCObject*)::$_0, std::__ndk1::allocator<Button::button(cocos2d::CCObject*)::$_0>, void (FLAlertLayer*, bool)>::operator()(FLAlertLayer*&&, bool&&)
PUBLIC 1cb84 0 std::__ndk1::__function::__func<Button::button(cocos2d::CCObject*)::$_0, std::__ndk1::allocator<Button::button(cocos2d::CCObject*)::$_0>, void (FLAlertLayer*, bool)>::target(std::type_info const&) const
PUBLIC 1cba0 0 std::__ndk1::__function::__func<Button::button(cocos2d::CCObject*)::$_0, std::__ndk1::allocator<Button::button(cocos2d::CCObject*)::$_0>, void (FLAlertLayer*, bool)>::target_type() const
PUBLIC 1cbac 0 geode::modifier::ModifyDerive<hook315<(anonymous namespace)::hook315Parent>, CustomSongWidget>::apply()
PUBLIC 1d4e0 0 geode::modifier::ModifyBase<geode::modifier::ModifyDerive<hook315<(anonymous namespace)::hook315Parent>, CustomSongWidget> >::apply()
PUBLIC 1d4e4 0 geode::modifier::AsStaticFunction_downloadSongFinished<hook315<(anonymous namespace)::hook315Parent>, void (hook315<(anonymous namespace)::hook315Parent>::*)(int)>::Impl<void (hook315<(anonymous namespace)::hook315Parent>::*)(int)>::function(hook315<(anonymous namespace)::hook315Parent>*, int)
PUBLIC 1d784 0 geode::modifier::AsStaticFunction_downloadAssetFinished<hook315<(anonymous namespace)::hook315Parent>, void (hook315<(anonymous namespace)::hook315Parent>::*)(int, GJAssetType)>::Impl<void (hook315<(anonymous namespace)::hook315Parent>::*)(int, GJAssetType)>::function(hook315<(anonymous namespace)::hook315Parent>*, int, GJAssetType)
PUBLIC 1da30 0 geode::modifier::AsStaticFunction_onPlayback<hook315<(anonymous namespace)::hook315Parent>, void (hook315<(anonymous namespace)::hook315Parent>::*)(cocos2d::CCObject*)>::Impl<void (hook315<(anonymous namespace)::hook315Parent>::*)(cocos2d::CCObject*)>::function(hook315<(anonymous namespace)::hook315Parent>*, cocos2d::CCObject*)
PUBLIC 1da50 0 geode::addresser::Addresser::addressOfVirtual<void, CustomSongWidget, int>(void (CustomSongWidget::*)(int))
PUBLIC 1daf8 0 CustomSongWidget::CustomSongWidget(geode::ZeroConstructorType)
PUBLIC 1db88 0 geode::modifier::ModifyDerive<hook342<(anonymous namespace)::hook342Parent>, CreatorLayer>::apply()
PUBLIC 1e1cc 0 geode::modifier::ModifyBase<geode::modifier::ModifyDerive<hook342<(anonymous namespace)::hook342Parent>, CreatorLayer> >::apply()
PUBLIC 1e1d0 0 geode::Hook::create<void (*)(hook342<(anonymous namespace)::hook342Parent>*, cocos2d::CCObject*)>(void*, void (*)(hook342<(anonymous namespace)::hook342Parent>*, cocos2d::CCObject*), std::__ndk1::basic_string<char, std::__ndk1::char_traits<char>, std::__ndk1::allocator<char> > const&, tulip::hook::TulipConvention, tulip::hook::HookMetadata const&)
PUBLIC 1e354 0 geode::modifier::AsStaticFunction_onBack<hook342<(anonymous namespace)::hook342Parent>, void (hook342<(anonymous namespace)::hook342Parent>::*)(cocos2d::CCObject*)>::Impl<void (hook342<(anonymous namespace)::hook342Parent>::*)(cocos2d::CCObject*)>::function(hook342<(anonymous namespace)::hook342Parent>*, cocos2d::CCObject*)
PUBLIC 1e370 0 geode::modifier::AsStaticFunction_onSecretVault<hook342<(anonymous namespace)::hook342Parent>, void (hook342<(anonymous namespace)::hook342Parent>::*)(cocos2d::CCObject*)>::Impl<void (hook342<(anonymous namespace)::hook342Parent>::*)(cocos2d::CCObject*)>::function(hook342<(anonymous namespace)::hook342Parent>*, cocos2d::CCObject*)
PUBLIC 1e38c 0 geode::modifier::AsStaticFunction_onTreasureRoom<hook342<(anonymous namespace)::hook342Parent>, void (hook342<(anonymous namespace)::hook342Parent>::*)(cocos2d::CCObject*)>::Impl<void (hook342<(anonymous namespace)::hook342Parent>::*)(cocos2d::CCObject*)>::function(hook342<(anonymous namespace)::hook342Parent>*, cocos2d::CCObject*)
PUBLIC 1e3a8 0 geode::SettingChangedFilterV3::~SettingChangedFilterV3()
PUBLIC 1e3f8 0 std::__ndk1::__function::__base<void (std::__ndk1::shared_ptr<geode::SettingV3>)>::~__base()
PUBLIC 1e3fc 0 std::__ndk1::__function::__func<geode::listenForSettingChangesV3<bool, void (*)(bool)>(std::__ndk1::basic_string_view<char, std::__ndk1::char_traits<char> >, void (*&&)(bool), geode::Mod*)::{lambda(std::__ndk1::shared_ptr<geode::SettingV3>)#1}, std::__ndk1::allocator<geode::listenForSettingChangesV3<bool, void (*)(bool)>(std::__ndk1::basic_string_view<char, std::__ndk1::char_traits<char> >, void (*&&)(bool), geode::Mod*)::{lambda(std::__ndk1::shared_ptr<geode::SettingV3>)#1}>, void (std::__ndk1::shared_ptr<geode::SettingV3>)>::~__func()
PUBLIC 1e400 0 std::__ndk1::__function::__func<geode::listenForSettingChangesV3<bool, void (*)(bool)>(std::__ndk1::basic_string_view<char, std::__ndk1::char_traits<char> >, void (*&&)(bool), geode::Mod*)::{lambda(std::__ndk1::shared_ptr<geode::SettingV3>)#1}, std::__ndk1::allocator<geode::listenForSettingChangesV3<bool, void (*)(bool)>(std::__ndk1::basic_string_view<char, std::__ndk1::char_traits<char> >, void (*&&)(bool), geode::Mod*)::{lambda(std::__ndk1::shared_ptr<geode::SettingV3>)#1}>, void (std::__ndk1::shared_ptr<geode::SettingV3>)>::__clone() const
PUBLIC 1e434 0 std::__ndk1::__function::__func<geode::listenForSettingChangesV3<bool, void (*)(bool)>(std::__ndk1::basic_string_view<char, std::__ndk1::char_traits<char> >, void (*&&)(bool), geode::Mod*)::{lambda(std::__ndk1::shared_ptr<geode::SettingV3>)#1}, std::__ndk1::allocator<geode::listenForSettingChangesV3<bool, void (*)(bool)>(std::__ndk1::basic_string_view<char, std::__ndk1::char_traits<char> >, void (*&&)(bool), geode::Mod*)::{lambda(std::__ndk1::shared_ptr<geode::SettingV3>)#1}>, void (std::__ndk1::shared_ptr<geode::SettingV3>)>::__clone(std::__ndk1::__function::__base<void (std::__ndk1::shared_ptr<geode::SettingV3>)>*) const
PUBLIC 1e448 0 std::__ndk1::__function::__func<geode::listenForSettingChangesV3<bool, void (*)(bool)>(std::__ndk1::basic_string_view<char, std::__ndk1::char_traits<char> >, void (*&&)(bool), geode::Mod*)::{lambda(std::__ndk1::shared_ptr<geode::SettingV3>)#1}, std::__ndk1::allocator<geode::listenForSettingChangesV3<bool, void (*)(bool)>(std::__ndk1::basic_string_view<char, std::__ndk1::char_traits<char> >, void (*&&)(bool), geode::Mod*)::{lambda(std::__ndk1::shared_ptr<geode::SettingV3>)#1}>, void (std::__ndk1::shared_ptr<geode::SettingV3>)>::destroy()
PUBLIC 1e44c 0 std::__ndk1::__function::__func<geode::listenForSettingChangesV3<bool, void (*)(bool)>(std::__ndk1::basic_string_view<char, std::__ndk1::char_traits<char> >, void (*&&)(bool), geode::Mod*)::{lambda(std::__ndk1::shared_ptr<geode::SettingV3>)#1}, std::__ndk1::allocator<geode::listenForSettingChangesV3<bool, void (*)(bool)>(std::__ndk1::basic_string_view<char, std::__ndk1::char_traits<char> >, void (*&&)(bool), geode::Mod*)::{lambda(std::__ndk1::shared_ptr<geode::SettingV3>)#1}>, void (std::__ndk1::shared_ptr<geode::SettingV3>)>::destroy_deallocate()
PUBLIC 1e450 0 std::__ndk1::__function::__func<geode::listenForSettingChangesV3<bool, void (*)(bool)>(std::__ndk1::basic_string_view<char, std::__ndk1::char_traits<char> >, void (*&&)(bool), geode::Mod*)::{lambda(std::__ndk1::shared_ptr<geode::SettingV3>)#1}, std::__ndk1::allocator<geode::listenForSettingChangesV3<bool, void (*)(bool)>(std::__ndk1::basic_string_view<char, std::__ndk1::char_traits<char> >, void (*&&)(bool), geode::Mod*)::{lambda(std::__ndk1::shared_ptr<geode::SettingV3>)#1}>, void (std::__ndk1::shared_ptr<geode::SettingV3>)>::operator()(std::__ndk1::shared_ptr<geode::SettingV3>&&)
PUBLIC 1e568 0 std::__ndk1::__function::__func<geode::listenForSettingChangesV3<bool, void (*)(bool)>(std::__ndk1::basic_string_view<char, std::__ndk1::char_traits<char> >, void (*&&)(bool), geode::Mod*)::{lambda(std::__ndk1::shared_ptr<geode::SettingV3>)#1}, std::__ndk1::allocator<geode::listenForSettingChangesV3<bool, void (*)(bool)>(std::__ndk1::basic_string_view<char, std::__ndk1::char_traits<char> >, void (*&&)(bool), geode::Mod*)::{lambda(std::__ndk1::shared_ptr<geode::SettingV3>)#1}>, void (std::__ndk1::shared_ptr<geode::SettingV3>)>::target(std::type_info const&) const
PUBLIC 1e584 0 std::__ndk1::__function::__func<geode::listenForSettingChangesV3<bool, void (*)(bool)>(std::__ndk1::basic_string_view<char, std::__ndk1::char_traits<char> >, void (*&&)(bool), geode::Mod*)::{lambda(std::__ndk1::shared_ptr<geode::SettingV3>)#1}, std::__ndk1::allocator<geode::listenForSettingChangesV3<bool, void (*)(bool)>(std::__ndk1::basic_string_view<char, std::__ndk1::char_traits<char> >, void (*&&)(bool), geode::Mod*)::{lambda(std::__ndk1::shared_ptr<geode::SettingV3>)#1}>, void (std::__ndk1::shared_ptr<geode::SettingV3>)>::target_type() const
PUBLIC 1e590 0 geode::EventListener<geode::SettingChangedFilterV3>::getPool() const
PUBLIC 1e594 0 geode::EventListener<geode::SettingChangedFilterV3>::handle(geode::Event*)
PUBLIC 1e6f8 0 geode::EventListener<geode::SettingChangedFilterV3>::~EventListener()
PUBLIC 1e794 0 geode::EventListener<geode::SettingChangedFilterV3>::~EventListener()
PUBLIC 1e838 0 geodeExecFunction360<(anonymous namespace)::ExecFuncUnique360>()::{lambda(bool)#1}::__invoke(bool)
PUBLIC m 1e938 0 geodeImplicitEntry
PUBLIC 1e974 0 std::__ndk1::unordered_map<void*, bool, std::__ndk1::hash<void*>, std::__ndk1::equal_to<void*>, std::__ndk1::allocator<std::__ndk1::pair<void* const, bool> > >::~unordered_map[abi:ne180000]()
PUBLIC 1e9c0 0 wrapFunction(unsigned long, tulip::hook::WrapperMetadata const&)
PUBLIC 1eaf4 0 geode::impl::ResultData<void*, std::__ndk1::basic_string<char, std::__ndk1::char_traits<char>, std::__ndk1::allocator<char> > >::unwrapErr() &
PUBLIC 1eb6c 0 geode::impl::ResultData<void*, std::__ndk1::basic_string<char, std::__ndk1::char_traits<char>, std::__ndk1::allocator<char> > >::~ResultData()
PUBLIC 1ebe0 0 tulip::hook::WrapperMetadata::~WrapperMetadata()
PUBLIC 1ec44 0 cocos2d::CCObject::~CCObject()
PUBLIC 1ec68 0 cocos2d::CCNode::~CCNode()
PUBLIC 1ec8c 0 {virtual override thunk({offset(-320)}, cocos2d::CCLayer::~CCLayer())}
PUBLIC 1ec94 0 cocos2d::CCLayer::~CCLayer()
PUBLIC 1ecb8 0 {virtual override thunk({offset(-320)}, cocos2d::CCLayer::~CCLayer())}
PUBLIC 1ece0 0 cocos2d::CCLayerRGBA::~CCLayerRGBA()
PUBLIC 1efb8 0 {virtual override thunk({offset(-320)}, cocos2d::CCLayerRGBA::~CCLayerRGBA())}
PUBLIC 1efc0 0 cocos2d::CCLayerRGBA::~CCLayerRGBA()
PUBLIC 1efe4 0 {virtual override thunk({offset(-320)}, cocos2d::CCLayerRGBA::~CCLayerRGBA())}
PUBLIC 1f00c 0 cocos2d::CCLayerColor::CCLayerColor()
PUBLIC 1f25c 0 {virtual override thunk({offset(-320)}, cocos2d::CCLayerColor::~CCLayerColor())}
PUBLIC 1f264 0 cocos2d::CCLayerColor::~CCLayerColor()
PUBLIC 1f288 0 {virtual override thunk({offset(-320)}, cocos2d::CCLayerColor::~CCLayerColor())}
PUBLIC 1f2b0 0 {virtual override thunk({offset(-320)}, FLAlertLayer::~FLAlertLayer())}
PUBLIC 1f2b8 0 FLAlertLayer::~FLAlertLayer()
PUBLIC 1f2dc 0 {virtual override thunk({offset(-320)}, FLAlertLayer::~FLAlertLayer())}
PUBLIC 1f304 0 cocos2d::CCObject::update(float)
PUBLIC 1f308 0 cocos2d::CCLayerColor::~CCLayerColor()
PUBLIC 1f5c4 0 FLAlertLayer::~FLAlertLayer()
PUBLIC 1f880 0 cocos2d::CCNode::~CCNode()
PUBLIC 1faf8 0 cocos2d::CCLayer::~CCLayer()
PUBLIC 1fdc0 0 cocos2d::CCObject::~CCObject()
PUBLIC 2028c 0 _ZN5geode15UnwrapExceptionC2IRPvQsr4implE18IsStringStreamableIT_EEENS_4impl5OkTagEOS4_
PUBLIC 203e0 0 _ZN5geode15UnwrapExceptionC2IRNSt6__ndk112basic_stringIcNS2_11char_traitsIcEENS2_9allocatorIcEEEEQsr4implE18IsStringStreamableIT_EEENS_4impl6ErrTagEOSA_
PUBLIC 20548 0 std::__ndk1::__variant_detail::__visitation::__base::__dispatcher<(unsigned long)0>::__dispatch[abi:ne180000]<std::__ndk1::__variant_detail::__dtor<std::__ndk1::__variant_detail::__traits<void*, std::__ndk1::basic_string<char, std::__ndk1::char_traits<char>, std::__ndk1::allocator<char> > >, (std::__ndk1::__variant_detail::_Trait)1>::__destroy[abi:ne180000]()::{lambda(auto:1&)#1}, std::__ndk1::__variant_detail::__base<(std::__ndk1::__variant_detail::__traits<void*, std::__ndk1::basic_string<char, std::__ndk1::char_traits<char>, std::__ndk1::allocator<char> > >)1, std::__ndk1::__variant_detail::__traits, std::__ndk1::allocator<char> >&>(std::__ndk1::__variant_detail::__dtor<std::__ndk1::__variant_detail::__traits<void*, std::__ndk1::basic_string<char, std::__ndk1::char_traits<char>, std::__ndk1::allocator<char> > >, (std::__ndk1::__variant_detail::_Trait)1>, std::__ndk1::__variant_detail::__base<(std::__ndk1::__variant_detail::__traits<void*, std::__ndk1::basic_string<char, std::__ndk1::char_traits<char>, std::__ndk1::allocator<char> > >)1, std::__ndk1::__variant_detail::__traits, std::__ndk1::allocator<char> >&)
PUBLIC 2054c 0 std::__ndk1::__variant_detail::__visitation::__base::__dispatcher<(unsigned long)1>::__dispatch[abi:ne180000]<std::__ndk1::__variant_detail::__dtor<std::__ndk1::__variant_detail::__traits<void*, std::__ndk1::basic_string<char, std::__ndk1::char_traits<char>, std::__ndk1::allocator<char> > >, (std::__ndk1::__variant_detail::_Trait)1>::__destroy[abi:ne180000]()::{lambda(auto:1&)#1}, std::__ndk1::__variant_detail::__base<(std::__ndk1::__variant_detail::__traits<void*, std::__ndk1::basic_string<char, std::__ndk1::char_traits<char>, std::__ndk1::allocator<char> > >)1, std::__ndk1::__variant_detail::__traits, std::__ndk1::allocator<char> >&>(std::__ndk1::__variant_detail::__dtor<std::__ndk1::__variant_detail::__traits<void*, std::__ndk1::basic_string<char, std::__ndk1::char_traits<char>, std::__ndk1::allocator<char> > >, (std::__ndk1::__variant_detail::_Trait)1>, std::__ndk1::__variant_detail::__base<(std::__ndk1::__variant_detail::__traits<void*, std::__ndk1::basic_string<char, std::__ndk1::char_traits<char>, std::__ndk1::allocator<char> > >)1, std::__ndk1::__variant_detail::__traits, std::__ndk1::allocator<char> >&)
PUBLIC 20560 0 std::__ndk1::__hash_table<std::__ndk1::__hash_value_type<void*, bool>, std::__ndk1::__unordered_map_hasher<void*, std::__ndk1::__hash_value_type<void*, bool>, std::__ndk1::hash<void*>, std::__ndk1::equal_to<void*>, true>, std::__ndk1::__unordered_map_equal<void*, std::__ndk1::__hash_value_type<void*, bool>, std::__ndk1::equal_to<void*>, std::__ndk1::hash<void*>, true>, std::__ndk1::allocator<std::__ndk1::__hash_value_type<void*, bool> > >::__emplace_unique_key_args<void*, std::__ndk1::piecewise_construct_t const&, std::__ndk1::tuple<void* const&>, std::__ndk1::tuple<> >(void* const&, std::__ndk1::piecewise_construct_t const&, std::__ndk1::tuple<void* const&>, std::__ndk1::tuple<>)
PUBLIC 20a40 0 <.plt ELF section in sawblade.song_trash_can.android64.so>
STACK CFI INIT 14c70 10 .cfa: sp 0 +
STACK CFI INIT 14c80 8 .cfa: sp 0 +
STACK CFI INIT 14c88 8 .cfa: sp 0 +
STACK CFI INIT 14c90 14 .cfa: sp 0 +
STACK CFI INIT 14ca4 1c .cfa: sp 0 +
STACK CFI INIT 14cc0 10 .cfa: sp 0 +
STACK CFI INIT 14cd0 30 .cfa: sp 0 +
STACK CFI INIT 14d00 98 .cfa: sp 0 +
STACK CFI INIT 14d98 59c .cfa: sp 0 +
STACK CFI INIT 15334 8c .cfa: sp 0 +
STACK CFI INIT 153c0 30 .cfa: sp 0 +
STACK CFI INIT 153f0 4c .cfa: sp 0 +
STACK CFI 153f4 .cfa: sp 32 +
STACK CFI 153fc .cfa: x29 32 + x19: .cfa -8 + ^ x20: .cfa -16 + ^ .ra: .cfa -24 + ^ x29: .cfa -32 + ^
STACK CFI 15424 .cfa: sp 32 +
STACK CFI 1542c .cfa: sp 0 +
STACK CFI 15430 .cfa: sp 32 +
STACK CFI 15438 .cfa: sp 0 +
STACK CFI INIT 15ff0 7c .cfa: sp 0 +
STACK CFI 15ff4 .cfa: sp 48 +
STACK CFI 16000 .cfa: x29 48 + x19: .cfa -8 + ^ x20: .cfa -16 + ^ x21: .cfa -32 + ^ .ra: .cfa -40 + ^ x29: .cfa -48 + ^
STACK CFI 1604c .cfa: sp 48 +
STACK CFI 16058 .cfa: sp 0 +
STACK CFI 1605c .cfa: sp 48 +
STACK CFI 16068 .cfa: sp 0 +
STACK CFI INIT 1606c 80 .cfa: sp 0 +
STACK CFI 16070 .cfa: sp 48 +
STACK CFI 1607c .cfa: x29 48 + x19: .cfa -8 + ^ x20: .cfa -16 + ^ x21: .cfa -32 + ^ .ra: .cfa -40 + ^ x29: .cfa -48 + ^
STACK CFI 160dc .cfa: sp 48 +
STACK CFI 160e8 .cfa: sp 0 +
STACK CFI INIT 167f8 3c .cfa: sp 0 +
STACK CFI 167fc .cfa: sp 32 +
STACK CFI 16804 .cfa: x29 32 + x19: .cfa -16 + ^ .ra: .cfa -24 + ^ x29: .cfa -32 + ^
STACK CFI 16810 .cfa: sp 32 +
STACK CFI 16818 .cfa: sp 0 +
STACK CFI 1681c .cfa: x29 32 +
STACK CFI 16828 .cfa: sp 32 +
STACK CFI 16830 .cfa: sp 0 +
STACK CFI INIT 17264 130 .cfa: sp 0 +
STACK CFI 17268 .cfa: sp 80 +
STACK CFI 17278 .cfa: x29 48 + x19: .cfa -8 + ^ x20: .cfa -16 + ^ x21: .cfa -24 + ^ x22: .cfa -32 + ^ .ra: .cfa -40 + ^ x29: .cfa -48 + ^
STACK CFI 1737c .cfa: sp 80 +
STACK CFI 1738c .cfa: sp 0 +
STACK CFI 17390 .cfa: x29 48 +
STACK CFI INIT 17394 8 .cfa: sp 0 +
STACK CFI INIT 1739c 4 .cfa: sp 0 +
STACK CFI INIT 173a0 4 .cfa: sp 0 +
STACK CFI INIT 173a4 4 .cfa: sp 0 +
STACK CFI INIT 173a8 4 .cfa: sp 0 +
STACK CFI INIT 17830 18 .cfa: sp 0 +
STACK CFI INIT 188e0 18 .cfa: sp 0 +
STACK CFI INIT 188f8 18 .cfa: sp 0 +
STACK CFI INIT 18910 10 .cfa: sp 0 +
STACK CFI 18914 .cfa: sp 16 +
STACK CFI 18918 .cfa: x29 16 + .ra: .cfa -8 + ^ x29: .cfa -16 + ^
STACK CFI INIT 18f60 4 .cfa: sp 0 +
STACK CFI INIT 18f64 14 .cfa: sp 0 +
STACK CFI 18f68 .cfa: sp 16 +
STACK CFI 18f6c .cfa: x29 16 + .ra: .cfa -8 + ^ x29: .cfa -16 + ^
STACK CFI INIT 18fc8 30 .cfa: sp 0 +
STACK CFI 18fcc .cfa: sp 32 +
STACK CFI 18fd4 .cfa: x29 32 + x19: .cfa -16 + ^ .ra: .cfa -24 + ^ x29: .cfa -32 + ^
STACK CFI 18fec .cfa: sp 32 +
STACK CFI 18ff4 .cfa: sp 0 +
STACK CFI INIT 18ff8 34 .cfa: sp 0 +
STACK CFI 18ffc .cfa: sp 32 +
STACK CFI 19004 .cfa: x29 32 + x19: .cfa -16 + ^ .ra: .cfa -24 + ^ x29: .cfa -32 + ^
STACK CFI INIT 1902c 14 .cfa: sp 0 +
STACK CFI 19030 .cfa: sp 16 +
STACK CFI 19034 .cfa: x29 16 + .ra: .cfa -8 + ^ x29: .cfa -16 + ^
STACK CFI INIT 19040 c .cfa: sp 0 +
STACK CFI 19044 .cfa: sp 16 +
STACK CFI 19048 .cfa: x29 16 + .ra: .cfa -8 + ^ x29: .cfa -16 + ^
STACK CFI INIT 1909c 30 .cfa: sp 0 +
STACK CFI 190a0 .cfa: sp 32 +
STACK CFI 190a8 .cfa: x29 32 + x19: .cfa -16 + ^ .ra: .cfa -24 + ^ x29: .cfa -32 + ^
STACK CFI 190c0 .cfa: sp 32 +
STACK CFI 190c8 .cfa: sp 0 +
STACK CFI INIT 190cc c .cfa: sp 0 +
STACK CFI 190d0 .cfa: sp 16 +
STACK CFI 190d4 .cfa: x29 16 + .ra: .cfa -8 + ^ x29: .cfa -16 + ^
STACK CFI INIT 190d8 4 .cfa: sp 0 +
STACK CFI INIT 190dc 4 .cfa: sp 0 +
STACK CFI INIT 190e0 38 .cfa: sp 0 +
STACK CFI 190e4 .cfa: sp 32 +
STACK CFI 190ec .cfa: x29 32 + x19: .cfa -16 + ^ .ra: .cfa -24 + ^ x29: .cfa -32 + ^
STACK CFI 1910c .cfa: sp 32 +
STACK CFI 19114 .cfa: sp 0 +
STACK CFI INIT 19118 18 .cfa: sp 0 +
STACK CFI INIT 19130 4 .cfa: sp 0 +
STACK CFI INIT 19134 4 .cfa: sp 0 +
STACK CFI INIT 19138 10 .cfa: sp 0 +
STACK CFI INIT 19148 1c .cfa: sp 0 +
STACK CFI INIT 19164 c .cfa: sp 0 +
STACK CFI INIT 19170 80 .cfa: sp 0 +
STACK CFI 19174 .cfa: sp 48 +
STACK CFI 19180 .cfa: x29 48 + x19: .cfa -8 + ^ x20: .cfa -16 + ^ x21: .cfa -24 + ^ x22: .cfa -32 + ^ .ra: .cfa -40 + ^ x29: .cfa -48 + ^
STACK CFI 19198 .cfa: sp 48 +
STACK CFI 191a4 .cfa: sp 0 +
STACK CFI 191a8 .cfa: x29 48 +
STACK CFI 191d8 .cfa: sp 48 +
STACK CFI 191e4 .cfa: sp 0 +
STACK CFI 191e8 .cfa: x29 48 +
STACK CFI INIT 191f0 14 .cfa: sp 0 +
STACK CFI 191f4 .cfa: sp 16 +
STACK CFI 191f8 .cfa: x29 16 + .ra: .cfa -8 + ^ x29: .cfa -16 + ^
STACK CFI INIT 19428 68 .cfa: sp 0 +
STACK CFI 1942c .cfa: sp 32 +
STACK CFI 19434 .cfa: x29 32 + x19: .cfa -8 + ^ x20: .cfa -16 + ^ .ra: .cfa -24 + ^ x29: .cfa -32 + ^
STACK CFI 1944c .cfa: sp 32 +
STACK CFI 19454 .cfa: sp 0 +
STACK CFI 19458 .cfa: x29 32 +
STACK CFI 19484 .cfa: sp 32 +
STACK CFI 1948c .cfa: sp 0 +
STACK CFI INIT 19490 14 .cfa: sp 0 +
STACK CFI 19494 .cfa: sp 16 +
STACK CFI 19498 .cfa: x29 16 + .ra: .cfa -8 + ^ x29: .cfa -16 + ^
STACK CFI INIT 194a4 128 .cfa: sp 0 +
STACK CFI 194a8 .cfa: sp 80 +
STACK CFI 194bc .cfa: x29 80 + x19: .cfa -8 + ^ x20: .cfa -16 + ^ x21: .cfa -24 + ^ x22: .cfa -32 + ^ x23: .cfa -40 + ^ x24: .cfa -48 + ^ x25: .cfa -64 + ^ .ra: .cfa -72 + ^ x29: .cfa -80 + ^
STACK CFI 195ac .cfa: sp 80 +
STACK CFI 195c0 .cfa: sp 0 +
STACK CFI 195c4 .cfa: x29 80 +
STACK CFI INIT 196ac 2c .cfa: sp 0 +
STACK CFI 196b0 .cfa: sp 32 +
STACK CFI 196b8 .cfa: x29 32 + x19: .cfa -16 + ^ .ra: .cfa -24 + ^ x29: .cfa -32 + ^
STACK CFI 196cc .cfa: sp 32 +
STACK CFI 196d4 .cfa: sp 0 +
STACK CFI INIT 196d8 28 .cfa: sp 0 +
STACK CFI INIT 19700 4 .cfa: sp 0 +
STACK CFI INIT 19704 8 .cfa: sp 0 +
STACK CFI INIT 1a09c 2c .cfa: sp 0 +
STACK CFI INIT 1a0c8 4 .cfa: sp 0 +
STACK CFI INIT 1a0cc 8 .cfa: sp 0 +
STACK CFI INIT 1a0d4 4 .cfa: sp 0 +
STACK CFI INIT 1a144 4 .cfa: sp 0 +
STACK CFI INIT 1a148 10 .cfa: sp 0 +
STACK CFI INIT 1a158 10 .cfa: sp 0 +
STACK CFI INIT 1a168 c .cfa: sp 0 +
STACK CFI INIT 1a174 50 .cfa: sp 0 +
STACK CFI 1a178 .cfa: sp 32 +
STACK CFI 1a180 .cfa: x29 32 + x19: .cfa -16 + ^ .ra: .cfa -24 + ^ x29: .cfa -32 + ^
STACK CFI 1a1b8 .cfa: sp 32 +
STACK CFI 1a1c0 .cfa: sp 0 +
STACK CFI INIT 1a1c4 3c .cfa: sp 0 +
STACK CFI 1a1c8 .cfa: sp 32 +
STACK CFI 1a1d0 .cfa: x29 32 + x19: .cfa -16 + ^ .ra: .cfa -24 + ^ x29: .cfa -32 + ^
STACK CFI 1a1dc .cfa: sp 32 +
STACK CFI 1a1e4 .cfa: sp 0 +
STACK CFI 1a1e8 .cfa: x29 32 +
STACK CFI 1a1f4 .cfa: sp 32 +
STACK CFI 1a1fc .cfa: sp 0 +
STACK CFI INIT 1a200 60 .cfa: sp 0 +
STACK CFI 1a204 .cfa: sp 32 +
STACK CFI 1a20c .cfa: x29 32 + x19: .cfa -8 + ^ x20: .cfa -16 + ^ .ra: .cfa -24 + ^ x29: .cfa -32 + ^
STACK CFI 1a22c .cfa: sp 32 +
STACK CFI 1a234 .cfa: sp 0 +
STACK CFI 1a238 .cfa: x29 32 +
STACK CFI 1a254 .cfa: sp 32 +
STACK CFI 1a25c .cfa: sp 0 +
STACK CFI INIT 1a260 70 .cfa: sp 0 +
STACK CFI 1a264 .cfa: sp 32 +
STACK CFI 1a26c .cfa: x29 32 + x19: .cfa -8 + ^ x20: .cfa -16 + ^ .ra: .cfa -24 + ^ x29: .cfa -32 + ^
STACK CFI 1a294 .cfa: sp 32 +
STACK CFI 1a29c .cfa: sp 0 +
STACK CFI 1a2a0 .cfa: x29 32 +
STACK CFI 1a2c4 .cfa: sp 32 +
STACK CFI 1a2cc .cfa: sp 0 +
STACK CFI INIT 1a2d0 10 .cfa: sp 0 +
STACK CFI INIT 1a2e0 30 .cfa: sp 0 +
STACK CFI 1a2e4 .cfa: sp 32 +
STACK CFI 1a2ec .cfa: x29 32 + x19: .cfa -16 + ^ .ra: .cfa -24 + ^ x29: .cfa -32 + ^
STACK CFI 1a304 .cfa: sp 32 +
STACK CFI 1a30c .cfa: sp 0 +
STACK CFI INIT 1a310 4 .cfa: sp 0 +
STACK CFI INIT 1a314 4 .cfa: sp 0 +
STACK CFI INIT 1a318 50 .cfa: sp 0 +
STACK CFI 1a31c .cfa: sp 32 +
STACK CFI 1a324 .cfa: x29 32 + x19: .cfa -16 + ^ .ra: .cfa -24 + ^ x29: .cfa -32 + ^
STACK CFI 1a350 .cfa: sp 32 +
STACK CFI 1a358 .cfa: sp 0 +
STACK CFI 1a35c .cfa: sp 32 +
STACK CFI 1a364 .cfa: sp 0 +
STACK CFI INIT 1ad8c 50 .cfa: sp 0 +
STACK CFI 1ad90 .cfa: sp 32 +
STACK CFI 1ad98 .cfa: x29 32 + x19: .cfa -16 + ^ .ra: .cfa -24 + ^ x29: .cfa -32 + ^
STACK CFI 1adb0 .cfa: sp 32 +
STACK CFI 1adb8 .cfa: sp 0 +
STACK CFI 1adbc .cfa: x29 32 +
STACK CFI 1add0 .cfa: sp 32 +
STACK CFI 1add8 .cfa: sp 0 +
STACK CFI INIT 1ae50 4 .cfa: sp 0 +
STACK CFI INIT 1afa8 34 .cfa: sp 0 +
STACK CFI 1afac .cfa: sp 16 +
STACK CFI 1afb0 .cfa: x29 16 + .ra: .cfa -8 + ^ x29: .cfa -16 + ^
STACK CFI INIT 1b108 24 .cfa: sp 0 +
STACK CFI 1b10c .cfa: sp 32 +
STACK CFI 1b114 .cfa: x29 32 + x19: .cfa -16 + ^ .ra: .cfa -24 + ^ x29: .cfa -32 + ^
STACK CFI 1b120 .cfa: sp 32 +
STACK CFI 1b128 .cfa: sp 0 +
STACK CFI INIT 1b624 148 .cfa: sp 0 +
STACK CFI 1b628 .cfa: sp 48 +
STACK CFI 1b634 .cfa: x29 48 + x19: .cfa -8 + ^ x20: .cfa -16 + ^ x21: .cfa -32 + ^ .ra: .cfa -40 + ^ x29: .cfa -48 + ^
STACK CFI 1b75c .cfa: sp 48 +
STACK CFI 1b768 .cfa: sp 0 +
STACK CFI INIT 1b76c 4 .cfa: sp 0 +
STACK CFI INIT 1b770 14 .cfa: sp 0 +
STACK CFI INIT 1b784 120 .cfa: sp 0 +
STACK CFI 1b788 .cfa: sp 64 +
STACK CFI 1b798 .cfa: x29 64 + x19: .cfa -8 + ^ x20: .cfa -16 + ^ x21: .cfa -24 + ^ x22: .cfa -32 + ^ x23: .cfa -40 + ^ x24: .cfa -48 + ^ .ra: .cfa -56 + ^ x29: .cfa -64 + ^
STACK CFI 1b890 .cfa: sp 64 +
STACK CFI 1b8a0 .cfa: sp 0 +
STACK CFI INIT 1b8a4 4a4 .cfa: sp 0 +
STACK CFI 1b8a8 .cfa: sp 32 +
STACK CFI 1b8b0 .cfa: x29 32 + x19: .cfa -8 + ^ x20: .cfa -16 + ^ .ra: .cfa -24 + ^ x29: .cfa -32 + ^
STACK CFI 1bc90 .cfa: sp 32 +
STACK CFI 1bc98 .cfa: sp 0 +
STACK CFI 1bc9c .cfa: x29 32 +
STACK CFI INIT 1bd48 84 .cfa: sp 0 +
STACK CFI 1bd50 .cfa: sp 32 +
STACK CFI 1bd58 .cfa: x29 32 + x19: .cfa -8 + ^ x20: .cfa -16 + ^ .ra: .cfa -24 + ^ x29: .cfa -32 + ^
STACK CFI 1bd98 .cfa: sp 32 +
STACK CFI 1bda0 .cfa: sp 0 +
STACK CFI 1bda8 .cfa: x29 32 +
STACK CFI INIT 1bdcc e4 .cfa: sp 0 +
STACK CFI 1bdd0 .cfa: sp 48 +
STACK CFI 1bddc .cfa: x29 48 + x19: .cfa -8 + ^ x20: .cfa -16 + ^ x21: .cfa -32 + ^ .ra: .cfa -40 + ^ x29: .cfa -48 + ^
STACK CFI 1be90 .cfa: sp 48 +
STACK CFI 1be9c .cfa: sp 0 +
STACK CFI 1bea0 .cfa: sp 48 +
STACK CFI 1beac .cfa: sp 0 +
STACK CFI INIT 1c2ec 1c .cfa: sp 0 +
STACK CFI 1c2f0 .cfa: sp 16 +
STACK CFI 1c2f4 .cfa: x29 16 + .ra: .cfa -8 + ^ x29: .cfa -16 + ^
STACK CFI 1c300 .cfa: sp 16 +
STACK CFI 1c304 .cfa: sp 0 +
STACK CFI INIT 1c308 1c .cfa: sp 0 +
STACK CFI 1c30c .cfa: sp 16 +
STACK CFI 1c310 .cfa: x29 16 + .ra: .cfa -8 + ^ x29: .cfa -16 + ^
STACK CFI 1c31c .cfa: sp 16 +
STACK CFI 1c320 .cfa: sp 0 +
STACK CFI INIT 1c3cc b4 .cfa: sp 0 +
STACK CFI 1c3d0 .cfa: sp 32 +
STACK CFI 1c3d8 .cfa: x29 32 + x19: .cfa -16 + ^ .ra: .cfa -24 + ^ x29: .cfa -32 + ^
STACK CFI 1c474 .cfa: sp 32 +
STACK CFI 1c47c .cfa: sp 0 +
STACK CFI INIT 1c480 50 .cfa: sp 0 +
STACK CFI 1c484 .cfa: sp 32 +
STACK CFI 1c48c .cfa: x29 32 + x19: .cfa -16 + ^ .ra: .cfa -24 + ^ x29: .cfa -32 + ^
STACK CFI 1c4a4 .cfa: sp 32 +
STACK CFI 1c4ac .cfa: sp 0 +
STACK CFI 1c4b0 .cfa: x29 32 +
STACK CFI 1c4c4 .cfa: sp 32 +
STACK CFI 1c4cc .cfa: sp 0 +
STACK CFI INIT 1c4d0 64 .cfa: sp 0 +
STACK CFI 1c4d4 .cfa: sp 32 +
STACK CFI 1c4dc .cfa: x29 32 + x19: .cfa -16 + ^ .ra: .cfa -24 + ^ x29: .cfa -32 + ^
STACK CFI 1c508 .cfa: sp 32 +
STACK CFI 1c510 .cfa: sp 0 +
STACK CFI 1c514 .cfa: x29 32 +
STACK CFI 1c528 .cfa: sp 32 +
STACK CFI 1c530 .cfa: sp 0 +
STACK CFI INIT 1c534 168 .cfa: sp 0 +
STACK CFI 1c538 .cfa: sp 80 +
STACK CFI 1c54c .cfa: x29 80 + x19: .cfa -8 + ^ x20: .cfa -16 + ^ x21: .cfa -24 + ^ x22: .cfa -32 + ^ x23: .cfa -40 + ^ x24: .cfa -48 + ^ x25: .cfa -56 + ^ x26: .cfa -64 + ^ .ra: .cfa -72 + ^ x29: .cfa -80 + ^
STACK CFI 1c684 .cfa: sp 80 +
STACK CFI 1c698 .cfa: sp 0 +
STACK CFI INIT 1c69c 1b0 .cfa: sp 0 +
STACK CFI INIT 1c84c 50 .cfa: sp 0 +
STACK CFI 1c850 .cfa: sp 32 +
STACK CFI 1c858 .cfa: x29 32 + x19: .cfa -16 + ^ .ra: .cfa -24 + ^ x29: .cfa -32 + ^
STACK CFI 1c870 .cfa: sp 32 +
STACK CFI 1c878 .cfa: sp 0 +
STACK CFI 1c87c .cfa: x29 32 +
STACK CFI 1c890 .cfa: sp 32 +
STACK CFI 1c898 .cfa: sp 0 +
STACK CFI INIT 1c89c 50 .cfa: sp 0 +
STACK CFI 1c8a0 .cfa: sp 32 +
STACK CFI 1c8a8 .cfa: x29 32 + x19: .cfa -16 + ^ .ra: .cfa -24 + ^ x29: .cfa -32 + ^
STACK CFI 1c8c0 .cfa: sp 32 +
STACK CFI 1c8c8 .cfa: sp 0 +
STACK CFI 1c8cc .cfa: x29 32 +
STACK CFI 1c8e0 .cfa: sp 32 +
STACK CFI 1c8e8 .cfa: sp 0 +
STACK CFI INIT 1c8ec f8 .cfa: sp 0 +
STACK CFI 1c8f0 .cfa: sp 64 +
STACK CFI 1c900 .cfa: x29 64 + x19: .cfa -8 + ^ x20: .cfa -16 + ^ x21: .cfa -24 + ^ x22: .cfa -32 + ^ x23: .cfa -48 + ^ .ra: .cfa -56 + ^ x29: .cfa -64 + ^
STACK CFI 1c95c .cfa: sp 64 +
STACK CFI 1c96c .cfa: sp 0 +
STACK CFI 1c970 .cfa: x29 64 +
STACK CFI 1c98c .cfa: sp 64 +
STACK CFI 1c99c .cfa: sp 0 +
STACK CFI 1c9a0 .cfa: x29 64 +
STACK CFI 1c9d0 .cfa: sp 64 +
STACK CFI 1c9e0 .cfa: sp 0 +
STACK CFI INIT 1c9e4 ac .cfa: sp 0 +
STACK CFI 1c9e8 .cfa: sp 64 +
STACK CFI 1c9f8 .cfa: x29 64 + x19: .cfa -8 + ^ x20: .cfa -16 + ^ x21: .cfa -24 + ^ x22: .cfa -32 + ^ x23: .cfa -48 + ^ .ra: .cfa -56 + ^ x29: .cfa -64 + ^
STACK CFI 1ca74 .cfa: sp 64 +
STACK CFI 1ca84 .cfa: sp 0 +
STACK CFI 1ca88 .cfa: x29 64 +
STACK CFI INIT 1ca90 4 .cfa: sp 0 +
STACK CFI INIT 1ca94 4 .cfa: sp 0 +
STACK CFI INIT 1ca98 34 .cfa: sp 0 +
STACK CFI 1ca9c .cfa: sp 32 +
STACK CFI 1caa4 .cfa: x29 32 + x19: .cfa -16 + ^ .ra: .cfa -24 + ^ x29: .cfa -32 + ^
STACK CFI 1cac0 .cfa: sp 32 +
STACK CFI 1cac8 .cfa: sp 0 +
STACK CFI INIT 1cacc 14 .cfa: sp 0 +
STACK CFI INIT 1cae0 4 .cfa: sp 0 +
STACK CFI INIT 1cae4 4 .cfa: sp 0 +
STACK CFI INIT 1cae8 8 .cfa: sp 0 +
STACK CFI INIT 1caf0 1c .cfa: sp 0 +
STACK CFI INIT 1cb0c c .cfa: sp 0 +
STACK CFI INIT 1cb18 4 .cfa: sp 0 +
STACK CFI INIT 1cb1c 4 .cfa: sp 0 +
STACK CFI INIT 1cb20 34 .cfa: sp 0 +
STACK CFI 1cb24 .cfa: sp 32 +
STACK CFI 1cb2c .cfa: x29 32 + x19: .cfa -16 + ^ .ra: .cfa -24 + ^ x29: .cfa -32 + ^
STACK CFI 1cb48 .cfa: sp 32 +
STACK CFI 1cb50 .cfa: sp 0 +
STACK CFI INIT 1cb54 14 .cfa: sp 0 +
STACK CFI INIT 1cb68 4 .cfa: sp 0 +
STACK CFI INIT 1cb6c 4 .cfa: sp 0 +
STACK CFI INIT 1cb70 14 .cfa: sp 0 +
STACK CFI INIT 1cb84 1c .cfa: sp 0 +
STACK CFI INIT 1cba0 c .cfa: sp 0 +
STACK CFI INIT 1d4e0 4 .cfa: sp 0 +
STACK CFI INIT 1d4e4 2a0 .cfa: sp 0 +
STACK CFI 1d4e8 .cfa: sp 96 +
STACK CFI 1d4fc .cfa: x29 64 + x19: .cfa -8 + ^ x20: .cfa -16 + ^ x21: .cfa -24 + ^ x22: .cfa -32 + ^ x23: .cfa -40 + ^ x24: .cfa -48 + ^ .ra: .cfa -56 + ^ x29: .cfa -64 + ^
STACK CFI 1d5c8 .cfa: sp 96 +
STACK CFI 1d5dc .cfa: sp 0 +
STACK CFI 1d5e0 .cfa: x29 64 +
STACK CFI 1d750 .cfa: sp 96 +
STACK CFI 1d764 .cfa: sp 0 +
STACK CFI 1d768 .cfa: x29 64 +
STACK CFI INIT 1d784 2ac .cfa: sp 0 +
STACK CFI 1d788 .cfa: sp 96 +
STACK CFI 1d79c .cfa: x29 64 + x19: .cfa -8 + ^ x20: .cfa -16 + ^ x21: .cfa -24 + ^ x22: .cfa -32 + ^ x23: .cfa -40 + ^ x24: .cfa -48 + ^ .ra: .cfa -56 + ^ x29: .cfa -64 + ^
STACK CFI 1d874 .cfa: sp 96 +
STACK CFI 1d888 .cfa: sp 0 +
STACK CFI 1d88c .cfa: x29 64 +
STACK CFI 1d9fc .cfa: sp 96 +
STACK CFI 1da10 .cfa: sp 0 +
STACK CFI 1da14 .cfa: x29 64 +
STACK CFI INIT 1da30 20 .cfa: sp 0 +
STACK CFI 1da34 .cfa: sp 16 +
STACK CFI 1da38 .cfa: x29 16 + .ra: .cfa -8 + ^ x29: .cfa -16 + ^
STACK CFI 1da48 .cfa: sp 16 +
STACK CFI 1da4c .cfa: sp 0 +
STACK CFI INIT 1daf8 90 .cfa: sp 0 +
STACK CFI 1dafc .cfa: sp 32 +
STACK CFI 1db04 .cfa: x29 32 + x19: .cfa -16 + ^ .ra: .cfa -24 + ^ x29: .cfa -32 + ^
STACK CFI 1db7c .cfa: sp 32 +
STACK CFI 1db84 .cfa: sp 0 +
STACK CFI INIT 1e1cc 4 .cfa: sp 0 +
STACK CFI INIT 1e354 1c .cfa: sp 0 +
STACK CFI 1e358 .cfa: sp 16 +
STACK CFI 1e35c .cfa: x29 16 + .ra: .cfa -8 + ^ x29: .cfa -16 + ^
STACK CFI 1e368 .cfa: sp 16 +
STACK CFI 1e36c .cfa: sp 0 +
STACK CFI INIT 1e370 1c .cfa: sp 0 +
STACK CFI 1e374 .cfa: sp 16 +
STACK CFI 1e378 .cfa: x29 16 + .ra: .cfa -8 + ^ x29: .cfa -16 + ^
STACK CFI 1e384 .cfa: sp 16 +
STACK CFI 1e388 .cfa: sp 0 +
STACK CFI INIT 1e38c 1c .cfa: sp 0 +
STACK CFI 1e390 .cfa: sp 16 +
STACK CFI 1e394 .cfa: x29 16 + .ra: .cfa -8 + ^ x29: .cfa -16 + ^
STACK CFI 1e3a0 .cfa: sp 16 +
STACK CFI 1e3a4 .cfa: sp 0 +
STACK CFI INIT 1e3a8 50 .cfa: sp 0 +
STACK CFI 1e3ac .cfa: sp 32 +
STACK CFI 1e3b4 .cfa: x29 32 + x19: .cfa -16 + ^ .ra: .cfa -24 + ^ x29: .cfa -32 + ^
STACK CFI 1e3cc .cfa: sp 32 +
STACK CFI 1e3d4 .cfa: sp 0 +
STACK CFI 1e3d8 .cfa: x29 32 +
STACK CFI 1e3ec .cfa: sp 32 +
STACK CFI 1e3f4 .cfa: sp 0 +
STACK CFI INIT 1e3f8 4 .cfa: sp 0 +
STACK CFI INIT 1e3fc 4 .cfa: sp 0 +
STACK CFI INIT 1e400 34 .cfa: sp 0 +
STACK CFI 1e404 .cfa: sp 32 +
STACK CFI 1e40c .cfa: x29 32 + x19: .cfa -16 + ^ .ra: .cfa -24 + ^ x29: .cfa -32 + ^
STACK CFI 1e428 .cfa: sp 32 +
STACK CFI 1e430 .cfa: sp 0 +
STACK CFI INIT 1e434 14 .cfa: sp 0 +
STACK CFI INIT 1e448 4 .cfa: sp 0 +
STACK CFI INIT 1e44c 4 .cfa: sp 0 +
STACK CFI INIT 1e568 1c .cfa: sp 0 +
STACK CFI INIT 1e584 c .cfa: sp 0 +
STACK CFI INIT 1e590 4 .cfa: sp 0 +
STACK CFI INIT 1e6f8 9c .cfa: sp 0 +
STACK CFI 1e6fc .cfa: sp 32 +
STACK CFI 1e704 .cfa: x29 32 + x19: .cfa -8 + ^ x20: .cfa -16 + ^ .ra: .cfa -24 + ^ x29: .cfa -32 + ^
STACK CFI 1e788 .cfa: sp 32 +
STACK CFI 1e790 .cfa: sp 0 +
STACK CFI INIT 1e794 a4 .cfa: sp 0 +
STACK CFI 1e798 .cfa: sp 32 +
STACK CFI 1e7a0 .cfa: x29 32 + x19: .cfa -8 + ^ x20: .cfa -16 + ^ .ra: .cfa -24 + ^ x29: .cfa -32 + ^
STACK CFI 1e82c .cfa: sp 32 +
STACK CFI 1e834 .cfa: sp 0 +
STACK CFI INIT 1e838 100 .cfa: sp 0 +
STACK CFI 1e83c .cfa: sp 48 +
STACK CFI 1e848 .cfa: x29 48 + x19: .cfa -8 + ^ x20: .cfa -16 + ^ x21: .cfa -24 + ^ x22: .cfa -32 + ^ .ra: .cfa -40 + ^ x29: .cfa -48 + ^
STACK CFI 1e918 .cfa: sp 48 +
STACK CFI 1e924 .cfa: sp 0 +
STACK CFI 1e928 .cfa: sp 48 +
STACK CFI 1e934 .cfa: sp 0 +
STACK CFI INIT 1e938 3c .cfa: sp 0 +
STACK CFI 1e93c .cfa: sp 32 +
STACK CFI 1e944 .cfa: x29 32 + x19: .cfa -16 + ^ .ra: .cfa -24 + ^ x29: .cfa -32 + ^
STACK CFI 1e950 .cfa: sp 32 +
STACK CFI 1e958 .cfa: sp 0 +
STACK CFI 1e95c .cfa: x29 32 +
STACK CFI 1e968 .cfa: sp 32 +
STACK CFI 1e970 .cfa: sp 0 +
STACK CFI INIT 1e974 4c .cfa: sp 0 +
STACK CFI 1e978 .cfa: sp 32 +
STACK CFI 1e980 .cfa: x29 32 + x19: .cfa -8 + ^ x20: .cfa -16 + ^ .ra: .cfa -24 + ^ x29: .cfa -32 + ^
STACK CFI 1e9a8 .cfa: sp 32 +
STACK CFI 1e9b0 .cfa: sp 0 +
STACK CFI 1e9b4 .cfa: sp 32 +
STACK CFI 1e9bc .cfa: sp 0 +
STACK CFI INIT 1ebe0 64 .cfa: sp 0 +
STACK CFI 1ebe4 .cfa: sp 32 +
STACK CFI 1ebec .cfa: x29 32 + x19: .cfa -16 + ^ .ra: .cfa -24 + ^ x29: .cfa -32 + ^
STACK CFI 1ec18 .cfa: sp 32 +
STACK CFI 1ec20 .cfa: sp 0 +
STACK CFI 1ec24 .cfa: x29 32 +
STACK CFI 1ec38 .cfa: sp 32 +
STACK CFI 1ec40 .cfa: sp 0 +
STACK CFI INIT 1ec44 24 .cfa: sp 0 +
STACK CFI 1ec48 .cfa: sp 32 +
STACK CFI 1ec50 .cfa: x29 32 + x19: .cfa -16 + ^ .ra: .cfa -24 + ^ x29: .cfa -32 + ^
STACK CFI 1ec5c .cfa: sp 32 +
STACK CFI 1ec64 .cfa: sp 0 +
STACK CFI INIT 1ec68 24 .cfa: sp 0 +
STACK CFI 1ec6c .cfa: sp 32 +
STACK CFI 1ec74 .cfa: x29 32 + x19: .cfa -16 + ^ .ra: .cfa -24 + ^ x29: .cfa -32 + ^
STACK CFI 1ec80 .cfa: sp 32 +
STACK CFI 1ec88 .cfa: sp 0 +
STACK CFI INIT 1ec8c 8 .cfa: sp 0 +
STACK CFI INIT 1ec94 24 .cfa: sp 0 +
STACK CFI 1ec98 .cfa: sp 32 +
STACK CFI 1eca0 .cfa: x29 32 + x19: .cfa -16 + ^ .ra: .cfa -24 + ^ x29: .cfa -32 + ^
STACK CFI 1ecac .cfa: sp 32 +
STACK CFI 1ecb4 .cfa: sp 0 +
STACK CFI INIT 1ecb8 28 .cfa: sp 0 +
STACK CFI 1ecbc .cfa: sp 32 +
STACK CFI 1ecc4 .cfa: x29 32 + x19: .cfa -16 + ^ .ra: .cfa -24 + ^ x29: .cfa -32 + ^
STACK CFI 1ecd4 .cfa: sp 32 +
STACK CFI 1ecdc .cfa: sp 0 +
STACK CFI INIT 1efb8 8 .cfa: sp 0 +
STACK CFI INIT 1efc0 24 .cfa: sp 0 +
STACK CFI 1efc4 .cfa: sp 32 +
STACK CFI 1efcc .cfa: x29 32 + x19: .cfa -16 + ^ .ra: .cfa -24 + ^ x29: .cfa -32 + ^
STACK CFI 1efd8 .cfa: sp 32 +
STACK CFI 1efe0 .cfa: sp 0 +
STACK CFI INIT 1efe4 28 .cfa: sp 0 +
STACK CFI 1efe8 .cfa: sp 32 +
STACK CFI 1eff0 .cfa: x29 32 + x19: .cfa -16 + ^ .ra: .cfa -24 + ^ x29: .cfa -32 + ^
STACK CFI 1f000 .cfa: sp 32 +
STACK CFI 1f008 .cfa: sp 0 +
STACK CFI INIT 1f25c 8 .cfa: sp 0 +
STACK CFI INIT 1f264 24 .cfa: sp 0 +
STACK CFI 1f268 .cfa: sp 32 +
STACK CFI 1f270 .cfa: x29 32 + x19: .cfa -16 + ^ .ra: .cfa -24 + ^ x29: .cfa -32 + ^
STACK CFI 1f27c .cfa: sp 32 +
STACK CFI 1f284 .cfa: sp 0 +
STACK CFI INIT 1f288 28 .cfa: sp 0 +
STACK CFI 1f28c .cfa: sp 32 +
STACK CFI 1f294 .cfa: x29 32 + x19: .cfa -16 + ^ .ra: .cfa -24 + ^ x29: .cfa -32 + ^
STACK CFI 1f2a4 .cfa: sp 32 +
STACK CFI 1f2ac .cfa: sp 0 +
STACK CFI INIT 1f2b0 8 .cfa: sp 0 +
STACK CFI INIT 1f2b8 24 .cfa: sp 0 +
STACK CFI 1f2bc .cfa: sp 32 +
STACK CFI 1f2c4 .cfa: x29 32 + x19: .cfa -16 + ^ .ra: .cfa -24 + ^ x29: .cfa -32 + ^
STACK CFI 1f2d0 .cfa: sp 32 +
STACK CFI 1f2d8 .cfa: sp 0 +
STACK CFI INIT 1f2dc 28 .cfa: sp 0 +
STACK CFI 1f2e0 .cfa: sp 32 +
STACK CFI 1f2e8 .cfa: x29 32 + x19: .cfa -16 + ^ .ra: .cfa -24 + ^ x29: .cfa -32 + ^
STACK CFI 1f2f8 .cfa: sp 32 +
STACK CFI 1f300 .cfa: sp 0 +
STACK CFI INIT 1f304 4 .cfa: sp 0 +
STACK CFI INIT 20548 4 .cfa: sp 0 +
STACK CFI INIT 2054c 14 .cfa: sp 0 +
STACK CFI INIT 1543c bb4 .cfa: sp 0 +
STACK CFI 15440 .cfa: sp 96 +
STACK CFI 15458 .cfa: x29 96 + x19: .cfa -8 + ^ x20: .cfa -16 + ^ x21: .cfa -24 + ^ x22: .cfa -32 + ^ x23: .cfa -40 + ^ x24: .cfa -48 + ^ x25: .cfa -56 + ^ x26: .cfa -64 + ^ x27: .cfa -72 + ^ x28: .cfa -80 + ^ .ra: .cfa -88 + ^ x29: .cfa -96 + ^
STACK CFI 15d60 .cfa: sp 96 +
STACK CFI 15d78 .cfa: sp 0 +
STACK CFI 15d7c .cfa: x29 96 +
STACK CFI 15e04 .cfa: sp 96 +
STACK CFI 15e1c .cfa: sp 0 +
STACK CFI 15e20 .cfa: x29 96 +
STACK CFI 15e58 .cfa: sp 96 +
STACK CFI 15e70 .cfa: sp 0 +
STACK CFI 15e74 .cfa: x29 96 +
STACK CFI INIT 160ec 70c .cfa: sp 0 +
STACK CFI 160f0 .cfa: sp 352 +
STACK CFI 1610c .cfa: x29 96 + x19: .cfa -8 + ^ x20: .cfa -16 + ^ x21: .cfa -24 + ^ x22: .cfa -32 + ^ x23: .cfa -40 + ^ x24: .cfa -48 + ^ x25: .cfa -56 + ^ x26: .cfa -64 + ^ x27: .cfa -72 + ^ x28: .cfa -80 + ^ .ra: .cfa -88 + ^ x29: .cfa -96 + ^
STACK CFI 16668 .cfa: sp 352 +
STACK CFI 16684 .cfa: sp 0 +
STACK CFI 16688 .cfa: x29 96 +
STACK CFI INIT 16834 a30 .cfa: sp 0 +
STACK CFI 16838 .cfa: sp 240 +
STACK CFI 16850 .cfa: x29 80 + x19: .cfa -8 + ^ x20: .cfa -16 + ^ x21: .cfa -24 + ^ x22: .cfa -32 + ^ x23: .cfa -40 + ^ x24: .cfa -48 + ^ x25: .cfa -64 + ^ .ra: .cfa -72 + ^ x29: .cfa -80 + ^
STACK CFI 170e8 .cfa: sp 240 +
STACK CFI 17100 .cfa: sp 0 +
STACK CFI 17104 .cfa: x29 80 +
STACK CFI INIT 173ac 484 .cfa: sp 0 +
STACK CFI 173b0 .cfa: sp 224 +
STACK CFI 173cc .cfa: x29 96 + x19: .cfa -8 + ^ x20: .cfa -16 + ^ x21: .cfa -24 + ^ x22: .cfa -32 + ^ x23: .cfa -40 + ^ x24: .cfa -48 + ^ x25: .cfa -56 + ^ x26: .cfa -64 + ^ x27: .cfa -72 + ^ x28: .cfa -80 + ^ .ra: .cfa -88 + ^ x29: .cfa -96 + ^
STACK CFI 1763c .cfa: sp 224 +
STACK CFI 17658 .cfa: sp 0 +
STACK CFI 1765c .cfa: x29 96 +
STACK CFI 17728 .cfa: sp 224 +
STACK CFI 17744 .cfa: sp 0 +
STACK CFI 17748 .cfa: x29 96 +
STACK CFI INIT 17848 45c .cfa: sp 0 +
STACK CFI 1784c .cfa: sp 224 +
STACK CFI 17868 .cfa: x29 96 + x19: .cfa -8 + ^ x20: .cfa -16 + ^ x21: .cfa -24 + ^ x22: .cfa -32 + ^ x23: .cfa -40 + ^ x24: .cfa -48 + ^ x25: .cfa -56 + ^ x26: .cfa -64 + ^ x27: .cfa -72 + ^ x28: .cfa -80 + ^ .ra: .cfa -88 + ^ x29: .cfa -96 + ^
STACK CFI 17b8c .cfa: sp 224 +
STACK CFI 17ba8 .cfa: sp 0 +
STACK CFI 17bac .cfa: x29 96 +
STACK CFI INIT 17ca4 45c .cfa: sp 0 +
STACK CFI 17ca8 .cfa: sp 224 +
STACK CFI 17cc4 .cfa: x29 96 + x19: .cfa -8 + ^ x20: .cfa -16 + ^ x21: .cfa -24 + ^ x22: .cfa -32 + ^ x23: .cfa -40 + ^ x24: .cfa -48 + ^ x25: .cfa -56 + ^ x26: .cfa -64 + ^ x27: .cfa -72 + ^ x28: .cfa -80 + ^ .ra: .cfa -88 + ^ x29: .cfa -96 + ^
STACK CFI 17fe8 .cfa: sp 224 +
STACK CFI 18004 .cfa: sp 0 +
STACK CFI 18008 .cfa: x29 96 +
STACK CFI INIT 18920 640 .cfa: sp 0 +
STACK CFI 18924 .cfa: sp 224 +
STACK CFI 18940 .cfa: x29 96 + x19: .cfa -8 + ^ x20: .cfa -16 + ^ x21: .cfa -24 + ^ x22: .cfa -32 + ^ x23: .cfa -40 + ^ x24: .cfa -48 + ^ x25: .cfa -56 + ^ x26: .cfa -64 + ^ x27: .cfa -72 + ^ x28: .cfa -80 + ^ .ra: .cfa -88 + ^ x29: .cfa -96 + ^
STACK CFI 18df0 .cfa: sp 224 +
STACK CFI 18e0c .cfa: sp 0 +
STACK CFI 18e10 .cfa: x29 96 +
STACK CFI INIT 18f78 50 .cfa: sp 0 +
STACK CFI 18f7c .cfa: sp 32 +
STACK CFI 18f84 .cfa: x29 32 + x19: .cfa -8 + ^ x20: .cfa -16 + ^ .ra: .cfa -24 + ^ x29: .cfa -32 + ^
STACK CFI INIT 1904c 50 .cfa: sp 0 +
STACK CFI 19050 .cfa: sp 32 +
STACK CFI 19058 .cfa: x29 32 + x19: .cfa -8 + ^ x20: .cfa -16 + ^ .ra: .cfa -24 + ^ x29: .cfa -32 + ^
STACK CFI INIT 19204 224 .cfa: sp 0 +
STACK CFI 19208 .cfa: sp 128 +
STACK CFI 19220 .cfa: x29 80 + x19: .cfa -8 + ^ x20: .cfa -16 + ^ x21: .cfa -24 + ^ x22: .cfa -32 + ^ x23: .cfa -40 + ^ x24: .cfa -48 + ^ x25: .cfa -64 + ^ .ra: .cfa -72 + ^ x29: .cfa -80 + ^
STACK CFI 193bc .cfa: sp 128 +
STACK CFI 193d4 .cfa: sp 0 +
STACK CFI 193d8 .cfa: x29 80 +
STACK CFI INIT 195cc 6c .cfa: sp 0 +
STACK CFI 195d0 .cfa: sp 32 +
STACK CFI 195d8 .cfa: x29 32 + x19: .cfa -16 + ^ .ra: .cfa -24 + ^ x29: .cfa -32 + ^
STACK CFI 19628 .cfa: sp 32 +
STACK CFI 19630 .cfa: sp 0 +
STACK CFI 19634 .cfa: x29 32 +
STACK CFI INIT 19638 74 .cfa: sp 0 +
STACK CFI 1963c .cfa: sp 32 +
STACK CFI 19644 .cfa: x29 32 + x19: .cfa -16 + ^ .ra: .cfa -24 + ^ x29: .cfa -32 + ^
STACK CFI 1969c .cfa: sp 32 +
STACK CFI 196a4 .cfa: sp 0 +
STACK CFI 196a8 .cfa: x29 32 +
STACK CFI INIT 1970c 768 .cfa: sp 0 +
STACK CFI 19710 .cfa: sp 128 +
STACK CFI 1972c .cfa: x29 72 + x19: .cfa -8 + ^ x20: .cfa -16 + ^ x21: .cfa -24 + ^ x22: .cfa -32 + ^ x23: .cfa -40 + ^ x24: .cfa -48 + ^ x25: .cfa -56 + ^ .ra: .cfa -64 + ^ x29: .cfa -72 + ^ v8: .cfa -80 + ^
STACK CFI 19e24 .cfa: sp 128 +
STACK CFI 19e40 .cfa: sp 0 +
STACK CFI 19e44 .cfa: x29 72 +
STACK CFI INIT 19e74 148 .cfa: sp 0 +
STACK CFI 19e78 .cfa: sp 96 +
STACK CFI 19e88 .cfa: x29 48 + x19: .cfa -8 + ^ x20: .cfa -16 + ^ x21: .cfa -32 + ^ .ra: .cfa -40 + ^ x29: .cfa -48 + ^
STACK CFI 19f70 .cfa: sp 96 +
STACK CFI 19f80 .cfa: sp 0 +
STACK CFI 19f84 .cfa: x29 48 +
STACK CFI INIT 19fbc 6c .cfa: sp 0 +
STACK CFI 19fc0 .cfa: sp 32 +
STACK CFI 19fc8 .cfa: x29 32 + x19: .cfa -16 + ^ .ra: .cfa -24 + ^ x29: .cfa -32 + ^
STACK CFI 1a018 .cfa: sp 32 +
STACK CFI 1a020 .cfa: sp 0 +
STACK CFI 1a024 .cfa: x29 32 +
STACK CFI INIT 1a028 74 .cfa: sp 0 +
STACK CFI 1a02c .cfa: sp 32 +
STACK CFI 1a034 .cfa: x29 32 + x19: .cfa -16 + ^ .ra: .cfa -24 + ^ x29: .cfa -32 + ^
STACK CFI 1a08c .cfa: sp 32 +
STACK CFI 1a094 .cfa: sp 0 +
STACK CFI 1a098 .cfa: x29 32 +
STACK CFI INIT 1a0d8 6c .cfa: sp 0 +
STACK CFI 1a0dc .cfa: sp 32 +
STACK CFI 1a0e4 .cfa: x29 32 + x19: .cfa -16 + ^ .ra: .cfa -24 + ^ x29: .cfa -32 + ^
STACK CFI 1a134 .cfa: sp 32 +
STACK CFI 1a13c .cfa: sp 0 +
STACK CFI 1a140 .cfa: x29 32 +
STACK CFI INIT 1a368 a24 .cfa: sp 0 +
STACK CFI 1a36c .cfa: sp 288 +
STACK CFI 1a388 .cfa: x29 96 + x19: .cfa -8 + ^ x20: .cfa -16 + ^ x21: .cfa -24 + ^ x22: .cfa -32 + ^ x23: .cfa -40 + ^ x24: .cfa -48 + ^ x25: .cfa -56 + ^ x26: .cfa -64 + ^ x28: .cfa -80 + ^ .ra: .cfa -88 + ^ x29: .cfa -96 + ^
STACK CFI 1aa94 .cfa: sp 288 +
STACK CFI 1aab0 .cfa: sp 0 +
STACK CFI 1aab4 .cfa: x29 96 +
STACK CFI INIT 1addc 74 .cfa: sp 0 +
STACK CFI 1ade0 .cfa: sp 48 +
STACK CFI 1adec .cfa: x29 32 + x19: .cfa -8 + ^ x20: .cfa -16 + ^ .ra: .cfa -24 + ^ x29: .cfa -32 + ^
STACK CFI 1ae38 .cfa: sp 48 +
STACK CFI 1ae44 .cfa: sp 0 +
STACK CFI 1ae48 .cfa: x29 32 +
STACK CFI INIT 1ae54 154 .cfa: sp 0 +
STACK CFI 1ae58 .cfa: sp 384 +
STACK CFI 1ae6c .cfa: x29 64 + x19: .cfa -8 + ^ x20: .cfa -16 + ^ x21: .cfa -24 + ^ x22: .cfa -32 + ^ x23: .cfa -40 + ^ x28: .cfa -48 + ^ .ra: .cfa -56 + ^ x29: .cfa -64 + ^
STACK CFI 1af50 .cfa: sp 384 +
STACK CFI 1af64 .cfa: sp 0 +
STACK CFI 1af68 .cfa: x29 64 +
STACK CFI INIT 1afdc 12c .cfa: sp 0 +
STACK CFI 1afe0 .cfa: sp 80 +
STACK CFI 1aff4 .cfa: x29 80 + x19: .cfa -8 + ^ x20: .cfa -16 + ^ x21: .cfa -24 + ^ x22: .cfa -32 + ^ x23: .cfa -40 + ^ x24: .cfa -48 + ^ x25: .cfa -56 + ^ x26: .cfa -64 + ^ .ra: .cfa -72 + ^ x29: .cfa -80 + ^
STACK CFI 1b0bc .cfa: sp 80 +
STACK CFI 1b0d0 .cfa: sp 0 +
STACK CFI 1b0d4 .cfa: x29 80 +
STACK CFI INIT 1b12c 1a4 .cfa: sp 0 +
STACK CFI 1b130 .cfa: sp 112 +
STACK CFI 1b148 .cfa: x29 80 + x19: .cfa -8 + ^ x20: .cfa -16 + ^ x21: .cfa -24 + ^ x22: .cfa -32 + ^ x23: .cfa -40 + ^ x24: .cfa -48 + ^ x25: .cfa -56 + ^ x26: .cfa -64 + ^ .ra: .cfa -72 + ^ x29: .cfa -80 + ^
STACK CFI 1b238 .cfa: sp 112 +
STACK CFI 1b250 .cfa: sp 0 +
STACK CFI 1b254 .cfa: x29 80 +
STACK CFI INIT 1b2d0 1dc .cfa: sp 0 +
STACK CFI 1b2d4 .cfa: sp 128 +
STACK CFI 1b2f0 .cfa: x29 96 + x19: .cfa -8 + ^ x20: .cfa -16 + ^ x21: .cfa -24 + ^ x22: .cfa -32 + ^ x23: .cfa -40 + ^ x24: .cfa -48 + ^ x25: .cfa -56 + ^ x26: .cfa -64 + ^ x27: .cfa -80 + ^ .ra: .cfa -88 + ^ x29: .cfa -96 + ^
STACK CFI 1b45c .cfa: sp 128 +
STACK CFI 1b478 .cfa: sp 0 +
STACK CFI 1b47c .cfa: x29 96 +
STACK CFI INIT 1b4ac 178 .cfa: sp 0 +
STACK CFI 1b4b0 .cfa: sp 80 +
STACK CFI 1b4c4 .cfa: x29 80 + x19: .cfa -8 + ^ x20: .cfa -16 + ^ x21: .cfa -24 + ^ x22: .cfa -32 + ^ x23: .cfa -40 + ^ x24: .cfa -48 + ^ x25: .cfa -64 + ^ .ra: .cfa -72 + ^ x29: .cfa -80 + ^
STACK CFI 1b5f0 .cfa: sp 80 +
STACK CFI 1b604 .cfa: sp 0 +
STACK CFI 1b608 .cfa: x29 80 +
STACK CFI INIT 1beb0 2b8 .cfa: sp 0 +
STACK CFI 1beb4 .cfa: sp 80 +
STACK CFI 1bec4 .cfa: x29 48 + x19: .cfa -8 + ^ x20: .cfa -16 + ^ x21: .cfa -24 + ^ x22: .cfa -32 + ^ .ra: .cfa -40 + ^ x29: .cfa -48 + ^
STACK CFI 1c120 .cfa: sp 80 +
STACK CFI 1c130 .cfa: sp 0 +
STACK CFI 1c134 .cfa: x29 48 +
STACK CFI INIT 1c168 184 .cfa: sp 0 +
STACK CFI 1c16c .cfa: sp 160 +
STACK CFI 1c184 .cfa: x29 80 + x19: .cfa -8 + ^ x20: .cfa -16 + ^ x21: .cfa -24 + ^ x22: .cfa -32 + ^ x23: .cfa -40 + ^ x24: .cfa -48 + ^ x25: .cfa -56 + ^ x26: .cfa -64 + ^ .ra: .cfa -72 + ^ x29: .cfa -80 + ^
STACK CFI 1c284 .cfa: sp 160 +
STACK CFI 1c29c .cfa: sp 0 +
STACK CFI 1c2a0 .cfa: x29 80 +
STACK CFI INIT 1c324 a8 .cfa: sp 0 +
STACK CFI 1c328 .cfa: sp 32 +
STACK CFI 1c330 .cfa: x29 32 + x19: .cfa -16 + ^ .ra: .cfa -24 + ^ x29: .cfa -32 + ^
STACK CFI 1c364 .cfa: sp 32 +
STACK CFI 1c36c .cfa: sp 0 +
STACK CFI 1c370 .cfa: x29 32 +
STACK CFI 1c374 .cfa: sp 32 +
STACK CFI 1c37c .cfa: sp 0 +
STACK CFI 1c380 .cfa: x29 32 +
STACK CFI INIT 1cbac 934 .cfa: sp 0 +
STACK CFI 1cbb0 .cfa: sp 288 +
STACK CFI 1cbcc .cfa: x29 96 + x19: .cfa -8 + ^ x20: .cfa -16 + ^ x21: .cfa -24 + ^ x22: .cfa -32 + ^ x23: .cfa -40 + ^ x24: .cfa -48 + ^ x25: .cfa -56 + ^ x26: .cfa -64 + ^ x27: .cfa -72 + ^ x28: .cfa -80 + ^ .ra: .cfa -88 + ^ x29: .cfa -96 + ^
STACK CFI 1d250 .cfa: sp 288 +
STACK CFI 1d26c .cfa: sp 0 +
STACK CFI 1d270 .cfa: x29 96 +
STACK CFI INIT 1da50 a8 .cfa: sp 0 +
STACK CFI 1da54 .cfa: sp 32 +
STACK CFI 1da5c .cfa: x29 32 + x19: .cfa -16 + ^ .ra: .cfa -24 + ^ x29: .cfa -32 + ^
STACK CFI 1da90 .cfa: sp 32 +
STACK CFI 1da98 .cfa: sp 0 +
STACK CFI 1da9c .cfa: x29 32 +
STACK CFI 1daa0 .cfa: sp 32 +
STACK CFI 1daa8 .cfa: sp 0 +
STACK CFI 1daac .cfa: x29 32 +
STACK CFI INIT 1db88 644 .cfa: sp 0 +
STACK CFI 1db8c .cfa: sp 176 +
STACK CFI 1dba0 .cfa: x29 64 + x19: .cfa -8 + ^ x20: .cfa -16 + ^ x21: .cfa -24 + ^ x22: .cfa -32 + ^ x23: .cfa -40 + ^ x24: .cfa -48 + ^ .ra: .cfa -56 + ^ x29: .cfa -64 + ^
STACK CFI 1e000 .cfa: sp 176 +
STACK CFI 1e014 .cfa: sp 0 +
STACK CFI 1e018 .cfa: x29 64 +
STACK CFI INIT 1e1d0 184 .cfa: sp 0 +
STACK CFI 1e1d4 .cfa: sp 160 +
STACK CFI 1e1ec .cfa: x29 80 + x19: .cfa -8 + ^ x20: .cfa -16 + ^ x21: .cfa -24 + ^ x22: .cfa -32 + ^ x23: .cfa -40 + ^ x24: .cfa -48 + ^ x25: .cfa -56 + ^ x26: .cfa -64 + ^ .ra: .cfa -72 + ^ x29: .cfa -80 + ^
STACK CFI 1e2ec .cfa: sp 160 +
STACK CFI 1e304 .cfa: sp 0 +
STACK CFI 1e308 .cfa: x29 80 +
STACK CFI INIT 1e450 118 .cfa: sp 0 +
STACK CFI 1e454 .cfa: sp 48 +
STACK CFI 1e460 .cfa: x29 48 + x19: .cfa -8 + ^ x20: .cfa -16 + ^ x21: .cfa -32 + ^ .ra: .cfa -40 + ^ x29: .cfa -48 + ^
STACK CFI 1e4e4 .cfa: sp 48 +
STACK CFI 1e4f0 .cfa: sp 0 +
STACK CFI 1e4f4 .cfa: x29 48 +
STACK CFI 1e53c .cfa: sp 48 +
STACK CFI 1e548 .cfa: sp 0 +
STACK CFI 1e54c .cfa: x29 48 +
STACK CFI INIT 1e594 164 .cfa: sp 0 +
STACK CFI 1e598 .cfa: sp 112 +
STACK CFI 1e5a8 .cfa: x29 48 + x19: .cfa -8 + ^ x20: .cfa -16 + ^ x21: .cfa -24 + ^ x22: .cfa -32 + ^ .ra: .cfa -40 + ^ x29: .cfa -48 + ^
STACK CFI 1e694 .cfa: sp 112 +
STACK CFI 1e6a4 .cfa: sp 0 +
STACK CFI 1e6a8 .cfa: x29 48 +
STACK CFI INIT 18100 7e0 .cfa: sp 0 +
STACK CFI 18104 .cfa: sp 224 +
STACK CFI 18120 .cfa: x29 96 + x19: .cfa -8 + ^ x20: .cfa -16 + ^ x21: .cfa -24 + ^ x22: .cfa -32 + ^ x23: .cfa -40 + ^ x24: .cfa -48 + ^ x25: .cfa -56 + ^ x26: .cfa -64 + ^ x27: .cfa -72 + ^ x28: .cfa -80 + ^ .ra: .cfa -88 + ^ x29: .cfa -96 + ^
STACK CFI 187b0 .cfa: sp 224 +
STACK CFI 187cc .cfa: sp 0 +
STACK CFI 187d0 .cfa: x29 96 +
STACK CFI INIT 1e9c0 134 .cfa: sp 0 +
STACK CFI 1e9c4 .cfa: sp 80 +
STACK CFI 1e9d0 .cfa: x29 32 + x19: .cfa -8 + ^ x20: .cfa -16 + ^ .ra: .cfa -24 + ^ x29: .cfa -32 + ^
STACK CFI 1ea00 .cfa: sp 80 +
STACK CFI 1ea0c .cfa: sp 0 +
STACK CFI 1ea10 .cfa: x29 32 +
STACK CFI INIT 1eaf4 78 .cfa: sp 0 +
STACK CFI 1eaf8 .cfa: sp 32 +
STACK CFI 1eb00 .cfa: x29 32 + x19: .cfa -8 + ^ x20: .cfa -16 + ^ .ra: .cfa -24 + ^ x29: .cfa -32 + ^
STACK CFI 1eb0c .cfa: sp 32 +
STACK CFI 1eb14 .cfa: sp 0 +
STACK CFI 1eb18 .cfa: x29 32 +
STACK CFI INIT 1eb6c 74 .cfa: sp 0 +
STACK CFI 1eb70 .cfa: sp 48 +
STACK CFI 1eb7c .cfa: x29 32 + x19: .cfa -8 + ^ x20: .cfa -16 + ^ .ra: .cfa -24 + ^ x29: .cfa -32 + ^
STACK CFI 1ebc8 .cfa: sp 48 +
STACK CFI 1ebd4 .cfa: sp 0 +
STACK CFI 1ebd8 .cfa: x29 32 +
STACK CFI INIT 1ece0 2d8 .cfa: sp 0 +
STACK CFI 1ece4 .cfa: sp 128 +
STACK CFI 1ecf8 .cfa: x29 64 + x19: .cfa -8 + ^ x20: .cfa -16 + ^ x21: .cfa -24 + ^ x22: .cfa -32 + ^ x23: .cfa -48 + ^ .ra: .cfa -56 + ^ x29: .cfa -64 + ^
STACK CFI 1ee64 .cfa: sp 128 +
STACK CFI 1ee78 .cfa: sp 0 +
STACK CFI 1ee7c .cfa: x29 64 +
STACK CFI INIT 1f00c 250 .cfa: sp 0 +
STACK CFI 1f010 .cfa: sp 112 +
STACK CFI 1f020 .cfa: x29 48 + x19: .cfa -8 + ^ x20: .cfa -16 + ^ x21: .cfa -32 + ^ .ra: .cfa -40 + ^ x29: .cfa -48 + ^
STACK CFI 1f104 .cfa: sp 112 +
STACK CFI 1f114 .cfa: sp 0 +
STACK CFI 1f118 .cfa: x29 48 +
STACK CFI INIT 1f308 2bc .cfa: sp 0 +
STACK CFI 1f30c .cfa: sp 128 +
STACK CFI 1f320 .cfa: x29 64 + x19: .cfa -8 + ^ x20: .cfa -16 + ^ x21: .cfa -24 + ^ x22: .cfa -32 + ^ x23: .cfa -48 + ^ .ra: .cfa -56 + ^ x29: .cfa -64 + ^
STACK CFI 1f470 .cfa: sp 128 +
STACK CFI 1f484 .cfa: sp 0 +
STACK CFI 1f488 .cfa: x29 64 +
STACK CFI INIT 1f5c4 2bc .cfa: sp 0 +
STACK CFI 1f5c8 .cfa: sp 128 +
STACK CFI 1f5dc .cfa: x29 64 + x19: .cfa -8 + ^ x20: .cfa -16 + ^ x21: .cfa -24 + ^ x22: .cfa -32 + ^ x23: .cfa -48 + ^ .ra: .cfa -56 + ^ x29: .cfa -64 + ^
STACK CFI 1f72c .cfa: sp 128 +
STACK CFI 1f740 .cfa: sp 0 +
STACK CFI 1f744 .cfa: x29 64 +
STACK CFI INIT 1f880 278 .cfa: sp 0 +
STACK CFI 1f884 .cfa: sp 128 +
STACK CFI 1f898 .cfa: x29 64 + x19: .cfa -8 + ^ x20: .cfa -16 + ^ x21: .cfa -24 + ^ x22: .cfa -32 + ^ x23: .cfa -48 + ^ .ra: .cfa -56 + ^ x29: .cfa -64 + ^
STACK CFI 1f9a4 .cfa: sp 128 +
STACK CFI 1f9b8 .cfa: sp 0 +
STACK CFI 1f9bc .cfa: x29 64 +
STACK CFI INIT 1faf8 2c8 .cfa: sp 0 +
STACK CFI 1fafc .cfa: sp 128 +
STACK CFI 1fb10 .cfa: x29 64 + x19: .cfa -8 + ^ x20: .cfa -16 + ^ x21: .cfa -24 + ^ x22: .cfa -32 + ^ x23: .cfa -48 + ^ .ra: .cfa -56 + ^ x29: .cfa -64 + ^
STACK CFI 1fc6c .cfa: sp 128 +
STACK CFI 1fc80 .cfa: sp 0 +
STACK CFI 1fc84 .cfa: x29 64 +
STACK CFI INIT 1fdc0 4cc .cfa: sp 0 +
STACK CFI 1fdc4 .cfa: sp 128 +
STACK CFI 1fdd8 .cfa: x29 64 + x19: .cfa -8 + ^ x20: .cfa -16 + ^ x21: .cfa -24 + ^ x22: .cfa -32 + ^ x23: .cfa -48 + ^ .ra: .cfa -56 + ^ x29: .cfa -64 + ^
STACK CFI 200e4 .cfa: sp 128 +
STACK CFI 200f8 .cfa: sp 0 +
STACK CFI 200fc .cfa: x29 64 +
STACK CFI INIT 2028c 154 .cfa: sp 0 +
STACK CFI 20290 .cfa: sp 384 +
STACK CFI 202a4 .cfa: x29 64 + x19: .cfa -8 + ^ x20: .cfa -16 + ^ x21: .cfa -24 + ^ x22: .cfa -32 + ^ x23: .cfa -40 + ^ x28: .cfa -48 + ^ .ra: .cfa -56 + ^ x29: .cfa -64 + ^
STACK CFI 20388 .cfa: sp 384 +
STACK CFI 2039c .cfa: sp 0 +
STACK CFI 203a0 .cfa: x29 64 +
STACK CFI INIT 203e0 168 .cfa: sp 0 +
STACK CFI 203e4 .cfa: sp 384 +
STACK CFI 203f8 .cfa: x29 64 + x19: .cfa -8 + ^ x20: .cfa -16 + ^ x21: .cfa -24 + ^ x22: .cfa -32 + ^ x23: .cfa -40 + ^ x28: .cfa -48 + ^ .ra: .cfa -56 + ^ x29: .cfa -64 + ^
STACK CFI 204f0 .cfa: sp 384 +
STACK CFI 20504 .cfa: sp 0 +
STACK CFI 20508 .cfa: x29 64 +
STACK CFI INIT 20560 4e0 .cfa: sp 0 +
STACK CFI 20564 .cfa: sp 64 +
STACK CFI 20574 .cfa: x29 64 + x19: .cfa -8 + ^ x20: .cfa -16 + ^ x21: .cfa -24 + ^ x22: .cfa -32 + ^ x23: .cfa -40 + ^ x24: .cfa -48 + ^ .ra: .cfa -56 + ^ x29: .cfa -64 + ^
STACK CFI 20a14 .cfa: sp 64 +
STACK CFI 20a24 .cfa: sp 0 +
STACK CFI 20a28 .cfa: x29 64 +
