MODULE Linux arm64 A35EBDA1BAE3BE146E8FBBD43C7850140 uproxide.all_hail_plankton.android64.so
INFO CODE_ID A1BD5EA3E3BA14BE6E8FBBD43C7850142AF69D1A
INFO GENERATOR mozilla/dump_syms 2.3.4
PUBLIC 3870 0 __on_dlclose
PUBLIC 3880 0 __emutls_unregister_key
PUBLIC 3888 0 __on_dlclose_late
PUBLIC 3890 0 __atexit_handler_wrapper
PUBLIC 38a4 0 atexit
PUBLIC 38c0 0 pthread_atfork
PUBLIC 38d0 0 __aarch64_ldadd8_relax
PUBLIC 3900 0 init_have_lse_atomics
PUBLIC 3998 0 __init_cpu_features_constructor
PUBLIC 3f34 0 __init_cpu_features
PUBLIC 3fc0 0 __aarch64_ldadd8_acq_rel
PUBLIC 3ff0 0 __cxx_global_var_init
PUBLIC 4bc4 0 geode::modifier::ModifyBase<geode::modifier::ModifyDerive<Plankton, MenuLayer> >::~ModifyBase()
PUBLIC 4bdc 0 geode::modifier::ModifyDerive<Plankton, MenuLayer>::apply()
PUBLIC 4fe4 0 std::__ndk1::shared_ptr<geode::Hook>::~shared_ptr[abi:ne180000]()
PUBLIC 5034 0 geode::impl::ResultData<geode::Hook*, std::__ndk1::basic_string<char, std::__ndk1::char_traits<char>, std::__ndk1::allocator<char> > >::~ResultData()
PUBLIC 50a8 0 std::__ndk1::vector<std::__ndk1::basic_string<char, std::__ndk1::char_traits<char>, std::__ndk1::allocator<char> >, std::__ndk1::allocator<std::__ndk1::basic_string<char, std::__ndk1::char_traits<char>, std::__ndk1::allocator<char> > > >::~vector[abi:ne180000]()
PUBLIC 5124 0 geode::modifier::ModifyBase<geode::modifier::ModifyDerive<Plankton, MenuLayer> >::apply()
PUBLIC 5128 0 __clang_call_terminate
PUBLIC 5138 0 _ZN5geode15UnwrapExceptionC2IRPNS_4HookEQsr4implE18IsStringStreamableIT_EEENS_4impl5OkTagEOS5_
PUBLIC 528c 0 std::__ndk1::__throw_bad_variant_access[abi:ne180000]()
PUBLIC 52c0 0 std::__ndk1::basic_stringstream<char, std::__ndk1::char_traits<char>, std::__ndk1::allocator<char> >::basic_stringstream[abi:ne180000]()
PUBLIC m 53ec 0 std::__ndk1::basic_stringstream<char, std::__ndk1::char_traits<char>, std::__ndk1::allocator<char> >::~basic_stringstream()
PUBLIC 546c 0 geode::UnwrapException::~UnwrapException()
PUBLIC 5490 0 std::__ndk1::__put_character_sequence[abi:ne180000]<char, std::__ndk1::char_traits<char> >(std::__ndk1::basic_ostream<char, std::__ndk1::char_traits<char> >, std::__ndk1::basic_ostream const*, unsigned long)
PUBLIC 5634 0 std::__ndk1::__pad_and_output[abi:ne180000]<char, std::__ndk1::char_traits<char> >(std::__ndk1::char_traits<char>, std::__ndk1::ostreambuf_iterator const*, std::__ndk1::ostreambuf_iterator const, std::__ndk1::ostreambuf_iterator const, std::__ndk1::ios_base&, std::__ndk1::ostreambuf_iterator)
PUBLIC 5810 0 std::__ndk1::basic_string<char, std::__ndk1::char_traits<char>, std::__ndk1::allocator<char> >::__throw_length_error[abi:ne180000]() const
PUBLIC 5824 0 std::__ndk1::__throw_length_error[abi:ne180000](char const*)
PUBLIC 5874 0 std::length_error::length_error[abi:ne180000](char const*)
PUBLIC 58a4 0 std::__throw_bad_array_new_length([abi:ne180000], void)
PUBLIC 58d8 0 std::__ndk1::basic_stringbuf<char, std::__ndk1::char_traits<char>, std::__ndk1::allocator<char> >::str[abi:ne180000]() &&
PUBLIC 5a50 0 std::__ndk1::basic_stringbuf<char, std::__ndk1::char_traits<char>, std::__ndk1::allocator<char> >::__init_buf_ptrs[abi:ne180000]()
PUBLIC 5b98 0 std::__ndk1::basic_string<char, std::__ndk1::char_traits<char>, std::__ndk1::allocator<char> >::__init_copy_ctor_external(char const*, unsigned long)
PUBLIC 5c18 0 std::__ndk1::__split_buffer<std::__ndk1::basic_string<char, std::__ndk1::char_traits<char>, std::__ndk1::allocator<char> >, std::__ndk1::allocator<std::__ndk1::basic_string<char, std::__ndk1::char_traits<char>, std::__ndk1::allocator<char> > >&>::~__split_buffer()
PUBLIC 5c80 0 std::__ndk1::vector<std::__ndk1::basic_string<char, std::__ndk1::char_traits<char>, std::__ndk1::allocator<char> >, std::__ndk1::allocator<std::__ndk1::basic_string<char, std::__ndk1::char_traits<char>, std::__ndk1::allocator<char> > > >::__throw_length_error[abi:ne180000]() const
PUBLIC 5c94 0 std::__ndk1::__variant_detail::__visitation::__base::__dispatcher<(unsigned long)0>::__dispatch[abi:ne180000]<std::__ndk1::__variant_detail::__dtor<std::__ndk1::__variant_detail::__traits<geode::Hook*, std::__ndk1::basic_string<char, std::__ndk1::char_traits<char>, std::__ndk1::allocator<char> > >, (std::__ndk1::__variant_detail::_Trait)1>::__destroy[abi:ne180000]()::{lambda(auto:1&)#1}, std::__ndk1::__variant_detail::__base<(std::__ndk1::__variant_detail::__traits<geode::Hook*, std::__ndk1::basic_string<char, std::__ndk1::char_traits<char>, std::__ndk1::allocator<char> > >)1, geode::Hook, std::__ndk1::allocator<char> >&>(std::__ndk1::__variant_detail::__dtor<std::__ndk1::__variant_detail::__traits<geode::Hook*, std::__ndk1::basic_string<char, std::__ndk1::char_traits<char>, std::__ndk1::allocator<char> > >, (std::__ndk1::__variant_detail::_Trait)1>, std::__ndk1::__variant_detail::__base<(std::__ndk1::__variant_detail::__traits<geode::Hook*, std::__ndk1::basic_string<char, std::__ndk1::char_traits<char>, std::__ndk1::allocator<char> > >)1, geode::Hook, std::__ndk1::allocator<char> >&)
PUBLIC 5c98 0 std::__ndk1::__variant_detail::__visitation::__base::__dispatcher<(unsigned long)1>::__dispatch[abi:ne180000]<std::__ndk1::__variant_detail::__dtor<std::__ndk1::__variant_detail::__traits<geode::Hook*, std::__ndk1::basic_string<char, std::__ndk1::char_traits<char>, std::__ndk1::allocator<char> > >, (std::__ndk1::__variant_detail::_Trait)1>::__destroy[abi:ne180000]()::{lambda(auto:1&)#1}, std::__ndk1::__variant_detail::__base<(std::__ndk1::__variant_detail::__traits<geode::Hook*, std::__ndk1::basic_string<char, std::__ndk1::char_traits<char>, std::__ndk1::allocator<char> > >)1, geode::Hook, std::__ndk1::allocator<char> >&>(std::__ndk1::__variant_detail::__dtor<std::__ndk1::__variant_detail::__traits<geode::Hook*, std::__ndk1::basic_string<char, std::__ndk1::char_traits<char>, std::__ndk1::allocator<char> > >, (std::__ndk1::__variant_detail::_Trait)1>, std::__ndk1::__variant_detail::__base<(std::__ndk1::__variant_detail::__traits<geode::Hook*, std::__ndk1::basic_string<char, std::__ndk1::char_traits<char>, std::__ndk1::allocator<char> > >)1, geode::Hook, std::__ndk1::allocator<char> >&)
PUBLIC 5cac 0 std::__ndk1::__tree<std::__ndk1::__value_type<std::__ndk1::basic_string<char, std::__ndk1::char_traits<char>, std::__ndk1::allocator<char> >, std::__ndk1::shared_ptr<geode::Hook> >, std::__ndk1::__map_value_compare<std::__ndk1::basic_string<char, std::__ndk1::char_traits<char>, std::__ndk1::allocator<char> >, std::__ndk1::__value_type<std::__ndk1::basic_string<char, std::__ndk1::char_traits<char>, std::__ndk1::allocator<char> >, std::__ndk1::shared_ptr<geode::Hook> >, std::__ndk1::less<std::__ndk1::basic_string<char, std::__ndk1::char_traits<char>, std::__ndk1::allocator<char> > >, true>, std::__ndk1::allocator<std::__ndk1::__value_type<std::__ndk1::basic_string<char, std::__ndk1::char_traits<char>, std::__ndk1::allocator<char> >, std::__ndk1::shared_ptr<geode::Hook> > > >::destroy(std::__ndk1::__tree_node<std::__ndk1::__value_type<std::__ndk1::basic_string<char, std::__ndk1::char_traits<char>, std::__ndk1::allocator<char> >, std::__ndk1::shared_ptr<geode::Hook> >, void*>*)
PUBLIC 5d30 0 geode::modifier::AsStaticFunction_init<Plankton, bool (Plankton::*)()>::Impl<bool (Plankton::*)()>::function(Plankton*)
PUBLIC 5e64 0 geode::addresser::Addresser::addressOfVirtual<bool, MenuLayer, >(bool (MenuLayer::*)())
PUBLIC 5f0c 0 MenuLayer::MenuLayer(geode::ZeroConstructorType)
PUBLIC 5fa8 0 std::__ndk1::shared_ptr<tulip::hook::CallingConvention>::~shared_ptr[abi:ne180000]()
PUBLIC 5ff8 0 tulip::hook::HandlerMetadata::~HandlerMetadata()
PUBLIC 605c 0 Plankton::onPalnkton(cocos2d::CCObject*)
PUBLIC 625c 0 cocos2d::CCSequence::create(cocos2d::CCFiniteTimeAction*, ...)
PUBLIC 62f4 0 std::__ndk1::__tree_balance_after_insert[abi:ne180000]<std::__ndk1::__tree_node_base<void*>*>(std::__ndk1::__tree_node_base<void*>*, std::__ndk1::__tree_node_base<void*>*)
PUBLIC m 64a4 0 geodeImplicitEntry
PUBLIC 64e0 0 wrapFunction(unsigned long, tulip::hook::WrapperMetadata const&)
PUBLIC 6614 0 geode::impl::ResultData<void*, std::__ndk1::basic_string<char, std::__ndk1::char_traits<char>, std::__ndk1::allocator<char> > >::unwrapErr() &
PUBLIC 668c 0 geode::impl::ResultData<void*, std::__ndk1::basic_string<char, std::__ndk1::char_traits<char>, std::__ndk1::allocator<char> > >::~ResultData()
PUBLIC 6700 0 tulip::hook::WrapperMetadata::~WrapperMetadata()
PUBLIC 6764 0 FMODAudioEngine::playEffect(gd::string)
PUBLIC 68dc 0 tulip::hook::AbstractFunction::from<void, FMODAudioEngine*, gd::string>(void (*)(FMODAudioEngine*, gd::string))
PUBLIC 6980 0 _ZN5geode15UnwrapExceptionC2IRPvQsr4implE18IsStringStreamableIT_EEENS_4impl5OkTagEOS4_
PUBLIC 6ad4 0 _ZN5geode15UnwrapExceptionC2IRNSt6__ndk112basic_stringIcNS2_11char_traitsIcEENS2_9allocatorIcEEEEQsr4implE18IsStringStreamableIT_EEENS_4impl6ErrTagEOSA_
PUBLIC 6c3c 0 std::__ndk1::__variant_detail::__visitation::__base::__dispatcher<(unsigned long)0>::__dispatch[abi:ne180000]<std::__ndk1::__variant_detail::__dtor<std::__ndk1::__variant_detail::__traits<void*, std::__ndk1::basic_string<char, std::__ndk1::char_traits<char>, std::__ndk1::allocator<char> > >, (std::__ndk1::__variant_detail::_Trait)1>::__destroy[abi:ne180000]()::{lambda(auto:1&)#1}, std::__ndk1::__variant_detail::__base<(std::__ndk1::__variant_detail::__traits<void*, std::__ndk1::basic_string<char, std::__ndk1::char_traits<char>, std::__ndk1::allocator<char> > >)1, std::__ndk1::__variant_detail::__traits, std::__ndk1::allocator<char> >&>(std::__ndk1::__variant_detail::__dtor<std::__ndk1::__variant_detail::__traits<void*, std::__ndk1::basic_string<char, std::__ndk1::char_traits<char>, std::__ndk1::allocator<char> > >, (std::__ndk1::__variant_detail::_Trait)1>, std::__ndk1::__variant_detail::__base<(std::__ndk1::__variant_detail::__traits<void*, std::__ndk1::basic_string<char, std::__ndk1::char_traits<char>, std::__ndk1::allocator<char> > >)1, std::__ndk1::__variant_detail::__traits, std::__ndk1::allocator<char> >&)
PUBLIC 6c40 0 std::__ndk1::__variant_detail::__visitation::__base::__dispatcher<(unsigned long)1>::__dispatch[abi:ne180000]<std::__ndk1::__variant_detail::__dtor<std::__ndk1::__variant_detail::__traits<void*, std::__ndk1::basic_string<char, std::__ndk1::char_traits<char>, std::__ndk1::allocator<char> > >, (std::__ndk1::__variant_detail::_Trait)1>::__destroy[abi:ne180000]()::{lambda(auto:1&)#1}, std::__ndk1::__variant_detail::__base<(std::__ndk1::__variant_detail::__traits<void*, std::__ndk1::basic_string<char, std::__ndk1::char_traits<char>, std::__ndk1::allocator<char> > >)1, std::__ndk1::__variant_detail::__traits, std::__ndk1::allocator<char> >&>(std::__ndk1::__variant_detail::__dtor<std::__ndk1::__variant_detail::__traits<void*, std::__ndk1::basic_string<char, std::__ndk1::char_traits<char>, std::__ndk1::allocator<char> > >, (std::__ndk1::__variant_detail::_Trait)1>, std::__ndk1::__variant_detail::__base<(std::__ndk1::__variant_detail::__traits<void*, std::__ndk1::basic_string<char, std::__ndk1::char_traits<char>, std::__ndk1::allocator<char> > >)1, std::__ndk1::__variant_detail::__traits, std::__ndk1::allocator<char> >&)
PUBLIC 6c60 0 <.plt ELF section in uproxide.all_hail_plankton.android64.so>
STACK CFI INIT 3870 10 .cfa: sp 0 +
STACK CFI INIT 3880 8 .cfa: sp 0 +
STACK CFI INIT 3888 8 .cfa: sp 0 +
STACK CFI INIT 3890 14 .cfa: sp 0 +
STACK CFI INIT 38a4 1c .cfa: sp 0 +
STACK CFI INIT 38c0 10 .cfa: sp 0 +
STACK CFI INIT 38d0 30 .cfa: sp 0 +
STACK CFI INIT 3900 98 .cfa: sp 0 +
STACK CFI INIT 3998 59c .cfa: sp 0 +
STACK CFI INIT 3f34 8c .cfa: sp 0 +
STACK CFI INIT 3fc0 30 .cfa: sp 0 +
STACK CFI INIT 4bc4 18 .cfa: sp 0 +
STACK CFI INIT 4fe4 50 .cfa: sp 0 +
STACK CFI 4fe8 .cfa: sp 32 +
STACK CFI 4ff0 .cfa: x29 32 + x19: .cfa -16 + ^ .ra: .cfa -24 + ^ x29: .cfa -32 + ^
STACK CFI 5008 .cfa: sp 32 +
STACK CFI 5010 .cfa: sp 0 +
STACK CFI 5014 .cfa: x29 32 +
STACK CFI 5028 .cfa: sp 32 +
STACK CFI 5030 .cfa: sp 0 +
STACK CFI INIT 50a8 7c .cfa: sp 0 +
STACK CFI 50ac .cfa: sp 48 +
STACK CFI 50b8 .cfa: x29 48 + x19: .cfa -8 + ^ x20: .cfa -16 + ^ x21: .cfa -32 + ^ .ra: .cfa -40 + ^ x29: .cfa -48 + ^
STACK CFI 5104 .cfa: sp 48 +
STACK CFI 5110 .cfa: sp 0 +
STACK CFI 5114 .cfa: sp 48 +
STACK CFI 5120 .cfa: sp 0 +
STACK CFI INIT 5124 4 .cfa: sp 0 +
STACK CFI INIT 5128 10 .cfa: sp 0 +
STACK CFI 512c .cfa: sp 16 +
STACK CFI 5130 .cfa: x29 16 + .ra: .cfa -8 + ^ x29: .cfa -16 + ^
STACK CFI INIT 528c 34 .cfa: sp 0 +
STACK CFI 5290 .cfa: sp 16 +
STACK CFI 5294 .cfa: x29 16 + .ra: .cfa -8 + ^ x29: .cfa -16 + ^
STACK CFI INIT 53ec 80 .cfa: sp 0 +
STACK CFI 53f0 .cfa: sp 48 +
STACK CFI 53fc .cfa: x29 48 + x19: .cfa -8 + ^ x20: .cfa -16 + ^ x21: .cfa -32 + ^ .ra: .cfa -40 + ^ x29: .cfa -48 + ^
STACK CFI 545c .cfa: sp 48 +
STACK CFI 5468 .cfa: sp 0 +
STACK CFI INIT 546c 24 .cfa: sp 0 +
STACK CFI 5470 .cfa: sp 32 +
STACK CFI 5478 .cfa: x29 32 + x19: .cfa -16 + ^ .ra: .cfa -24 + ^ x29: .cfa -32 + ^
STACK CFI 5484 .cfa: sp 32 +
STACK CFI 548c .cfa: sp 0 +
STACK CFI INIT 5810 14 .cfa: sp 0 +
STACK CFI 5814 .cfa: sp 16 +
STACK CFI 5818 .cfa: x29 16 + .ra: .cfa -8 + ^ x29: .cfa -16 + ^
STACK CFI INIT 5874 30 .cfa: sp 0 +
STACK CFI 5878 .cfa: sp 32 +
STACK CFI 5880 .cfa: x29 32 + x19: .cfa -16 + ^ .ra: .cfa -24 + ^ x29: .cfa -32 + ^
STACK CFI 5898 .cfa: sp 32 +
STACK CFI 58a0 .cfa: sp 0 +
STACK CFI INIT 58a4 34 .cfa: sp 0 +
STACK CFI 58a8 .cfa: sp 32 +
STACK CFI 58b0 .cfa: x29 32 + x19: .cfa -16 + ^ .ra: .cfa -24 + ^ x29: .cfa -32 + ^
STACK CFI INIT 5a50 148 .cfa: sp 0 +
STACK CFI 5a54 .cfa: sp 48 +
STACK CFI 5a60 .cfa: x29 48 + x19: .cfa -8 + ^ x20: .cfa -16 + ^ x21: .cfa -32 + ^ .ra: .cfa -40 + ^ x29: .cfa -48 + ^
STACK CFI 5b88 .cfa: sp 48 +
STACK CFI 5b94 .cfa: sp 0 +
STACK CFI INIT 5b98 80 .cfa: sp 0 +
STACK CFI 5b9c .cfa: sp 48 +
STACK CFI 5ba8 .cfa: x29 48 + x19: .cfa -8 + ^ x20: .cfa -16 + ^ x21: .cfa -24 + ^ x22: .cfa -32 + ^ .ra: .cfa -40 + ^ x29: .cfa -48 + ^
STACK CFI 5bc0 .cfa: sp 48 +
STACK CFI 5bcc .cfa: sp 0 +
STACK CFI 5bd0 .cfa: x29 48 +
STACK CFI 5c00 .cfa: sp 48 +
STACK CFI 5c0c .cfa: sp 0 +
STACK CFI 5c10 .cfa: x29 48 +
STACK CFI INIT 5c18 68 .cfa: sp 0 +
STACK CFI 5c1c .cfa: sp 32 +
STACK CFI 5c24 .cfa: x29 32 + x19: .cfa -8 + ^ x20: .cfa -16 + ^ .ra: .cfa -24 + ^ x29: .cfa -32 + ^
STACK CFI 5c3c .cfa: sp 32 +
STACK CFI 5c44 .cfa: sp 0 +
STACK CFI 5c48 .cfa: x29 32 +
STACK CFI 5c74 .cfa: sp 32 +
STACK CFI 5c7c .cfa: sp 0 +
STACK CFI INIT 5c80 14 .cfa: sp 0 +
STACK CFI 5c84 .cfa: sp 16 +
STACK CFI 5c88 .cfa: x29 16 + .ra: .cfa -8 + ^ x29: .cfa -16 + ^
STACK CFI INIT 5c94 4 .cfa: sp 0 +
STACK CFI INIT 5c98 14 .cfa: sp 0 +
STACK CFI INIT 5cac 84 .cfa: sp 0 +
STACK CFI 5cb4 .cfa: sp 32 +
STACK CFI 5cbc .cfa: x29 32 + x19: .cfa -8 + ^ x20: .cfa -16 + ^ .ra: .cfa -24 + ^ x29: .cfa -32 + ^
STACK CFI 5cfc .cfa: sp 32 +
STACK CFI 5d04 .cfa: sp 0 +
STACK CFI 5d0c .cfa: x29 32 +
STACK CFI INIT 5f0c 9c .cfa: sp 0 +
STACK CFI INIT 5fa8 50 .cfa: sp 0 +
STACK CFI 5fac .cfa: sp 32 +
STACK CFI 5fb4 .cfa: x29 32 + x19: .cfa -16 + ^ .ra: .cfa -24 + ^ x29: .cfa -32 + ^
STACK CFI 5fcc .cfa: sp 32 +
STACK CFI 5fd4 .cfa: sp 0 +
STACK CFI 5fd8 .cfa: x29 32 +
STACK CFI 5fec .cfa: sp 32 +
STACK CFI 5ff4 .cfa: sp 0 +
STACK CFI INIT 5ff8 64 .cfa: sp 0 +
STACK CFI 5ffc .cfa: sp 32 +
STACK CFI 6004 .cfa: x29 32 + x19: .cfa -16 + ^ .ra: .cfa -24 + ^ x29: .cfa -32 + ^
STACK CFI 6030 .cfa: sp 32 +
STACK CFI 6038 .cfa: sp 0 +
STACK CFI 603c .cfa: x29 32 +
STACK CFI 6050 .cfa: sp 32 +
STACK CFI 6058 .cfa: sp 0 +
STACK CFI INIT 625c 98 .cfa: sp 0 +
STACK CFI 6260 .cfa: sp 304 +
STACK CFI 626c .cfa: x29 32 + x19: .cfa -8 + ^ x28: .cfa -16 + ^ .ra: .cfa -24 + ^ x29: .cfa -32 + ^
STACK CFI 62e0 .cfa: sp 304 +
STACK CFI 62ec .cfa: sp 0 +
STACK CFI 62f0 .cfa: x29 32 +
STACK CFI INIT 62f4 1b0 .cfa: sp 0 +
STACK CFI INIT 64a4 3c .cfa: sp 0 +
STACK CFI 64a8 .cfa: sp 32 +
STACK CFI 64b0 .cfa: x29 32 + x19: .cfa -16 + ^ .ra: .cfa -24 + ^ x29: .cfa -32 + ^
STACK CFI 64bc .cfa: sp 32 +
STACK CFI 64c4 .cfa: sp 0 +
STACK CFI 64c8 .cfa: x29 32 +
STACK CFI 64d4 .cfa: sp 32 +
STACK CFI 64dc .cfa: sp 0 +
STACK CFI INIT 6700 64 .cfa: sp 0 +
STACK CFI 6704 .cfa: sp 32 +
STACK CFI 670c .cfa: x29 32 + x19: .cfa -16 + ^ .ra: .cfa -24 + ^ x29: .cfa -32 + ^
STACK CFI 6738 .cfa: sp 32 +
STACK CFI 6740 .cfa: sp 0 +
STACK CFI 6744 .cfa: x29 32 +
STACK CFI 6758 .cfa: sp 32 +
STACK CFI 6760 .cfa: sp 0 +
STACK CFI INIT 6c3c 4 .cfa: sp 0 +
STACK CFI INIT 6c40 14 .cfa: sp 0 +
STACK CFI INIT 3ff0 bd4 .cfa: sp 0 +
STACK CFI 3ff4 .cfa: sp 240 +
STACK CFI 4010 .cfa: x29 96 + x19: .cfa -8 + ^ x20: .cfa -16 + ^ x21: .cfa -24 + ^ x22: .cfa -32 + ^ x23: .cfa -40 + ^ x24: .cfa -48 + ^ x25: .cfa -56 + ^ x26: .cfa -64 + ^ x27: .cfa -72 + ^ x28: .cfa -80 + ^ .ra: .cfa -88 + ^ x29: .cfa -96 + ^
STACK CFI 43ec .cfa: sp 240 +
STACK CFI 4408 .cfa: sp 0 +
STACK CFI 440c .cfa: x29 96 +
STACK CFI 4a6c .cfa: sp 240 +
STACK CFI 4a88 .cfa: sp 0 +
STACK CFI 4a8c .cfa: x29 96 +
STACK CFI INIT 4bdc 408 .cfa: sp 0 +
STACK CFI 4be0 .cfa: sp 208 +
STACK CFI 4bfc .cfa: x29 96 + x19: .cfa -8 + ^ x20: .cfa -16 + ^ x21: .cfa -24 + ^ x22: .cfa -32 + ^ x23: .cfa -40 + ^ x24: .cfa -48 + ^ x25: .cfa -56 + ^ x26: .cfa -64 + ^ x27: .cfa -80 + ^ .ra: .cfa -88 + ^ x29: .cfa -96 + ^
STACK CFI 4ed0 .cfa: sp 208 +
STACK CFI 4eec .cfa: sp 0 +
STACK CFI 4ef0 .cfa: x29 96 +
STACK CFI INIT 5034 74 .cfa: sp 0 +
STACK CFI 5038 .cfa: sp 48 +
STACK CFI 5044 .cfa: x29 32 + x19: .cfa -8 + ^ x20: .cfa -16 + ^ .ra: .cfa -24 + ^ x29: .cfa -32 + ^
STACK CFI 5090 .cfa: sp 48 +
STACK CFI 509c .cfa: sp 0 +
STACK CFI 50a0 .cfa: x29 32 +
STACK CFI INIT 5138 154 .cfa: sp 0 +
STACK CFI 513c .cfa: sp 384 +
STACK CFI 5150 .cfa: x29 64 + x19: .cfa -8 + ^ x20: .cfa -16 + ^ x21: .cfa -24 + ^ x22: .cfa -32 + ^ x23: .cfa -40 + ^ x28: .cfa -48 + ^ .ra: .cfa -56 + ^ x29: .cfa -64 + ^
STACK CFI 5234 .cfa: sp 384 +
STACK CFI 5248 .cfa: sp 0 +
STACK CFI 524c .cfa: x29 64 +
STACK CFI INIT 52c0 12c .cfa: sp 0 +
STACK CFI 52c4 .cfa: sp 80 +
STACK CFI 52d8 .cfa: x29 80 + x19: .cfa -8 + ^ x20: .cfa -16 + ^ x21: .cfa -24 + ^ x22: .cfa -32 + ^ x23: .cfa -40 + ^ x24: .cfa -48 + ^ x25: .cfa -56 + ^ x26: .cfa -64 + ^ .ra: .cfa -72 + ^ x29: .cfa -80 + ^
STACK CFI 53a0 .cfa: sp 80 +
STACK CFI 53b4 .cfa: sp 0 +
STACK CFI 53b8 .cfa: x29 80 +
STACK CFI INIT 5490 1a4 .cfa: sp 0 +
STACK CFI 5494 .cfa: sp 112 +
STACK CFI 54ac .cfa: x29 80 + x19: .cfa -8 + ^ x20: .cfa -16 + ^ x21: .cfa -24 + ^ x22: .cfa -32 + ^ x23: .cfa -40 + ^ x24: .cfa -48 + ^ x25: .cfa -56 + ^ x26: .cfa -64 + ^ .ra: .cfa -72 + ^ x29: .cfa -80 + ^
STACK CFI 559c .cfa: sp 112 +
STACK CFI 55b4 .cfa: sp 0 +
STACK CFI 55b8 .cfa: x29 80 +
STACK CFI INIT 5634 1dc .cfa: sp 0 +
STACK CFI 5638 .cfa: sp 128 +
STACK CFI 5654 .cfa: x29 96 + x19: .cfa -8 + ^ x20: .cfa -16 + ^ x21: .cfa -24 + ^ x22: .cfa -32 + ^ x23: .cfa -40 + ^ x24: .cfa -48 + ^ x25: .cfa -56 + ^ x26: .cfa -64 + ^ x27: .cfa -80 + ^ .ra: .cfa -88 + ^ x29: .cfa -96 + ^
STACK CFI 57c0 .cfa: sp 128 +
STACK CFI 57dc .cfa: sp 0 +
STACK CFI 57e0 .cfa: x29 96 +
STACK CFI INIT 5824 50 .cfa: sp 0 +
STACK CFI 5828 .cfa: sp 32 +
STACK CFI 5830 .cfa: x29 32 + x19: .cfa -8 + ^ x20: .cfa -16 + ^ .ra: .cfa -24 + ^ x29: .cfa -32 + ^
STACK CFI INIT 58d8 178 .cfa: sp 0 +
STACK CFI 58dc .cfa: sp 80 +
STACK CFI 58f0 .cfa: x29 80 + x19: .cfa -8 + ^ x20: .cfa -16 + ^ x21: .cfa -24 + ^ x22: .cfa -32 + ^ x23: .cfa -40 + ^ x24: .cfa -48 + ^ x25: .cfa -64 + ^ .ra: .cfa -72 + ^ x29: .cfa -80 + ^
STACK CFI 5a1c .cfa: sp 80 +
STACK CFI 5a30 .cfa: sp 0 +
STACK CFI 5a34 .cfa: x29 80 +
STACK CFI INIT 5d30 134 .cfa: sp 0 +
STACK CFI 5d34 .cfa: sp 80 +
STACK CFI 5d44 .cfa: x29 48 + x19: .cfa -8 + ^ x20: .cfa -16 + ^ x21: .cfa -24 + ^ x22: .cfa -32 + ^ .ra: .cfa -40 + ^ x29: .cfa -48 + ^
STACK CFI 5e20 .cfa: sp 80 +
STACK CFI 5e30 .cfa: sp 0 +
STACK CFI 5e34 .cfa: x29 48 +
STACK CFI INIT 5e64 a8 .cfa: sp 0 +
STACK CFI 5e68 .cfa: sp 32 +
STACK CFI 5e70 .cfa: x29 32 + x19: .cfa -16 + ^ .ra: .cfa -24 + ^ x29: .cfa -32 + ^
STACK CFI 5ea4 .cfa: sp 32 +
STACK CFI 5eac .cfa: sp 0 +
STACK CFI 5eb0 .cfa: x29 32 +
STACK CFI 5eb4 .cfa: sp 32 +
STACK CFI 5ebc .cfa: sp 0 +
STACK CFI 5ec0 .cfa: x29 32 +
STACK CFI INIT 605c 200 .cfa: sp 0 +
STACK CFI 6060 .cfa: sp 96 +
STACK CFI 6078 .cfa: x29 56 + x19: .cfa -8 + ^ x20: .cfa -16 + ^ x21: .cfa -24 + ^ x22: .cfa -32 + ^ x23: .cfa -40 + ^ .ra: .cfa -48 + ^ x29: .cfa -56 + ^ v8: .cfa -64 + ^
STACK CFI 6218 .cfa: sp 96 +
STACK CFI 6230 .cfa: sp 0 +
STACK CFI 6234 .cfa: x29 56 +
STACK CFI INIT 64e0 134 .cfa: sp 0 +
STACK CFI 64e4 .cfa: sp 80 +
STACK CFI 64f0 .cfa: x29 32 + x19: .cfa -8 + ^ x20: .cfa -16 + ^ .ra: .cfa -24 + ^ x29: .cfa -32 + ^
STACK CFI 6520 .cfa: sp 80 +
STACK CFI 652c .cfa: sp 0 +
STACK CFI 6530 .cfa: x29 32 +
STACK CFI INIT 6614 78 .cfa: sp 0 +
STACK CFI 6618 .cfa: sp 32 +
STACK CFI 6620 .cfa: x29 32 + x19: .cfa -8 + ^ x20: .cfa -16 + ^ .ra: .cfa -24 + ^ x29: .cfa -32 + ^
STACK CFI 662c .cfa: sp 32 +
STACK CFI 6634 .cfa: sp 0 +
STACK CFI 6638 .cfa: x29 32 +
STACK CFI INIT 668c 74 .cfa: sp 0 +
STACK CFI 6690 .cfa: sp 48 +
STACK CFI 669c .cfa: x29 32 + x19: .cfa -8 + ^ x20: .cfa -16 + ^ .ra: .cfa -24 + ^ x29: .cfa -32 + ^
STACK CFI 66e8 .cfa: sp 48 +
STACK CFI 66f4 .cfa: sp 0 +
STACK CFI 66f8 .cfa: x29 32 +
STACK CFI INIT 6764 178 .cfa: sp 0 +
STACK CFI 6768 .cfa: sp 128 +
STACK CFI 6778 .cfa: x29 48 + x19: .cfa -8 + ^ x20: .cfa -16 + ^ x21: .cfa -24 + ^ x22: .cfa -32 + ^ .ra: .cfa -40 + ^ x29: .cfa -48 + ^
STACK CFI 67d4 .cfa: sp 128 +
STACK CFI 67e4 .cfa: sp 0 +
STACK CFI 67e8 .cfa: x29 48 +
STACK CFI INIT 68dc a4 .cfa: sp 0 +
STACK CFI 68e0 .cfa: sp 48 +
STACK CFI 68ec .cfa: x29 48 + x19: .cfa -8 + ^ x20: .cfa -16 + ^ x21: .cfa -32 + ^ .ra: .cfa -40 + ^ x29: .cfa -48 + ^
STACK CFI 6958 .cfa: sp 48 +
STACK CFI 6964 .cfa: sp 0 +
STACK CFI 6968 .cfa: x29 48 +
STACK CFI INIT 6980 154 .cfa: sp 0 +
STACK CFI 6984 .cfa: sp 384 +
STACK CFI 6998 .cfa: x29 64 + x19: .cfa -8 + ^ x20: .cfa -16 + ^ x21: .cfa -24 + ^ x22: .cfa -32 + ^ x23: .cfa -40 + ^ x28: .cfa -48 + ^ .ra: .cfa -56 + ^ x29: .cfa -64 + ^
STACK CFI 6a7c .cfa: sp 384 +
STACK CFI 6a90 .cfa: sp 0 +
STACK CFI 6a94 .cfa: x29 64 +
STACK CFI INIT 6ad4 168 .cfa: sp 0 +
STACK CFI 6ad8 .cfa: sp 384 +
STACK CFI 6aec .cfa: x29 64 + x19: .cfa -8 + ^ x20: .cfa -16 + ^ x21: .cfa -24 + ^ x22: .cfa -32 + ^ x23: .cfa -40 + ^ x28: .cfa -48 + ^ .ra: .cfa -56 + ^ x29: .cfa -64 + ^
STACK CFI 6be4 .cfa: sp 384 +
STACK CFI 6bf8 .cfa: sp 0 +
STACK CFI 6bfc .cfa: x29 64 +
